 test

 Timestamp is 3705865f (Fri Apr 02 19:09:19 1999)

 Preferred load address is 00400000

 Start         Length     Name                   Class
 0001:00000000 001847e2H .text                   CODE
 0001:001847f0 00007ef7H .text$x                 CODE
 0002:00000000 00000384H .idata$5                DATA
 0002:00000390 0000a54bH .rdata                  DATA
 0002:0000a8e0 00008fa0H .xdata$x                DATA
 0002:00013880 000000f0H .idata$2                DATA
 0002:00013970 00000014H .idata$3                DATA
 0002:00013984 00000384H .idata$4                DATA
 0002:00013d08 00000f1cH .idata$6                DATA
 0002:00014c24 00000000H .edata                  DATA
 0003:00000000 00000004H .CRT$XCA                DATA
 0003:00000010 0000077cH .CRT$XCU                DATA
 0003:0000078c 00000004H .CRT$XCZ                DATA
 0003:00000790 00000004H .CRT$XIA                DATA
 0003:00000794 00000008H .CRT$XIC                DATA
 0003:0000079c 00000004H .CRT$XIY                DATA
 0003:000007a0 00000004H .CRT$XIZ                DATA
 0003:000007a4 00000004H .CRT$XPA                DATA
 0003:000007a8 00000004H .CRT$XPX                DATA
 0003:000007ac 00000004H .CRT$XPZ                DATA
 0003:000007b0 00000004H .CRT$XTA                DATA
 0003:000007b4 00000004H .CRT$XTB                DATA
 0003:000007b8 00000004H .CRT$XTZ                DATA
 0003:000007c0 0002f2bcH .data                   DATA
 0003:0002fa80 0013fc10H .bss                    DATA
 0004:00000000 00000020H .data1                  DATA
 0005:00000000 000000e8H .rsrc$01                DATA
 0005:000000f0 00000ba0H .rsrc$02                DATA

  Address         Publics by Value              Rva+Base     Lib:Object

 0001:00000000       __setargv                  00401000 f   setargv.obj
 0001:00000030       ?CreatePipeline@@YAPAVagiPipeline@@HPAPAD@Z 00401030 f   test.obj
 0001:00000250       ?GenerateLoadScreenName@@YAHXZ 00401250 f   test.obj
 0001:00000430       ?GameFilter@@YAHPAU_EXCEPTION_POINTERS@@@Z 00401430 f   test.obj
 0001:00000520       ?GameLoop@@YAXPAVmmInterface@@PAVmmGameManager@@PAD@Z 00401520 f   test.obj
 0001:00000670       ?ApplicationHelper@@YAXHPAPAD@Z 00401670 f   test.obj
 0001:000014f0       ?InitAudioManager@@YAXXZ   004024f0 f   test.obj
 0001:00001670       ?Application@@YAXHPAPAD@Z  00402670 f   test.obj
 0001:00001750       _WinMain@16                00402750 f   test.obj
 0001:000018c0       ??_H@YGXPAXIHP6EX0@Z@Z     004028c0 f i test.obj
 0001:000018f0       _GetModuleFileNameA@12     004028f0 f   kernel32:KERNEL32.dll
 0001:000018f6       _SetPriorityClass@8        004028f6 f   kernel32:KERNEL32.dll
 0001:000018fc       _GetCurrentProcess@0       004028fc f   kernel32:KERNEL32.dll
 0001:00001902       _GetFileAttributesA@4      00402902 f   kernel32:KERNEL32.dll
 0001:00001908       _GetDiskFreeSpaceA@20      00402908 f   kernel32:KERNEL32.dll
 0001:0000190e       _GlobalMemoryStatus@4      0040290e f   kernel32:KERNEL32.dll
 0001:00001914       _WaitForSingleObject@8     00402914 f   kernel32:KERNEL32.dll
 0001:0000191a       _CreateMutexA@12           0040291a f   kernel32:KERNEL32.dll
 0001:00001920       _FreeLibrary@4             00402920 f   kernel32:KERNEL32.dll
 0001:00001926       _GetProcAddress@8          00402926 f   kernel32:KERNEL32.dll
 0001:0000192c       _LoadLibraryA@4            0040292c f   kernel32:KERNEL32.dll
 0001:00001932       _OutputDebugStringA@4      00402932 f   kernel32:KERNEL32.dll
 0001:00001938       _MessageBoxA@16            00402938 f   user32:USER32.dll
 0001:0000193e       _GetAsyncKeyState@4        0040293e f   user32:USER32.dll
 0001:00001944       _ChangeDisplaySettingsA@8  00402944 f   user32:USER32.dll
 0001:0000194a       _ReleaseDC@8               0040294a f   user32:USER32.dll
 0001:00001950       _GetDC@4                   00402950 f   user32:USER32.dll
 0001:00001956       _ShowCursor@4              00402956 f   user32:USER32.dll
 0001:0000195c       _GetDeviceCaps@8           0040295c f   gdi32:GDI32.dll
 0001:00001990       ?Update@mmScreenClearFlunky@@UAEXXZ 00402990 f   mmgame:gameman.obj
 0001:000019c0       ?Cull@mmScreenClearFlunky@@UAEXXZ 004029c0 f   mmgame:gameman.obj
 0001:00001b00       ??0mmGameManager@@QAE@XZ   00402b00 f   mmgame:gameman.obj
 0001:00001f10       ??1mmGameManager@@UAE@XZ   00402f10 f   mmgame:gameman.obj
 0001:00002020       ?BeDone@mmGameManager@@QAEXXZ 00403020 f   mmgame:gameman.obj
 0001:00002030       ?Update@mmGameManager@@UAEXXZ 00403030 f   mmgame:gameman.obj
 0001:000022b0       ?Cull@mmGameManager@@UAEXXZ 004032b0 f   mmgame:gameman.obj
 0001:000022f0       ?StartReplay@mmGameManager@@QAEXXZ 004032f0 f   mmgame:gameman.obj
 0001:00002310       ?LoadReplay@mmGameManager@@QAEXPAD@Z 00403310 f   mmgame:gameman.obj
 0001:000023e0       ?SaveReplay@mmGameManager@@QAEXPAD@Z 004033e0 f   mmgame:gameman.obj
 0001:00002470       ?Reset@mmGameManager@@UAEXXZ 00403470 f   mmgame:gameman.obj
 0001:00002480       ?GetBrakes@mmGameManager@@QAEMXZ 00403480 f   mmgame:gameman.obj
 0001:000024b0       ?GetSteering@mmGameManager@@QAEMXZ 004034b0 f   mmgame:gameman.obj
 0001:000024e0       ?GetThrottle@mmGameManager@@QAEMXZ 004034e0 f   mmgame:gameman.obj
 0001:00002510       ?DeclareFields@mmGameManager@@SAXXZ 00403510 f   mmgame:gameman.obj
 0001:00002680       ?GetClass@mmGameManager@@UAEPAVMetaClass@@XZ 00403680 f   mmgame:gameman.obj
 0001:000026c0       ??_GmmScreenClearFlunky@@UAEPAXI@Z 004036c0 f i mmgame:gameman.obj
 0001:000026c0       ??_EmmScreenClearFlunky@@UAEPAXI@Z 004036c0 f i mmgame:gameman.obj
 0001:000026f0       ??1mmScreenClearFlunky@@UAE@XZ 004036f0 f i mmgame:gameman.obj
 0001:00002700       ?UpdatePaused@asNode@@UAEXXZ 00403700 f i mmgame:gameman.obj
 0001:00002710       ??_EmmGameManager@@UAEPAXI@Z 00403710 f i mmgame:gameman.obj
 0001:00002770       ?ReportTimeAlloc@@YAXM@Z   00403770 f   mmgame:interface.obj
 0001:000027b0       ??0mmInterface@@QAE@XZ     004037b0 f   mmgame:interface.obj
 0001:00003770       ?InitPlayerInfo@mmInterface@@QAEXXZ 00404770 f   mmgame:interface.obj
 0001:00003ae0       ??1mmInterface@@UAE@XZ     00404ae0 f   mmgame:interface.obj
 0001:00003c50       ?MessageCallback@mmInterface@@QAEXPAX0@Z 00404c50 f   mmgame:interface.obj
 0001:00004120       ?MessageCallback2@mmInterface@@QAEXPAX0@Z 00405120 f   mmgame:interface.obj
 0001:00004350       ?Reset@mmInterface@@UAEXXZ 00405350 f   mmgame:interface.obj
 0001:00004360       ?ShowMain@mmInterface@@QAEXH@Z 00405360 f   mmgame:interface.obj
 0001:00004480       ?ShowLockedVehicleMessage@mmInterface@@QAEXXZ 00405480 f   mmgame:interface.obj
 0001:000044a0       ?BeDone@mmInterface@@QAEXXZ 004054a0 f   mmgame:interface.obj
 0001:00004590       ?Update@mmInterface@@UAEXXZ 00405590 f   mmgame:interface.obj
 0001:00005be0       ?NetJoinCB@mmInterface@@AAEXXZ 00406be0 f   mmgame:interface.obj
 0001:00005c40       ?NetNameCB@mmInterface@@AAEXXZ 00406c40 f   mmgame:interface.obj
 0001:00005c70       ?JoinGame@mmInterface@@AAEXXZ 00406c70 f   mmgame:interface.obj
 0001:00005cf0       ?JoinLAN@mmInterface@@AAEXXZ 00406cf0 f   mmgame:interface.obj
 0001:00005d50       ?JoinSerial@mmInterface@@AAEHXZ 00406d50 f   mmgame:interface.obj
 0001:00005de0       ?JoinModem@mmInterface@@AAEHXZ 00406de0 f   mmgame:interface.obj
 0001:00005ed0       ?UpdateLobby@mmInterface@@QAEXXZ 00406ed0 f   mmgame:interface.obj
 0001:000064b0       ?Switch@mmInterface@@QAEXHH@Z 004074b0 f   mmgame:interface.obj
 0001:00006850       ?LobbySwitch@mmInterface@@QAEXHH@Z 00407850 f   mmgame:interface.obj
 0001:00006980       ?RefreshCRPlayers@mmInterface@@AAEXXZ 00407980 f   mmgame:interface.obj
 0001:00006a20       ?FillCRRoster@mmInterface@@AAEXXZ 00407a20 f   mmgame:interface.obj
 0001:00006b20       ?GetUnlockedCar@mmInterface@@AAEXXZ 00407b20 f   mmgame:interface.obj
 0001:00006b70       ?RequestProverb@mmInterface@@AAEXXZ 00407b70 f   mmgame:interface.obj
 0001:00006cd0       ?PlayerRemoveCB@mmInterface@@AAEXXZ 00407cd0 f   mmgame:interface.obj
 0001:00006d00       ?PlayerRemove@mmInterface@@AAEXPAD@Z 00407d00 f   mmgame:interface.obj
 0001:00006e90       ?PlayerCreateCB@mmInterface@@AAEXXZ 00407e90 f   mmgame:interface.obj
 0001:00006ee0       ?PlayerCreate@mmInterface@@AAEHPAD@Z 00407ee0 f   mmgame:interface.obj
 0001:00007070       ?PlayerLoadCB@mmInterface@@AAEXXZ 00408070 f   mmgame:interface.obj
 0001:000070a0       ?PlayerGraphicsCB@mmInterface@@AAEXXZ 004080a0 f   mmgame:interface.obj
 0001:00007110       ?PlayerLoad@mmInterface@@AAEXPAD@Z 00408110 f   mmgame:interface.obj
 0001:000071c0       ?PlayerSetState@mmInterface@@AAEXXZ 004081c0 f   mmgame:interface.obj
 0001:000073b0       ?CitySetupCB@mmInterface@@AAEXXZ 004083b0 f   mmgame:interface.obj
 0001:00007470       ?GetTimeString@mmInterface@@AAEXMPAD@Z 00408470 f   mmgame:interface.obj
 0001:000074d0       ?GetScoreString@mmInterface@@AAEXHPAD@Z 004084d0 f   mmgame:interface.obj
 0001:00007510       ?GetRaceString@mmInterface@@AAEXHPAD@Z 00408510 f   mmgame:interface.obj
 0001:00007570       ?GetRaceName@mmInterface@@AAEPADW4mmGameMode@@H@Z 00408570 f   mmgame:interface.obj
 0001:000076d0       ?RaceFillRecords@mmInterface@@AAEXXZ 004086d0 f   mmgame:interface.obj
 0001:00007fc0       ?PlayerFillStats@mmInterface@@AAEXXZ 00408fc0 f   mmgame:interface.obj
 0001:000084f0       ?PlayerResolveScore@mmInterface@@AAEXXZ 004094f0 f   mmgame:interface.obj
 0001:00008630       ?PlayerResolveCars@mmInterface@@AAEXXZ 00409630 f   mmgame:interface.obj
 0001:00008800       ?PlayerReadState@mmInterface@@AAEXXZ 00409800 f   mmgame:interface.obj
 0001:00008820       ?RefreshDriverList@mmInterface@@AAEXXZ 00409820 f   mmgame:interface.obj
 0001:000088d0       ?SetStateRace@mmInterface@@AAEXH@Z 004098d0 f   mmgame:interface.obj
 0001:000088e0       ?SetStateDefaults@mmInterface@@AAEXXZ 004098e0 f   mmgame:interface.obj
 0001:00008900       ?InitNetwork@mmInterface@@AAEXXZ 00409900 f   mmgame:interface.obj
 0001:000089f0       ?InitLobby@mmInterface@@QAEXXZ 004099f0 f   mmgame:interface.obj
 0001:00008a60       ?InitProtocols@mmInterface@@AAEXXZ 00409a60 f   mmgame:interface.obj
 0001:00008a80       ?ShowSessions@mmInterface@@AAEXXZ 00409a80 f   mmgame:interface.obj
 0001:00008c80       ?ClearSessions@mmInterface@@AAEXXZ 00409c80 f   mmgame:interface.obj
 0001:00008ca0       ?RefreshSessions@mmInterface@@AAEXXZ 00409ca0 f   mmgame:interface.obj
 0001:00008ce0       ?JoinSession@mmInterface@@AAEHH@Z 00409ce0 f   mmgame:interface.obj
 0001:00008ee0       ?JoinPasswordSession@mmInterface@@AAEHH@Z 00409ee0 f   mmgame:interface.obj
 0001:00009090       ?MultiStartGame@mmInterface@@AAEXXZ 0040a090 f   mmgame:interface.obj
 0001:00009120       ?SetProtocol@mmInterface@@AAEXXZ 0040a120 f   mmgame:interface.obj
 0001:000091d0       ?SetProtocol2@mmInterface@@AAEHXZ 0040a1d0 f   mmgame:interface.obj
 0001:00009220       ?CreatePlayer@mmInterface@@AAEHH@Z 0040a220 f   mmgame:interface.obj
 0001:00009440       ?GetHostPlayerData@mmInterface@@AAEHAAUmmPlayerInfo@@@Z 0040a440 f   mmgame:interface.obj
 0001:000094a0       ?GetUniquePlayerName@mmInterface@@AAEXXZ 0040a4a0 f   mmgame:interface.obj
 0001:00009590       ?ChangePlayerData@mmInterface@@AAEXXZ 0040a590 f   mmgame:interface.obj
 0001:00009660       ?RefreshPlayers@mmInterface@@AAEXXZ 0040a660 f   mmgame:interface.obj
 0001:00009860       ?GetSessionData@mmInterface@@AAEXUNETSESSION_DESC@@@Z 0040a860 f   mmgame:interface.obj
 0001:00009920       ?CreateSession@mmInterface@@AAEHXZ 0040a920 f   mmgame:interface.obj
 0001:00009aa0       ?SetSessionData@mmInterface@@AAEXPAUNETSESSION_DESC@@@Z 0040aaa0 f   mmgame:interface.obj
 0001:00009b60       ?SetCRStateData@mmInterface@@AAEXXZ 0040ab60 f   mmgame:interface.obj
 0001:00009bd0       ?LobbyCreate@mmInterface@@AAEXXZ 0040abd0 f   mmgame:interface.obj
 0001:00009f30       ?SendChatMessage@mmInterface@@AAEXPAX@Z 0040af30 f   mmgame:interface.obj
 0001:00009fd0       ?SendMsg@mmInterface@@AAEXH@Z 0040afd0 f   mmgame:interface.obj
 0001:0000a010       ?SendBootMsg@mmInterface@@AAEXK@Z 0040b010 f   mmgame:interface.obj
 0001:0000a050       ?SendReadyStatus@mmInterface@@AAEXXZ 0040b050 f   mmgame:interface.obj
 0001:0000a090       ?SendReadyReq@mmInterface@@AAEXXZ 0040b090 f   mmgame:interface.obj
 0001:0000a0c0       ?SetupArchiveTest@mmInterface@@QAEXAAH@Z 0040b0c0 f   mmgame:interface.obj
 0001:0000a340       ?DeclareFields@mmInterface@@SAXXZ 0040b340 f   mmgame:interface.obj
 0001:0000a4b0       ?GetClass@mmInterface@@UAEPAVMetaClass@@XZ 0040b4b0 f   mmgame:interface.obj
 0001:0000a4c0       ??1string@@QAE@XZ          0040b4c0 f i mmgame:interface.obj
 0001:0000a4d0       ??_EmmInterface@@UAEPAXI@Z 0040b4d0 f i mmgame:interface.obj
 0001:0000a560       ??0mmGame@@QAE@XZ          0040b560 f   mmgame:game.obj
 0001:0000a6e0       ?Init@mmGame@@QAEHXZ       0040b6e0 f   mmgame:game.obj
 0001:0000b5a0       ?InitOtherPlayers@mmGame@@UAEXXZ 0040c5a0 f   mmgame:game.obj
 0001:0000b6a0       ?CollideAIOpponents@mmGame@@QAEXXZ 0040c6a0 f   mmgame:game.obj
 0001:0000b7a0       ?InitGameStrings@mmGame@@UAEXXZ 0040c7a0 f   mmgame:game.obj
 0001:0000ba80       ??1mmGame@@UAE@XZ          0040ca80 f   mmgame:game.obj
 0001:0000bc70       ?Stats@mmGame@@QAEXXZ      0040cc70 f   mmgame:game.obj
 0001:0000bd50       ?RespawnXYZ@mmGame@@IAEXAAVVector3@@AAM@Z 0040cd50 f   mmgame:game.obj
 0001:0000be50       ?IsPopupEnabled@mmGame@@QAEHXZ 0040ce50 f   mmgame:game.obj
 0001:0000be60       ?Reset@mmGame@@UAEXXZ      0040ce60 f   mmgame:game.obj
 0001:0000bec0       ?Update@mmGame@@UAEXXZ     0040cec0 f   mmgame:game.obj
 0001:0000c050       ?DropThruCityHandler@mmGame@@UAEXXZ 0040d050 f   mmgame:game.obj
 0001:0000c060       ?HitWaterHandler@mmGame@@UAEXXZ 0040d060 f   mmgame:game.obj
 0001:0000c070       ?UpdateDebugInput@mmGame@@UAEXXZ 0040d070 f   mmgame:game.obj
 0001:0000c230       ?UpdatePaused@mmGame@@UAEXXZ 0040d230 f   mmgame:game.obj
 0001:0000c320       ?UpdateGameInput@mmGame@@QAEXXZ 0040d320 f   mmgame:game.obj
 0001:0000c7a0       ?UpdateSteeringBrakes@mmGame@@QAEXXZ 0040d7a0 f   mmgame:game.obj
 0001:0000c880       ?SetIconsState@mmGame@@QAEXXZ 0040d880 f   mmgame:game.obj
 0001:0000c8a0       ?PlayerSetState@mmGame@@QAEXXZ 0040d8a0 f   mmgame:game.obj
 0001:0000c9a0       ?CalculateRaceScore@mmGame@@IAEHHH@Z 0040d9a0 f   mmgame:game.obj
 0001:0000ca10       ?SendChatMessage@mmGame@@UAEXPAD@Z 0040da10 f   mmgame:game.obj
 0001:0000cde0       ?GetCDTrack@mmGame@@QAEHF@Z 0040dde0 f   mmgame:game.obj
 0001:0000d2b0       ?Update@foobar@@EAEXXZ     0040e2b0 f   mmgame:game.obj
 0001:0000d2e0       ?UpdatePaused@foobar@@EAEXXZ 0040e2e0 f   mmgame:game.obj
 0001:0000d2f0       ?DeclareFields@mmGame@@SAXXZ 0040e2f0 f   mmgame:game.obj
 0001:0000d390       ?GetClass@mmGame@@UAEPAVMetaClass@@XZ 0040e390 f   mmgame:game.obj
 0001:0000d4f0       ??_GmmGame@@UAEPAXI@Z      0040e4f0 f i mmgame:game.obj
 0001:0000d4f0       ??_EmmGame@@UAEPAXI@Z      0040e4f0 f i mmgame:game.obj
 0001:0000d520       ??0mmGameEdit@@QAE@XZ      0040e520 f   mmgame:gameedit.obj
 0001:0000d5f0       ??1mmGameEdit@@UAE@XZ      0040e5f0 f   mmgame:gameedit.obj
 0001:0000d6a0       ?Init@mmGameEdit@@QAEHXZ   0040e6a0 f   mmgame:gameedit.obj
 0001:0000d750       ?InitMyPlayer@mmGameEdit@@UAEXXZ 0040e750 f   mmgame:gameedit.obj
 0001:0000d7c0       ?InitHUD@mmGameEdit@@UAEXXZ 0040e7c0 f   mmgame:gameedit.obj
 0001:0000d800       ?InitGameObjects@mmGameEdit@@UAEXXZ 0040e800 f   mmgame:gameedit.obj
 0001:0000d8f0       ?RegisterMapObjects@mmGameEdit@@QAEXXZ 0040e8f0 f   mmgame:gameedit.obj
 0001:0000d900       ?UpdateDebugKeyInput@mmGameEdit@@UAEXH@Z 0040e900 f   mmgame:gameedit.obj
 0001:0000d910       ?Reset@mmGameEdit@@UAEXXZ  0040e910 f   mmgame:gameedit.obj
 0001:0000d9a0       ?Update@mmGameEdit@@UAEXXZ 0040e9a0 f   mmgame:gameedit.obj
 0001:0000d9c0       ?UpdateGameInput@mmGameEdit@@UAEXH@Z 0040e9c0 f   mmgame:gameedit.obj
 0001:0000d9d0       ?UpdateGame@mmGameEdit@@UAEXXZ 0040e9d0 f   mmgame:gameedit.obj
 0001:0000da10       ?DeclareFields@mmGameEdit@@SAXXZ 0040ea10 f   mmgame:gameedit.obj
 0001:0000db80       ?GetClass@mmGameEdit@@UAEPAVMetaClass@@XZ 0040eb80 f   mmgame:gameedit.obj
 0001:0000dce0       ??_EmmGameEdit@@UAEPAXI@Z  0040ece0 f i mmgame:gameedit.obj
 0001:0000dd40       ?InitOtherPlayers@mmGameEdit@@UAEXXZ 0040ed40 f i mmgame:gameedit.obj
 0001:0000dd50       ?NextRace@mmGameEdit@@UAEXXZ 0040ed50 f i mmgame:gameedit.obj
 0001:0000dd60       ?GetWaypoints@mmGameEdit@@UAEPAVmmWaypoints@@XZ 0040ed60 f i mmgame:gameedit.obj
 0001:0000dd70       ??0mmSingleBlitz@@QAE@XZ   0040ed70 f   mmgame:singleblitz.obj
 0001:0000de10       ??1mmSingleBlitz@@UAE@XZ   0040ee10 f   mmgame:singleblitz.obj
 0001:0000dee0       ?Init@mmSingleBlitz@@QAEHXZ 0040eee0 f   mmgame:singleblitz.obj
 0001:0000e060       ?InitMyPlayer@mmSingleBlitz@@UAEXXZ 0040f060 f   mmgame:singleblitz.obj
 0001:0000e0d0       ?InitHUD@mmSingleBlitz@@UAEXXZ 0040f0d0 f   mmgame:singleblitz.obj
 0001:0000e150       ?InitGameObjects@mmSingleBlitz@@UAEXXZ 0040f150 f   mmgame:singleblitz.obj
 0001:0000e3c0       ?InitOtherPlayers@mmSingleBlitz@@UAEXXZ 0040f3c0 f   mmgame:singleblitz.obj
 0001:0000e3d0       ?Reset@mmSingleBlitz@@UAEXXZ 0040f3d0 f   mmgame:singleblitz.obj
 0001:0000e4e0       ?EnableRacers@mmSingleBlitz@@AAEXXZ 0040f4e0 f   mmgame:singleblitz.obj
 0001:0000e570       ?DisableRacers@mmSingleBlitz@@AAEXXZ 0040f570 f   mmgame:singleblitz.obj
 0001:0000e5e0       ?HitWaterHandler@mmSingleBlitz@@UAEXXZ 0040f5e0 f   mmgame:singleblitz.obj
 0001:0000e670       ?Update@mmSingleBlitz@@UAEXXZ 0040f670 f   mmgame:singleblitz.obj
 0001:0000e690       ?UpdateGameInput@mmSingleBlitz@@UAEXH@Z 0040f690 f   mmgame:singleblitz.obj
 0001:0000e6d0       ?UpdateGame@mmSingleBlitz@@UAEXXZ 0040f6d0 f   mmgame:singleblitz.obj
 0001:0000ef30       ?RegisterFinish@mmSingleBlitz@@AAEHXZ 0040ff30 f   mmgame:singleblitz.obj
 0001:0000f260       ?FinishMessage@mmSingleBlitz@@AAEXH@Z 00410260 f   mmgame:singleblitz.obj
 0001:0000f290       ?ProgressCheck@mmSingleBlitz@@AAEHHH@Z 00410290 f   mmgame:singleblitz.obj
 0001:0000f360       ?NextRace@mmSingleBlitz@@UAEXXZ 00410360 f   mmgame:singleblitz.obj
 0001:0000f4d0       ?PlayTimerWarning@mmSingleBlitz@@QAEXM@Z 004104d0 f   mmgame:singleblitz.obj
 0001:0000f5b0       ?DeclareFields@mmSingleBlitz@@SAXXZ 004105b0 f   mmgame:singleblitz.obj
 0001:0000f730       ?GetClass@mmSingleBlitz@@UAEPAVMetaClass@@XZ 00410730 f   mmgame:singleblitz.obj
 0001:0000f890       ??1foobar@@UAE@XZ          00410890 f i mmgame:singleblitz.obj
 0001:0000f8a0       ??_Efoobar@@UAEPAXI@Z      004108a0 f i mmgame:singleblitz.obj
 0001:0000f8a0       ??_Gfoobar@@UAEPAXI@Z      004108a0 f i mmgame:singleblitz.obj
 0001:0000f8d0       ??0mmPlayerRecord@@QAE@ABV0@@Z 004108d0 f i mmgame:singleblitz.obj
 0001:0000f950       ??_EBase@@UAEPAXI@Z        00410950 f i mmgame:singleblitz.obj
 0001:0000f950       ??_GBase@@UAEPAXI@Z        00410950 f i mmgame:singleblitz.obj
 0001:0000f980       ??_GmmPlayerRecord@@UAEPAXI@Z 00410980 f i mmgame:singleblitz.obj
 0001:0000f9b0       ??_EmmSingleBlitz@@UAEPAXI@Z 004109b0 f i mmgame:singleblitz.obj
 0001:0000fa10       ??_GmmInfoBase@@UAEPAXI@Z  00410a10 f i mmgame:singleblitz.obj
 0001:0000fa40       ??1mmInfoBase@@UAE@XZ      00410a40 f i mmgame:singleblitz.obj
 0001:0000fa50       ?UpdateDebugKeyInput@mmSingleBlitz@@UAEXH@Z 00410a50 f i mmgame:singleblitz.obj
 0001:0000fa60       ?GetWaypoints@mmSingleBlitz@@UAEPAVmmWaypoints@@XZ 00410a60 f i mmgame:singleblitz.obj
 0001:0000fa70       ??0mmSingleCircuit@@QAE@XZ 00410a70 f   mmgame:singlecircuit.obj
 0001:0000fb10       ??1mmSingleCircuit@@UAE@XZ 00410b10 f   mmgame:singlecircuit.obj
 0001:0000fbd0       ?Init@mmSingleCircuit@@QAEHXZ 00410bd0 f   mmgame:singlecircuit.obj
 0001:0000fd50       ?InitMyPlayer@mmSingleCircuit@@UAEXXZ 00410d50 f   mmgame:singlecircuit.obj
 0001:0000fdc0       ?InitHUD@mmSingleCircuit@@UAEXXZ 00410dc0 f   mmgame:singlecircuit.obj
 0001:0000fe10       ?InitGameObjects@mmSingleCircuit@@UAEXXZ 00410e10 f   mmgame:singlecircuit.obj
 0001:00010070       ?InitOtherPlayers@mmSingleCircuit@@UAEXXZ 00411070 f   mmgame:singlecircuit.obj
 0001:00010080       ?Reset@mmSingleCircuit@@UAEXXZ 00411080 f   mmgame:singlecircuit.obj
 0001:00010150       ?HitWaterHandler@mmSingleCircuit@@UAEXXZ 00411150 f   mmgame:singlecircuit.obj
 0001:00010200       ?EnableRacers@mmSingleCircuit@@AAEXXZ 00411200 f   mmgame:singlecircuit.obj
 0001:00010290       ?DisableRacers@mmSingleCircuit@@AAEXXZ 00411290 f   mmgame:singlecircuit.obj
 0001:00010300       ?Update@mmSingleCircuit@@UAEXXZ 00411300 f   mmgame:singlecircuit.obj
 0001:00010320       ?UpdateGameInput@mmSingleCircuit@@UAEXH@Z 00411320 f   mmgame:singlecircuit.obj
 0001:00010330       ?UpdateScore@mmSingleCircuit@@QAEXXZ 00411330 f   mmgame:singlecircuit.obj
 0001:000106c0       ?UpdateGame@mmSingleCircuit@@UAEXXZ 004116c0 f   mmgame:singlecircuit.obj
 0001:00010e50       ?FinishMessage@mmSingleCircuit@@AAEXHH@Z 00411e50 f   mmgame:singlecircuit.obj
 0001:00010fe0       ?RegisterLap@mmSingleCircuit@@AAEHXZ 00411fe0 f   mmgame:singlecircuit.obj
 0001:00011040       ?RegisterFinish@mmSingleCircuit@@AAEHXZ 00412040 f   mmgame:singlecircuit.obj
 0001:00011460       ?ProgressCheck@mmSingleCircuit@@AAEHHH@Z 00412460 f   mmgame:singlecircuit.obj
 0001:00011490       ?NextRace@mmSingleCircuit@@UAEXXZ 00412490 f   mmgame:singlecircuit.obj
 0001:00011610       ?DeclareFields@mmSingleCircuit@@SAXXZ 00412610 f   mmgame:singlecircuit.obj
 0001:00011780       ?GetClass@mmSingleCircuit@@UAEPAVMetaClass@@XZ 00412780 f   mmgame:singlecircuit.obj
 0001:000118e0       ??_EmmSingleCircuit@@UAEPAXI@Z 004128e0 f i mmgame:singlecircuit.obj
 0001:00011940       ?UpdateDebugKeyInput@mmSingleCircuit@@UAEXH@Z 00412940 f i mmgame:singlecircuit.obj
 0001:00011950       ?GetWaypoints@mmSingleCircuit@@UAEPAVmmWaypoints@@XZ 00412950 f i mmgame:singlecircuit.obj
 0001:00011960       ?ThreadFunc@@YGKPAX@Z      00412960 f   mmgame:gamesingle.obj
 0001:00011970       ??0mmGameSingle@@QAE@XZ    00412970 f   mmgame:gamesingle.obj
 0001:00011a00       ??1mmGameSingle@@UAE@XZ    00412a00 f   mmgame:gamesingle.obj
 0001:00011ac0       ?Init@mmGameSingle@@QAEHXZ 00412ac0 f   mmgame:gamesingle.obj
 0001:00011c40       ?InitMyPlayer@mmGameSingle@@UAEXXZ 00412c40 f   mmgame:gamesingle.obj
 0001:00011cb0       ?InitHUD@mmGameSingle@@UAEXXZ 00412cb0 f   mmgame:gamesingle.obj
 0001:00011d10       ?InitGameObjects@mmGameSingle@@UAEXXZ 00412d10 f   mmgame:gamesingle.obj
 0001:00012010       ?InitOtherPlayers@mmGameSingle@@UAEXXZ 00413010 f   mmgame:gamesingle.obj
 0001:00012070       ?Reset@mmGameSingle@@UAEXXZ 00413070 f   mmgame:gamesingle.obj
 0001:00012170       ?EnableRacers@mmGameSingle@@AAEXXZ 00413170 f   mmgame:gamesingle.obj
 0001:00012200       ?DisableRacers@mmGameSingle@@AAEXXZ 00413200 f   mmgame:gamesingle.obj
 0001:00012270       ?HitWaterHandler@mmGameSingle@@UAEXXZ 00413270 f   mmgame:gamesingle.obj
 0001:00012310       ?Update@mmGameSingle@@UAEXXZ 00413310 f   mmgame:gamesingle.obj
 0001:00012330       ?UpdateGameInput@mmGameSingle@@UAEXH@Z 00413330 f   mmgame:gamesingle.obj
 0001:00012370       ?UpdateGame@mmGameSingle@@UAEXXZ 00413370 f   mmgame:gamesingle.obj
 0001:00012bb0       ?UpdateScore@mmGameSingle@@QAEXXZ 00413bb0 f   mmgame:gamesingle.obj
 0001:00012f30       ?FinishMessage@mmGameSingle@@AAEXHH@Z 00413f30 f   mmgame:gamesingle.obj
 0001:000130b0       ?RegisterFinish@mmGameSingle@@AAEHXZ 004140b0 f   mmgame:gamesingle.obj
 0001:000134b0       ?ProgressCheck@mmGameSingle@@AAEHHH@Z 004144b0 f   mmgame:gamesingle.obj
 0001:00013500       ?NextRace@mmGameSingle@@UAEXXZ 00414500 f   mmgame:gamesingle.obj
 0001:000136a0       ?DeclareFields@mmGameSingle@@SAXXZ 004146a0 f   mmgame:gamesingle.obj
 0001:00013810       ?GetClass@mmGameSingle@@UAEPAVMetaClass@@XZ 00414810 f   mmgame:gamesingle.obj
 0001:00013970       ??_EmmGameSingle@@UAEPAXI@Z 00414970 f i mmgame:gamesingle.obj
 0001:000139d0       ?UpdateDebugKeyInput@mmGameSingle@@UAEXH@Z 004149d0 f i mmgame:gamesingle.obj
 0001:000139e0       ?GetWaypoints@mmGameSingle@@UAEPAVmmWaypoints@@XZ 004149e0 f i mmgame:gamesingle.obj
 0001:000139f0       ??0mmMultiBlitz@@QAE@XZ    004149f0 f   mmgame:multiblitz.obj
 0001:00013a60       ??1mmMultiBlitz@@UAE@XZ    00414a60 f   mmgame:multiblitz.obj
 0001:00013b20       ?Init@mmMultiBlitz@@QAEHXZ 00414b20 f   mmgame:multiblitz.obj
 0001:00013c50       ?InitMyPlayer@mmMultiBlitz@@UAEXXZ 00414c50 f   mmgame:multiblitz.obj
 0001:00013cc0       ?InitHUD@mmMultiBlitz@@UAEXXZ 00414cc0 f   mmgame:multiblitz.obj
 0001:00013d40       ?InitGameObjects@mmMultiBlitz@@UAEXXZ 00414d40 f   mmgame:multiblitz.obj
 0001:00013fd0       ?InitNetworkPlayers@mmMultiBlitz@@UAEXXZ 00414fd0 f   mmgame:multiblitz.obj
 0001:00014330       ?Reset@mmMultiBlitz@@UAEXXZ 00415330 f   mmgame:multiblitz.obj
 0001:000143d0       ?UpdateGameInput@mmMultiBlitz@@UAEXH@Z 004153d0 f   mmgame:multiblitz.obj
 0001:00014410       ?UpdateGame@mmMultiBlitz@@UAEXXZ 00415410 f   mmgame:multiblitz.obj
 0001:00014b30       ?SystemMessage@mmMultiBlitz@@UAEXPAUNETSYS_MSG@@@Z 00415b30 f   mmgame:multiblitz.obj
 0001:00014cd0       ?GameMessage@mmMultiBlitz@@UAEXPAUNETGAME_MSG@@@Z 00415cd0 f   mmgame:multiblitz.obj
 0001:00014f30       ?SendPlayerFinish@mmMultiBlitz@@AAEXXZ 00415f30 f   mmgame:multiblitz.obj
 0001:00014f80       ?PlayTimerWarning@mmMultiBlitz@@QAEXM@Z 00415f80 f   mmgame:multiblitz.obj
 0001:00015060       ?DeclareFields@mmMultiBlitz@@SAXXZ 00416060 f   mmgame:multiblitz.obj
 0001:000151e0       ?GetClass@mmMultiBlitz@@UAEPAVMetaClass@@XZ 004161e0 f   mmgame:multiblitz.obj
 0001:00015340       ??_EmmMultiBlitz@@UAEPAXI@Z 00416340 f i mmgame:multiblitz.obj
 0001:000153a0       ?NextRace@mmGameMulti@@UAEXXZ 004163a0 f i mmgame:multiblitz.obj
 0001:000153b0       ?GetWaypoints@mmMultiBlitz@@UAEPAVmmWaypoints@@XZ 004163b0 f i mmgame:multiblitz.obj
 0001:000153c0       ??0mmMultiCircuit@@QAE@XZ  004163c0 f   mmgame:multicircuit.obj
 0001:00015430       ??1mmMultiCircuit@@UAE@XZ  00416430 f   mmgame:multicircuit.obj
 0001:000154f0       ?Init@mmMultiCircuit@@QAEHXZ 004164f0 f   mmgame:multicircuit.obj
 0001:00015610       ?InitMyPlayer@mmMultiCircuit@@UAEXXZ 00416610 f   mmgame:multicircuit.obj
 0001:00015680       ?InitHUD@mmMultiCircuit@@UAEXXZ 00416680 f   mmgame:multicircuit.obj
 0001:000156d0       ?InitGameObjects@mmMultiCircuit@@UAEXXZ 004166d0 f   mmgame:multicircuit.obj
 0001:00015940       ?InitNetworkPlayers@mmMultiCircuit@@UAEXXZ 00416940 f   mmgame:multicircuit.obj
 0001:00015ca0       ?Reset@mmMultiCircuit@@UAEXXZ 00416ca0 f   mmgame:multicircuit.obj
 0001:00015d30       ?UpdateGameInput@mmMultiCircuit@@UAEXH@Z 00416d30 f   mmgame:multicircuit.obj
 0001:00015d70       ?UpdateGame@mmMultiCircuit@@UAEXXZ 00416d70 f   mmgame:multicircuit.obj
 0001:00016320       ?UpdateDebugKeyInput@mmMultiCircuit@@UAEXH@Z 00417320 f   mmgame:multicircuit.obj
 0001:00016330       ?SystemMessage@mmMultiCircuit@@UAEXPAUNETSYS_MSG@@@Z 00417330 f   mmgame:multicircuit.obj
 0001:000164d0       ?GameMessage@mmMultiCircuit@@UAEXPAUNETGAME_MSG@@@Z 004174d0 f   mmgame:multicircuit.obj
 0001:00016730       ?SendPlayerFinish@mmMultiCircuit@@AAEXXZ 00417730 f   mmgame:multicircuit.obj
 0001:00016770       ?DeclareFields@mmMultiCircuit@@SAXXZ 00417770 f   mmgame:multicircuit.obj
 0001:000168e0       ?GetClass@mmMultiCircuit@@UAEPAVMetaClass@@XZ 004178e0 f   mmgame:multicircuit.obj
 0001:00016a40       ??_EmmMultiCircuit@@UAEPAXI@Z 00417a40 f i mmgame:multicircuit.obj
 0001:00016aa0       ?GetWaypoints@mmMultiCircuit@@UAEPAVmmWaypoints@@XZ 00417aa0 f i mmgame:multicircuit.obj
 0001:00016ab0       ??0mmMultiCR@@QAE@XZ       00417ab0 f   mmgame:multicr.obj
 0001:00016b70       ??1mmMultiCR@@UAE@XZ       00417b70 f   mmgame:multicr.obj
 0001:00016c40       ?Init@mmMultiCR@@QAEHXZ    00417c40 f   mmgame:multicr.obj
 0001:00016da0       ?InitMyPlayer@mmMultiCR@@UAEXXZ 00417da0 f   mmgame:multicr.obj
 0001:00016ea0       ?InitHUD@mmMultiCR@@UAEXXZ 00417ea0 f   mmgame:multicr.obj
 0001:00016fe0       ?InitGameObjects@mmMultiCR@@UAEXXZ 00417fe0 f   mmgame:multicr.obj
 0001:00017440       ?InitNetworkPlayers@mmMultiCR@@UAEXXZ 00418440 f   mmgame:multicr.obj
 0001:000177c0       ?Reset@mmMultiCR@@UAEXXZ   004187c0 f   mmgame:multicr.obj
 0001:000179a0       ?LoadSets@mmMultiCR@@QAEHPAD@Z 004189a0 f   mmgame:multicr.obj
 0001:00017a40       ?LoadCSV@mmMultiCR@@QAEHPAD@Z 00418a40 f   mmgame:multicr.obj
 0001:00017b90       ?ImpactCallback@mmMultiCR@@QAEXXZ 00418b90 f   mmgame:multicr.obj
 0001:00017c80       ?FondleCarMass@mmMultiCR@@QAEXPAVmmCar@@M@Z 00418c80 f   mmgame:multicr.obj
 0001:00017ca0       ?ChangePlayerData@mmMultiCR@@QAEXXZ 00418ca0 f   mmgame:multicr.obj
 0001:00017cf0       ?GetRandomIndex@mmMultiCR@@AAEHXZ 00418cf0 f   mmgame:multicr.obj
 0001:00017d10       ?ResetPositions@mmMultiCR@@QAEXH@Z 00418d10 f   mmgame:multicr.obj
 0001:00017e30       ?SelectTeams@mmMultiCR@@AAEHXZ 00418e30 f   mmgame:multicr.obj
 0001:00017e40       ?UpdateGameInput@mmMultiCR@@UAEXH@Z 00418e40 f   mmgame:multicr.obj
 0001:00017e80       ?UpdateGame@mmMultiCR@@UAEXXZ 00418e80 f   mmgame:multicr.obj
 0001:00018260       ?HitWaterHandler@mmMultiCR@@UAEXXZ 00419260 f   mmgame:multicr.obj
 0001:00018310       ?DropThruCityHandler@mmMultiCR@@UAEXXZ 00419310 f   mmgame:multicr.obj
 0001:000183c0       ?StealGold@mmMultiCR@@AAEXPAVmmCar@@@Z 004193c0 f   mmgame:multicr.obj
 0001:00018400       ?OppStealGold@mmMultiCR@@AAEXH@Z 00419400 f   mmgame:multicr.obj
 0001:00018470       ?FindGround@mmMultiCR@@AAEXVVector3@@AAV2@@Z 00419470 f   mmgame:multicr.obj
 0001:00018530       ?DropGold@mmMultiCR@@AAEXVVector3@@H@Z 00419530 f   mmgame:multicr.obj
 0001:00018720       ?UpdateGold@mmMultiCR@@AAEXXZ 00419720 f   mmgame:multicr.obj
 0001:00018950       ?UpdateHideout@mmMultiCR@@AAEXXZ 00419950 f   mmgame:multicr.obj
 0001:00018aa0       ?UpdateBank@mmMultiCR@@AAEXXZ 00419aa0 f   mmgame:multicr.obj
 0001:00018bf0       ?UpdateLimit@mmMultiCR@@AAEXXZ 00419bf0 f   mmgame:multicr.obj
 0001:00018d90       ?FillResults@mmMultiCR@@AAEXXZ 00419d90 f   mmgame:multicr.obj
 0001:00018f90       ?SystemMessage@mmMultiCR@@UAEXPAUNETSYS_MSG@@@Z 00419f90 f   mmgame:multicr.obj
 0001:000191e0       ?GameMessage@mmMultiCR@@UAEXPAUNETGAME_MSG@@@Z 0041a1e0 f   mmgame:multicr.obj
 0001:00019ac0       ?UpdateTimeWarning@mmMultiCR@@AAEXXZ 0041aac0 f   mmgame:multicr.obj
 0001:00019c30       ?DisplayTimeWarning@mmMultiCR@@AAEXH@Z 0041ac30 f   mmgame:multicr.obj
 0001:00019cc0       ?SendGameState@mmMultiCR@@AAEXK@Z 0041acc0 f   mmgame:multicr.obj
 0001:00019d60       ?SendSetup@mmMultiCR@@AAEXK@Z 0041ad60 f   mmgame:multicr.obj
 0001:00019d70       ?SendGoldDrop@mmMultiCR@@AAEXVVector3@@@Z 0041ad70 f   mmgame:multicr.obj
 0001:00019dc0       ?SendGoldAck@mmMultiCR@@AAEXK@Z 0041adc0 f   mmgame:multicr.obj
 0001:00019e00       ?SendGoldDeliver@mmMultiCR@@AAEXXZ 0041ae00 f   mmgame:multicr.obj
 0001:00019e50       ?SendChangeSet@mmMultiCR@@AAEXH@Z 0041ae50 f   mmgame:multicr.obj
 0001:00019e90       ?SendLimitReached@mmMultiCR@@AAEXH@Z 0041ae90 f   mmgame:multicr.obj
 0001:00019ed0       ?SendTimeWarning@mmMultiCR@@AAEXH@Z 0041aed0 f   mmgame:multicr.obj
 0001:00019f10       ?UpdateHUD@mmMultiCR@@AAEXXZ 0041af10 f   mmgame:multicr.obj
 0001:0001a030       ?Score@mmMultiCR@@AAEXH@Z  0041b030 f   mmgame:multicr.obj
 0001:0001a060       ?UpdateDebugKeyInput@mmMultiCR@@UAEXH@Z 0041b060 f   mmgame:multicr.obj
 0001:0001a070       ?CycleInterest@mmMultiCR@@AAEXH@Z 0041b070 f   mmgame:multicr.obj
 0001:0001a0d0       ?DeclareFields@mmMultiCR@@SAXXZ 0041b0d0 f   mmgame:multicr.obj
 0001:0001a240       ?GetClass@mmMultiCR@@UAEPAVMetaClass@@XZ 0041b240 f   mmgame:multicr.obj
 0001:0001a3a0       ??_EmmMultiCR@@UAEPAXI@Z   0041b3a0 f i mmgame:multicr.obj
 0001:0001a400       ?GetWaypoints@mmMultiCR@@UAEPAVmmWaypoints@@XZ 0041b400 f i mmgame:multicr.obj
 0001:0001a410       ??0mmMultiRace@@QAE@XZ     0041b410 f   mmgame:multirace.obj
 0001:0001a480       ??1mmMultiRace@@UAE@XZ     0041b480 f   mmgame:multirace.obj
 0001:0001a540       ?Init@mmMultiRace@@QAEHXZ  0041b540 f   mmgame:multirace.obj
 0001:0001a680       ?InitMyPlayer@mmMultiRace@@UAEXXZ 0041b680 f   mmgame:multirace.obj
 0001:0001a6f0       ?InitHUD@mmMultiRace@@UAEXXZ 0041b6f0 f   mmgame:multirace.obj
 0001:0001a750       ?InitGameObjects@mmMultiRace@@UAEXXZ 0041b750 f   mmgame:multirace.obj
 0001:0001aa20       ?InitNetworkPlayers@mmMultiRace@@UAEXXZ 0041ba20 f   mmgame:multirace.obj
 0001:0001ae50       ?Reset@mmMultiRace@@UAEXXZ 0041be50 f   mmgame:multirace.obj
 0001:0001af50       ?ChangePlayerData@mmMultiRace@@QAEXXZ 0041bf50 f   mmgame:multirace.obj
 0001:0001afa0       ?UpdateGameInput@mmMultiRace@@UAEXH@Z 0041bfa0 f   mmgame:multirace.obj
 0001:0001afe0       ?UpdateGame@mmMultiRace@@UAEXXZ 0041bfe0 f   mmgame:multirace.obj
 0001:0001b7d0       ?SystemMessage@mmMultiRace@@UAEXPAUNETSYS_MSG@@@Z 0041c7d0 f   mmgame:multirace.obj
 0001:0001b9b0       ?GameMessage@mmMultiRace@@UAEXPAUNETGAME_MSG@@@Z 0041c9b0 f   mmgame:multirace.obj
 0001:0001bd10       ?SendPlayerFinish@mmMultiRace@@AAEXXZ 0041cd10 f   mmgame:multirace.obj
 0001:0001bd50       ?DeclareFields@mmMultiRace@@SAXXZ 0041cd50 f   mmgame:multirace.obj
 0001:0001bec0       ?GetClass@mmMultiRace@@UAEPAVMetaClass@@XZ 0041cec0 f   mmgame:multirace.obj
 0001:0001c020       ??_EmmMultiRace@@UAEPAXI@Z 0041d020 f i mmgame:multirace.obj
 0001:0001c080       ?GetWaypoints@mmMultiRace@@UAEPAVmmWaypoints@@XZ 0041d080 f i mmgame:multirace.obj
 0001:0001c090       ??0mmIcons@@QAE@XZ         0041d090 f   mmgame:icons.obj
 0001:0001c110       ??1mmIcons@@UAE@XZ         0041d110 f   mmgame:icons.obj
 0001:0001c170       ?Init@mmIcons@@QAEXPAVMatrix34@@MM@Z 0041d170 f   mmgame:icons.obj
 0001:0001c1b0       ?RegisterOpponents@mmIcons@@QAEXPAUOppIconInfo@@HPAX@Z 0041d1b0 f   mmgame:icons.obj
 0001:0001c230       ?Update@mmIcons@@UAEXXZ    0041d230 f   mmgame:icons.obj
 0001:0001c270       ?Cull@mmIcons@@UAEXXZ      0041d270 f   mmgame:icons.obj
 0001:0001c870       ??_GmmIcons@@UAEPAXI@Z     0041d870 f i mmgame:icons.obj
 0001:0001c870       ??_EmmIcons@@UAEPAXI@Z     0041d870 f i mmgame:icons.obj
 0001:0001c8a0       ??0mmPopup@@QAE@PAVmmGame@@MMMM@Z 0041d8a0 f   mmgame:popup.obj
 0001:0001cd10       ??1mmPopup@@UAE@XZ         0041dd10 f   mmgame:popup.obj
 0001:0001cd20       ?IsEnabled@mmPopup@@QAEHXZ 0041dd20 f   mmgame:popup.obj
 0001:0001cd30       ?DisablePU@mmPopup@@QAEXH@Z 0041dd30 f   mmgame:popup.obj
 0001:0001ce10       ?ProcessEscape@mmPopup@@QAEXH@Z 0041de10 f   mmgame:popup.obj
 0001:0001cf50       ?ProcessChat@mmPopup@@QAEXXZ 0041df50 f   mmgame:popup.obj
 0001:0001d050       ?ProcessKeymap@mmPopup@@QAEXH@Z 0041e050 f   mmgame:popup.obj
 0001:0001d1d0       ?ShowResults@mmPopup@@QAEXXZ 0041e1d0 f   mmgame:popup.obj
 0001:0001d260       ?ShowRoster@mmPopup@@QAEXXZ 0041e260 f   mmgame:popup.obj
 0001:0001d300       ?ForceRoster@mmPopup@@QAEXXZ 0041e300 f   mmgame:popup.obj
 0001:0001d380       ?Update@mmPopup@@UAEXXZ    0041e380 f   mmgame:popup.obj
 0001:0001d950       ?Reset@mmPopup@@UAEXXZ     0041e950 f   mmgame:popup.obj
 0001:0001d970       ?GetComment@mmPopup@@QAEPADXZ 0041e970 f   mmgame:popup.obj
 0001:0001d980       ?SetComment@mmPopup@@QAEXPAD@Z 0041e980 f   mmgame:popup.obj
 0001:0001d9a0       ?RecordPosition@mmPopup@@QAEXXZ 0041e9a0 f   mmgame:popup.obj
 0001:0001d9d0       ?Lock@mmPopup@@QAEXXZ      0041e9d0 f   mmgame:popup.obj
 0001:0001d9e0       ?Unlock@mmPopup@@QAEXXZ    0041e9e0 f   mmgame:popup.obj
 0001:0001d9f0       ?ChatCB@mmPopup@@QAEXXZ    0041e9f0 f   mmgame:popup.obj
 0001:0001da80       ??_EmmPopup@@UAEPAXI@Z     0041ea80 f i mmgame:popup.obj
 0001:0001da80       ??_GmmPopup@@UAEPAXI@Z     0041ea80 f i mmgame:popup.obj
 0001:0001dab0       ??0mmAmbientAudio@@QAE@PAVmmPlayer@@@Z 0041eab0 f   mmgame:mmambientaudio.obj
 0001:0001db50       ??1mmAmbientAudio@@QAE@XZ  0041eb50 f   mmgame:mmambientaudio.obj
 0001:0001db60       ?Update@mmAmbientAudio@@QAEXXZ 0041eb60 f   mmgame:mmambientaudio.obj
 0001:0001ddc0       ??0mmHudMap@@QAE@XZ        0041edc0 f   mmgame:hudmap.obj
 0001:0001deb0       ?Init@mmHudMap@@QAEXPAVasCamera@@PAVMatrix34@@PAVmmHUD@@PAVmmGame@@PAD@Z 0041eeb0 f   mmgame:hudmap.obj
 0001:0001e450       ?Reset@mmHudMap@@UAEXXZ    0041f450 f   mmgame:hudmap.obj
 0001:0001e490       ?RegisterOpponents@mmHudMap@@QAEXPAUOppIconInfo@@H@Z 0041f490 f   mmgame:hudmap.obj
 0001:0001e4b0       ?RegisterCopsnRobbers@mmHudMap@@QAEXPAPAVVector3@@@Z 0041f4b0 f   mmgame:hudmap.obj
 0001:0001e4e0       ?RegisterMisc@mmHudMap@@QAEXPAPAVVector3@@H@Z 0041f4e0 f   mmgame:hudmap.obj
 0001:0001e510       ?Activate@mmHudMap@@QAEXXZ 0041f510 f   mmgame:hudmap.obj
 0001:0001e540       ?Deactivate@mmHudMap@@QAEXXZ 0041f540 f   mmgame:hudmap.obj
 0001:0001e570       ?SetMode@mmHudMap@@QAEXH@Z 0041f570 f   mmgame:hudmap.obj
 0001:0001e890       ?Cycle@mmHudMap@@QAEXXZ    0041f890 f   mmgame:hudmap.obj
 0001:0001e8c0       ?ToggleFullScreen@mmHudMap@@QAEXXZ 0041f8c0 f   mmgame:hudmap.obj
 0001:0001e8f0       ?GetCurrentMap@mmHudMap@@AAEPAVagiBitmap@@XZ 0041f8f0 f   mmgame:hudmap.obj
 0001:0001e900       ?ToggleMapRes@mmHudMap@@QAEXXZ 0041f900 f   mmgame:hudmap.obj
 0001:0001e960       ?Update@mmHudMap@@UAEXXZ   0041f960 f   mmgame:hudmap.obj
 0001:0001eb50       ?Cull@mmHudMap@@UAEXXZ     0041fb50 f   mmgame:hudmap.obj
 0001:0001ece0       ?DrawCentered@mmHudMap@@AAEXPAVagiBitmap@@UPoint@@@Z 0041fce0 f   mmgame:hudmap.obj
 0001:0001ed50       ?DrawClipped@mmHudMap@@AAEXPAVagiBitmap@@UPoint@@MMMM@Z 0041fd50 f   mmgame:hudmap.obj
 0001:0001eef0       ?DrawOrientedBitmap@mmHudMap@@AAEXPAVMatrix34@@PAVagiBitmap@@@Z 0041fef0 f   mmgame:hudmap.obj
 0001:0001f0d0       ?ResChanged@mmHudMap@@QAEXXZ 004200d0 f   mmgame:hudmap.obj
 0001:0001f110       ?DrawOriented@mmHudMap@@AAEXPAVMatrix34@@I@Z 00420110 f   mmgame:hudmap.obj
 0001:0001f2f0       ?DrawOpponents@mmHudMap@@AAEXXZ 004202f0 f   mmgame:hudmap.obj
 0001:0001f3b0       ?DrawCops@mmHudMap@@AAEXXZ 004203b0 f   mmgame:hudmap.obj
 0001:0001f420       ?DrawWaypoints@mmHudMap@@AAEXXZ 00420420 f   mmgame:hudmap.obj
 0001:0001f560       ?DrawCopsnRobbers@mmHudMap@@AAEXXZ 00420560 f   mmgame:hudmap.obj
 0001:0001f630       ?DrawMisc@mmHudMap@@QAEXXZ 00420630 f   mmgame:hudmap.obj
 0001:0001f6a0       ?FlushVerts@mmHudMap@@AAEXXZ 004206a0 f   mmgame:hudmap.obj
 0001:0001f820       ?WorldToBitmap@mmHudMap@@AAE?AUPoint@@PAVVector3@@@Z 00420820 f   mmgame:hudmap.obj
 0001:0001f8c0       ?BitmapToScreen@mmHudMap@@AAEHPAUPoint@@U2@@Z 004208c0 f   mmgame:hudmap.obj
 0001:0001f970       ?DeclareFields@mmHudMap@@SAXXZ 00420970 f   mmgame:hudmap.obj
 0001:0001fae0       ?GetClass@mmHudMap@@UAEPAVMetaClass@@XZ 00420ae0 f   mmgame:hudmap.obj
 0001:0001fb20       ??_EmmHudMap@@UAEPAXI@Z    00420b20 f i mmgame:hudmap.obj
 0001:0001fb80       ??1mmHudMap@@UAE@XZ        00420b80 f i mmgame:hudmap.obj
 0001:0001fb90       ??_9@$BBE@AE               00420b90 f i mmgame:hudmap.obj
 0001:0001fba0       ??0mmPlayer@@QAE@XZ        00420ba0 f   mmgame:player.obj
 0001:0001feb0       ?BeforeSave@mmPlayer@@UAEXXZ 00420eb0 f   mmgame:player.obj
 0001:0001fec0       ?AfterLoad@mmPlayer@@UAEXXZ 00420ec0 f   mmgame:player.obj
 0001:0001fed0       ?ReInit@mmPlayer@@QAEXPAD@Z 00420ed0 f   mmgame:player.obj
 0001:00020060       ?Init@mmPlayer@@QAEXPAD0PAVmmGame@@@Z 00421060 f   mmgame:player.obj
 0001:000204e0       ?SetMirrorFOV@mmPlayer@@QAEXXZ 004214e0 f   mmgame:player.obj
 0001:00020510       ?SetPreRaceCam@mmPlayer@@QAEXXZ 00421510 f   mmgame:player.obj
 0001:00020630       ?SetPostRaceCam@mmPlayer@@QAEXXZ 00421630 f   mmgame:player.obj
 0001:00020750       ?IsPOV@mmPlayer@@QAEHXZ    00421750 f   mmgame:player.obj
 0001:000207a0       ?SetWideFOV@mmPlayer@@QAEXH@Z 004217a0 f   mmgame:player.obj
 0001:00020930       ?ToggleWideFOV@mmPlayer@@QAEXXZ 00421930 f   mmgame:player.obj
 0001:00020950       ?ToggleCam@mmPlayer@@QAEXXZ 00421950 f   mmgame:player.obj
 0001:00020a70       ?ToggleExternalView@mmPlayer@@QAEXXZ 00421a70 f   mmgame:player.obj
 0001:00020c20       ?ToggleDash@mmPlayer@@QAEXXZ 00421c20 f   mmgame:player.obj
 0001:00020e50       ?UpdateHOG@mmPlayer@@QAEXXZ 00421e50 f   mmgame:player.obj
 0001:00020f80       ?Reset@mmPlayer@@UAEXXZ    00421f80 f   mmgame:player.obj
 0001:00021130       ?SetSteering@mmPlayer@@QAEXM@Z 00422130 f   mmgame:player.obj
 0001:00021700       ?Update@mmPlayer@@UAEXXZ   00422700 f   mmgame:player.obj
 0001:00021f60       ?SetCamInterest@mmPlayer@@QAEXPAVasInertialCS@@@Z 00422f60 f   mmgame:player.obj
 0001:00021fd0       ?IsMaxDamaged@mmPlayer@@QAEHXZ 00422fd0 f   mmgame:player.obj
 0001:00022000       ?EnableRegen@mmPlayer@@QAEXH@Z 00423000 f   mmgame:player.obj
 0001:00022020       ?ResetDamage@mmPlayer@@QAEXXZ 00423020 f   mmgame:player.obj
 0001:00022030       ?UpdateRegen@mmPlayer@@QAEXXZ 00423030 f   mmgame:player.obj
 0001:000220d0       ?DeclareFields@mmPlayer@@SAXXZ 004230d0 f   mmgame:player.obj
 0001:00022540       ?GetClass@mmPlayer@@UAEPAVMetaClass@@XZ 00423540 f   mmgame:player.obj
 0001:00022580       ??1mmCar@@UAE@XZ           00423580 f i mmgame:player.obj
 0001:00022640       ??1PolarCamCS@@UAE@XZ      00423640 f i mmgame:player.obj
 0001:00022650       ??1AICamCS@@UAE@XZ         00423650 f i mmgame:player.obj
 0001:00022660       ??1PointCamCS@@UAE@XZ      00423660 f i mmgame:player.obj
 0001:00022670       ??1PreCamCS@@UAE@XZ        00423670 f i mmgame:player.obj
 0001:00022680       ??1PostCamCS@@UAE@XZ       00423680 f i mmgame:player.obj
 0001:00022690       ??1asOverSample@@UAE@XZ    00423690 f i mmgame:player.obj
 0001:000226a0       ??_EmmPlayer@@UAEPAXI@Z    004236a0 f i mmgame:player.obj
 0001:00022700       ??1mmPlayer@@UAE@XZ        00423700 f i mmgame:player.obj
 0001:000228a0       ??1mmPhysEntity@@UAE@XZ    004238a0 f i mmgame:player.obj
 0001:000228b0       ??0mmHUD@@QAE@XZ           004238b0 f   mmgame:hud.obj
 0001:00022cf0       ?PostChatMessage@mmHUD@@QAEXPAD@Z 00423cf0 f   mmgame:hud.obj
 0001:00022d50       ?ResChange@mmHUD@@UAEXHH@Z 00423d50 f   mmgame:hud.obj
 0001:00022e20       ??1mmHUD@@UAE@XZ           00423e20 f   mmgame:hud.obj
 0001:00022fb0       ?StartTimers@mmHUD@@QAEXXZ 00423fb0 f   mmgame:hud.obj
 0001:00022fd0       ?StopTimers@mmHUD@@QAEXXZ  00423fd0 f   mmgame:hud.obj
 0001:00022ff0       ?ResetTimers@mmHUD@@QAEXXZ 00423ff0 f   mmgame:hud.obj
 0001:00023020       ?ShowClockTime@mmHUD@@QAEXXZ 00424020 f   mmgame:hud.obj
 0001:00023070       ?Init@mmHUD@@QAEXPADPAVmmPlayer@@@Z 00424070 f   mmgame:hud.obj
 0001:00023350       ?Enable@mmHUD@@QAEXXZ      00424350 f   mmgame:hud.obj
 0001:00023390       ?Disable@mmHUD@@QAEXH@Z    00424390 f   mmgame:hud.obj
 0001:000233e0       ?Toggle@mmHUD@@QAEXXZ      004243e0 f   mmgame:hud.obj
 0001:00023400       ?ToggleExternalView@mmHUD@@QAEXXZ 00424400 f   mmgame:hud.obj
 0001:00023450       ?ToggleDash@mmHUD@@QAEXXZ  00424450 f   mmgame:hud.obj
 0001:00023490       ?ActivateDash@mmHUD@@QAEXXZ 00424490 f   mmgame:hud.obj
 0001:000234c0       ?DeactivateDash@mmHUD@@QAEXXZ 004244c0 f   mmgame:hud.obj
 0001:000234f0       ?IsDashActive@mmHUD@@QAEHXZ 004244f0 f   mmgame:hud.obj
 0001:00023500       ?Reset@mmHUD@@UAEXXZ       00424500 f   mmgame:hud.obj
 0001:00023540       ?Update@mmHUD@@UAEXXZ      00424540 f   mmgame:hud.obj
 0001:000238a0       ?UpdatePaused@mmHUD@@UAEXXZ 004248a0 f   mmgame:hud.obj
 0001:000238d0       ?ToggleMirror@mmHUD@@QAEXXZ 004248d0 f   mmgame:hud.obj
 0001:000238f0       ?Cull@mmHUD@@UAEXXZ        004248f0 f   mmgame:hud.obj
 0001:000239c0       ?SetStandings@mmHUD@@QAEXHH@Z 004249c0 f   mmgame:hud.obj
 0001:00023a00       ?SetLapTime@mmHUD@@QAEXHMH@Z 00424a00 f   mmgame:hud.obj
 0001:00023a40       ?SetWPCleared@mmHUD@@QAEXHH@Z 00424a40 f   mmgame:hud.obj
 0001:00023a60       ?SetMessage@mmHUD@@QAEXPAULocString@@MH@Z 00424a60 f   mmgame:hud.obj
 0001:00023aa0       ?SetMessage2@mmHUD@@QAEXPAULocString@@@Z 00424aa0 f   mmgame:hud.obj
 0001:00023ad0       ?SetScore@mmHUD@@QAEXPAD@Z 00424ad0 f   mmgame:hud.obj
 0001:00023af0       ?AddPlayer@mmHUD@@QAEXPADKHH@Z 00424af0 f   mmgame:hud.obj
 0001:00023b20       ?SetScore@mmHUD@@QAEXKH@Z  00424b20 f   mmgame:hud.obj
 0001:00023b40       ?RemovePlayer@mmHUD@@QAEXK@Z 00424b40 f   mmgame:hud.obj
 0001:00023b60       ?ActivateGold@mmHUD@@QAEXXZ 00424b60 f   mmgame:hud.obj
 0001:00023b70       ?DeactivateGold@mmHUD@@QAEXXZ 00424b70 f   mmgame:hud.obj
 0001:00023b80       ?GetTime@mmHUD@@QAEXPADM@Z 00424b80 f   mmgame:hud.obj
 0001:00023ba0       ?PlayNetAlert@mmHUD@@QAEXXZ 00424ba0 f   mmgame:hud.obj
 0001:00023bc0       ?TogglePositionDisplay@mmHUD@@QAEXH@Z 00424bc0 f   mmgame:hud.obj
 0001:00023c20       ?GetPosHdg@mmHUD@@QAEXAAVVector4@@@Z 00424c20 f   mmgame:hud.obj
 0001:00023cb0       ?RecordPosition@mmHUD@@QAEXPAD@Z 00424cb0 f   mmgame:hud.obj
 0001:00023d30       ??0mmTimer@@QAE@XZ         00424d30 f   mmgame:hud.obj
 0001:00023d50       ??1mmTimer@@UAE@XZ         00424d50 f   mmgame:hud.obj
 0001:00023d60       ?Init@mmTimer@@QAEXHM@Z    00424d60 f   mmgame:hud.obj
 0001:00023d80       ?GetTime@mmTimer@@QAEMXZ   00424d80 f   mmgame:hud.obj
 0001:00023d90       ?Update@mmTimer@@UAEXXZ    00424d90 f   mmgame:hud.obj
 0001:00023de0       ?Reset@mmTimer@@UAEXXZ     00424de0 f   mmgame:hud.obj
 0001:00023df0       ?Start@mmTimer@@QAEXXZ     00424df0 f   mmgame:hud.obj
 0001:00023e00       ?Stop@mmTimer@@QAEXXZ      00424e00 f   mmgame:hud.obj
 0001:00023e10       ?StartStop@mmTimer@@QAEXXZ 00424e10 f   mmgame:hud.obj
 0001:00023e20       ??0mmArrow@@QAE@XZ         00424e20 f   mmgame:hud.obj
 0001:00023fa0       ??1mmArrow@@UAE@XZ         00424fa0 f   mmgame:hud.obj
 0001:00024010       ?Init@mmArrow@@QAEXPAVMatrix34@@@Z 00425010 f   mmgame:hud.obj
 0001:00024020       ?Reset@mmArrow@@UAEXXZ     00425020 f   mmgame:hud.obj
 0001:00024030       ?SetInterest@mmArrow@@QAEXPAVVector3@@@Z 00425030 f   mmgame:hud.obj
 0001:00024040       ?ReColorArrow@mmArrow@@AAEXH@Z 00425040 f   mmgame:hud.obj
 0001:000240b0       ?Update@mmArrow@@UAEXXZ    004250b0 f   mmgame:hud.obj
 0001:000242b0       ?DeclareFields@mmHUD@@SAXXZ 004252b0 f   mmgame:hud.obj
 0001:00024420       ?GetClass@mmHUD@@UAEPAVMetaClass@@XZ 00425420 f   mmgame:hud.obj
 0001:00024460       ??1mmExternalView@@UAE@XZ  00425460 f i mmgame:hud.obj
 0001:000244b0       ??1mmCDPlayer@@UAE@XZ      004254b0 f i mmgame:hud.obj
 0001:00024510       ??_GmmTimer@@UAEPAXI@Z     00425510 f i mmgame:hud.obj
 0001:00024510       ??_EmmTimer@@UAEPAXI@Z     00425510 f i mmgame:hud.obj
 0001:00024540       ??_EmmArrow@@UAEPAXI@Z     00425540 f i mmgame:hud.obj
 0001:00024540       ??_GmmArrow@@UAEPAXI@Z     00425540 f i mmgame:hud.obj
 0001:00024570       ??_EmmHUD@@UAEPAXI@Z       00425570 f i mmgame:hud.obj
 0001:000245d0       ??0mmCDPlayer@@QAE@XZ      004255d0 f   mmgame:cd.obj
 0001:00024660       ?Init@mmCDPlayer@@QAEXPAVmmHUD@@@Z 00425660 f   mmgame:cd.obj
 0001:00024770       ?Reset@mmCDPlayer@@UAEXXZ  00425770 f   mmgame:cd.obj
 0001:00024780       ?Update@mmCDPlayer@@UAEXXZ 00425780 f   mmgame:cd.obj
 0001:000247f0       ?Cull@mmCDPlayer@@UAEXXZ   004257f0 f   mmgame:cd.obj
 0001:000249e0       ?PlayStop@mmCDPlayer@@QAEXXZ 004259e0 f   mmgame:cd.obj
 0001:00024a30       ?NextTrack@mmCDPlayer@@QAEXXZ 00425a30 f   mmgame:cd.obj
 0001:00024aa0       ?PrevTrack@mmCDPlayer@@QAEXXZ 00425aa0 f   mmgame:cd.obj
 0001:00024b10       ?Toggle@mmCDPlayer@@QAEXXZ 00425b10 f   mmgame:cd.obj
 0001:00024b60       ??_GmmCDPlayer@@UAEPAXI@Z  00425b60 f i mmgame:cd.obj
 0001:00024b60       ??_EmmCDPlayer@@UAEPAXI@Z  00425b60 f i mmgame:cd.obj
 0001:00024b90       ??0mmWaypointObject@@QAE@AAVVector4@@PADHMHM@Z 00425b90 f   mmgame:wpobject.obj
 0001:00024d30       ??1mmWaypointObject@@UAE@XZ 00425d30 f   mmgame:wpobject.obj
 0001:00024d40       ?Reset@mmWaypointObject@@UAEXXZ 00425d40 f   mmgame:wpobject.obj
 0001:00024d50       ?Update@mmWaypointObject@@UAEXXZ 00425d50 f   mmgame:wpobject.obj
 0001:00024d60       ?Activate@mmWaypointObject@@QAEXXZ 00425d60 f   mmgame:wpobject.obj
 0001:00024d70       ?Deactivate@mmWaypointObject@@QAEXXZ 00425d70 f   mmgame:wpobject.obj
 0001:00024d80       ?SetHeading@mmWaypointObject@@QAEXM@Z 00425d80 f   mmgame:wpobject.obj
 0001:00024df0       ?Move@mmWaypointObject@@QAEXXZ 00425df0 f   mmgame:wpobject.obj
 0001:00024e80       ??_GmmWaypointObject@@UAEPAXI@Z 00425e80 f i mmgame:wpobject.obj
 0001:00024e80       ??_EmmWaypointObject@@UAEPAXI@Z 00425e80 f i mmgame:wpobject.obj
 0001:00024eb0       ??3mmInstance@@SAXPAX@Z    00425eb0 f i mmgame:wpobject.obj
 0001:00024ec0       ??0mmWPHUD@@QAE@XZ         00425ec0 f   mmgame:wphud.obj
 0001:00024fc0       ??1mmWPHUD@@UAE@XZ         00425fc0 f   mmgame:wphud.obj
 0001:00025070       ?SetWPCleared@mmWPHUD@@QAEXXZ 00426070 f   mmgame:wphud.obj
 0001:000250c0       ?SetStandings@mmWPHUD@@QAEXHH@Z 004260c0 f   mmgame:wphud.obj
 0001:00025100       ?Init@mmWPHUD@@QAEXHPAH0H@Z 00426100 f   mmgame:wphud.obj
 0001:000253e0       ?Reset@mmWPHUD@@UAEXXZ     004263e0 f   mmgame:wphud.obj
 0001:00025430       ?Update@mmWPHUD@@UAEXXZ    00426430 f   mmgame:wphud.obj
 0001:00025470       ?Cull@mmWPHUD@@UAEXXZ      00426470 f   mmgame:wphud.obj
 0001:00025480       ??0mmCircuitHUD@@QAE@XZ    00426480 f   mmgame:wphud.obj
 0001:00025590       ??1mmCircuitHUD@@UAE@XZ    00426590 f   mmgame:wphud.obj
 0001:00025690       ?Init@mmCircuitHUD@@QAEXXZ 00426690 f   mmgame:wphud.obj
 0001:00025c30       ?Update@mmCircuitHUD@@UAEXXZ 00426c30 f   mmgame:wphud.obj
 0001:00025c40       ?SetStandings@mmCircuitHUD@@QAEXHH@Z 00426c40 f   mmgame:wphud.obj
 0001:00025c90       ?SetLapTime@mmCircuitHUD@@QAEXHMPADH@Z 00426c90 f   mmgame:wphud.obj
 0001:00025d20       ?SetWPCleared@mmCircuitHUD@@QAEXHH@Z 00426d20 f   mmgame:wphud.obj
 0001:00025d60       ?Reset@mmCircuitHUD@@UAEXXZ 00426d60 f   mmgame:wphud.obj
 0001:00025e10       ??0mmCRHUD@@QAE@XZ         00426e10 f   mmgame:wphud.obj
 0001:00025fb0       ??1mmCRHUD@@UAE@XZ         00426fb0 f   mmgame:wphud.obj
 0001:000260e0       ?Init@mmCRHUD@@QAEXPAVasLinearCS@@PADW4mmCRGameClass@@@Z 004270e0 f   mmgame:wphud.obj
 0001:000268e0       ?ToggleScores@mmCRHUD@@QAEXXZ 004278e0 f   mmgame:wphud.obj
 0001:00026910       ?AddPlayer@mmCRHUD@@QAEXPADKHI@Z 00427910 f   mmgame:wphud.obj
 0001:00026a40       ?UnPackColor@mmCRHUD@@QAEXIAAVVector4@@@Z 00427a40 f   mmgame:wphud.obj
 0001:00026ac0       ?SetScore@mmCRHUD@@QAEXPAD@Z 00427ac0 f   mmgame:wphud.obj
 0001:00026ae0       ?SetName@mmCRHUD@@QAEXPADH@Z 00427ae0 f   mmgame:wphud.obj
 0001:00026b60       ?SetScore@mmCRHUD@@QAEXKH@Z 00427b60 f   mmgame:wphud.obj
 0001:00026bd0       ?RemovePlayer@mmCRHUD@@QAEXK@Z 00427bd0 f   mmgame:wphud.obj
 0001:00026d40       ?ActivateGold@mmCRHUD@@QAEXXZ 00427d40 f   mmgame:wphud.obj
 0001:00026d50       ?DeactivateGold@mmCRHUD@@QAEXXZ 00427d50 f   mmgame:wphud.obj
 0001:00026d60       ?ActivateRosterGold@mmCRHUD@@QAEXK@Z 00427d60 f   mmgame:wphud.obj
 0001:00026db0       ?DeactivateRosterGold@mmCRHUD@@QAEXXZ 00427db0 f   mmgame:wphud.obj
 0001:00026df0       ?UpdateGold@mmCRHUD@@QAEXXZ 00427df0 f   mmgame:wphud.obj
 0001:00026e10       ?Update@mmCRHUD@@UAEXXZ    00427e10 f   mmgame:wphud.obj
 0001:00026e30       ?Reset@mmCRHUD@@UAEXXZ     00427e30 f   mmgame:wphud.obj
 0001:00026e40       ?SetBlueScore@mmCRHUD@@QAEXH@Z 00427e40 f   mmgame:wphud.obj
 0001:00026e80       ?SetRedScore@mmCRHUD@@QAEXH@Z 00427e80 f   mmgame:wphud.obj
 0001:00026ef0       ??_GmmWPHUD@@UAEPAXI@Z     00427ef0 f i mmgame:wphud.obj
 0001:00026ef0       ??_EmmWPHUD@@UAEPAXI@Z     00427ef0 f i mmgame:wphud.obj
 0001:00026f20       ??_GmmCircuitHUD@@UAEPAXI@Z 00427f20 f i mmgame:wphud.obj
 0001:00026f20       ??_EmmCircuitHUD@@UAEPAXI@Z 00427f20 f i mmgame:wphud.obj
 0001:00026f50       ??_EmmNumber@@UAEPAXI@Z    00427f50 f i mmgame:wphud.obj
 0001:00026fb0       ??_EmmTextNode@@UAEPAXI@Z  00427fb0 f i mmgame:wphud.obj
 0001:00027010       ??_EmmCRHUD@@UAEPAXI@Z     00428010 f i mmgame:wphud.obj
 0001:00027010       ??_GmmCRHUD@@UAEPAXI@Z     00428010 f i mmgame:wphud.obj
 0001:00027040       ??1asLinearCS@@UAE@XZ      00428040 f i mmgame:wphud.obj
 0001:00027070       ??0mmWaypoints@@QAE@XZ     00428070 f   mmgame:waypoints.obj
 0001:00027480       ?BlitzRemove@mmWaypoints@@QAEHH@Z 00428480 f   mmgame:waypoints.obj
 0001:00027500       ?Init@mmWaypoints@@QAEHPAVmmPlayer@@PADHHHH@Z 00428500 f   mmgame:waypoints.obj
 0001:00027630       ?GetStartAngle@mmWaypoints@@QAEMXZ 00428630 f   mmgame:waypoints.obj
 0001:00027650       ??1mmWaypoints@@UAE@XZ     00428650 f   mmgame:waypoints.obj
 0001:00027750       ?LoadCSV@mmWaypoints@@QAEHPADH@Z 00428750 f   mmgame:waypoints.obj
 0001:00028440       ?Cull@mmWaypoints@@UAEXXZ  00429440 f   mmgame:waypoints.obj
 0001:00028450       ?CalculateGatePoints@mmWaypoints@@QAEXVVector3@@MMPAVVector2@@1@Z 00429450 f   mmgame:waypoints.obj
 0001:000284d0       ?Update@mmWaypoints@@UAEXXZ 004294d0 f   mmgame:waypoints.obj
 0001:00028860       ?DeactivateFinish@mmWaypoints@@QAEXXZ 00429860 f   mmgame:waypoints.obj
 0001:00028880       ?Reset@mmWaypoints@@UAEXXZ 00429880 f   mmgame:waypoints.obj
 0001:00028970       ?GetStart@mmWaypoints@@QAEXAAVVector3@@@Z 00429970 f   mmgame:waypoints.obj
 0001:000289b0       ?GetWaypoint@mmWaypoints@@QAEXHAAVVector3@@@Z 004299b0 f   mmgame:waypoints.obj
 0001:00028a00       ?GetHeading@mmWaypoints@@QAEMH@Z 00429a00 f   mmgame:waypoints.obj
 0001:00028a30       ?GenerateHitRooms@mmWaypoints@@QAEXXZ 00429a30 f   mmgame:waypoints.obj
 0001:00028a90       ?GetHitRoom@mmWaypoints@@QAEHH@Z 00429a90 f   mmgame:waypoints.obj
 0001:00028ab0       ?SetArrow@mmWaypoints@@QAEXXZ 00429ab0 f   mmgame:waypoints.obj
 0001:00028ad0       ?UpdateWPHUD@mmWaypoints@@QAEXXZ 00429ad0 f   mmgame:waypoints.obj
 0001:00028b40       ?ResetAllTags@mmWaypoints@@QAEXXZ 00429b40 f   mmgame:waypoints.obj
 0001:00028b80       ?GetClosestWaypoint@mmWaypoints@@QAEXXZ 00429b80 f   mmgame:waypoints.obj
 0001:00028c60       ?CycleCurrentWaypoint@mmWaypoints@@QAEXH@Z 00429c60 f   mmgame:waypoints.obj
 0001:00028cd0       ?GetNextWaypoint@mmWaypoints@@QAEXXZ 00429cd0 f   mmgame:waypoints.obj
 0001:00028ce0       ?GetLastWaypoint@mmWaypoints@@QAEXXZ 00429ce0 f   mmgame:waypoints.obj
 0001:00028cf0       ?SetCurrentGoals@mmWaypoints@@QAEXH@Z 00429cf0 f   mmgame:waypoints.obj
 0001:00028d30       ?AIWPHit@mmWaypoints@@QAEHHHVMatrix34@@VVector3@@M@Z 00429d30 f   mmgame:waypoints.obj
 0001:00028ff0       ?AnyAIWPHit@mmWaypoints@@QAEHAAIHVMatrix34@@VVector3@@M@Z 00429ff0 f   mmgame:waypoints.obj
 0001:00029350       ?WPHit@mmWaypoints@@QAEHHVVector3@@HH@Z 0042a350 f   mmgame:waypoints.obj
 0001:000295d0       ?AnyWPHits@mmWaypoints@@QAEHH@Z 0042a5d0 f   mmgame:waypoints.obj
 0001:00029880       ?LineIntersect@mmWaypoints@@QAEHVVector2@@000M@Z 0042a880 f   mmgame:waypoints.obj
 0001:00029a90       ?ClearWaypoint@mmWaypoints@@QAEXH@Z 0042aa90 f   mmgame:waypoints.obj
 0001:00029b50       ?DisplayHUDMessage@mmWaypoints@@QAEXHH@Z 0042ab50 f   mmgame:waypoints.obj
 0001:00029ca0       ?Init@mmGate@@QAEXVVector2@@0@Z 0042aca0 f   mmgame:waypoints.obj
 0001:00029d20       ?LineEq@mmGate@@QAEMMM@Z   0042ad20 f   mmgame:waypoints.obj
 0001:00029d40       ?CloseEnough@mmGate@@QAEHMM@Z 0042ad40 f   mmgame:waypoints.obj
 0001:00029d80       ?Check@mmGate@@QAEHVVector2@@0@Z 0042ad80 f   mmgame:waypoints.obj
 0001:00029e50       ??_GmmWaypoints@@UAEPAXI@Z 0042ae50 f i mmgame:waypoints.obj
 0001:00029e50       ??_EmmWaypoints@@UAEPAXI@Z 0042ae50 f i mmgame:waypoints.obj
 0001:00029e80       ??0Vector2@@QAE@ABV0@@Z    0042ae80 f i mmgame:waypoints.obj
 0001:00029ea0       ??0mmGameMulti@@QAE@XZ     0042aea0 f   mmgame:gamemulti.obj
 0001:00029fb0       ??1mmGameMulti@@UAE@XZ     0042afb0 f   mmgame:gamemulti.obj
 0001:0002a070       ?Init@mmGameMulti@@QAEHXZ  0042b070 f   mmgame:gamemulti.obj
 0001:0002a1a0       ?HitWaterHandler@mmGameMulti@@UAEXXZ 0042b1a0 f   mmgame:gamemulti.obj
 0001:0002a290       ?DropThruCityHandler@mmGameMulti@@UAEXXZ 0042b290 f   mmgame:gamemulti.obj
 0001:0002a2a0       ?InitGameStrings@mmGameMulti@@UAEXXZ 0042b2a0 f   mmgame:gamemulti.obj
 0001:0002a4c0       ?StartXYZ@mmGameMulti@@IAEXHAAVVector3@@0MM@Z 0042b4c0 f   mmgame:gamemulti.obj
 0001:0002a6f0       ?SystemMessageCB@mmGameMulti@@QAEXPAX0@Z 0042b6f0 f   mmgame:gamemulti.obj
 0001:0002a900       ?GameMessageCB@mmGameMulti@@QAEXPAX0@Z 0042b900 f   mmgame:gamemulti.obj
 0001:0002ac90       ?BootStrapCars@mmGameMulti@@QAEXXZ 0042bc90 f   mmgame:gamemulti.obj
 0001:0002ae30       ?Reset@mmGameMulti@@UAEXXZ 0042be30 f   mmgame:gamemulti.obj
 0001:0002aeb0       ?ClearNetObjects@mmGameMulti@@QAEXXZ 0042beb0 f   mmgame:gamemulti.obj
 0001:0002aef0       ?InitOtherPlayers@mmGameMulti@@UAEXXZ 0042bef0 f   mmgame:gamemulti.obj
 0001:0002b170       ?InitRoster@mmGameMulti@@UAEXXZ 0042c170 f   mmgame:gamemulti.obj
 0001:0002b200       ?Update@mmGameMulti@@UAEXXZ 0042c200 f   mmgame:gamemulti.obj
 0001:0002b220       ?UpdateGame@mmGameMulti@@UAEXXZ 0042c220 f   mmgame:gamemulti.obj
 0001:0002b2b0       ?UpdateScore@mmGameMulti@@QAEXXZ 0042c2b0 f   mmgame:gamemulti.obj
 0001:0002b6e0       ?UpdateDebugKeyInput@mmGameMulti@@UAEXH@Z 0042c6e0 f   mmgame:gamemulti.obj
 0001:0002b6f0       ?RegisterMapNetObjects@mmGameMulti@@QAEXH@Z 0042c6f0 f   mmgame:gamemulti.obj
 0001:0002b810       ?DeactivateMapNetObject@mmGameMulti@@QAEXH@Z 0042c810 f   mmgame:gamemulti.obj
 0001:0002b840       ?ActivateMapNetObject@mmGameMulti@@QAEXH@Z 0042c840 f   mmgame:gamemulti.obj
 0001:0002b880       ?EnableRacers@mmGameMulti@@IAEXXZ 0042c880 f   mmgame:gamemulti.obj
 0001:0002b900       ?DisableRacers@mmGameMulti@@IAEXXZ 0042c900 f   mmgame:gamemulti.obj
 0001:0002b950       ?QuitNetwork@mmGameMulti@@QAEXXZ 0042c950 f   mmgame:gamemulti.obj
 0001:0002b970       ?ParseChatMessage@mmGameMulti@@QAEHPADH@Z 0042c970 f   mmgame:gamemulti.obj
 0001:0002b9e0       ?SendChatMessage@mmGameMulti@@UAEXPAD@Z 0042c9e0 f   mmgame:gamemulti.obj
 0001:0002baa0       ?SendToChatMessage@mmGameMulti@@QAEXPADK@Z 0042caa0 f   mmgame:gamemulti.obj
 0001:0002bb60       ?FinishMessage@mmGameMulti@@QAEXH@Z 0042cb60 f   mmgame:gamemulti.obj
 0001:0002bc20       ?BootPlayerCB@mmGameMulti@@QAEXPAX0@Z 0042cc20 f   mmgame:gamemulti.obj
 0001:0002bc60       ?UpdateNetWorkAudio@mmGameMulti@@QAEXXZ 0042cc60 f   mmgame:gamemulti.obj
 0001:0002bcb0       ?SendMsg@mmGameMulti@@QAEXH@Z 0042ccb0 f   mmgame:gamemulti.obj
 0001:0002bce0       ?SendBootMsg@mmGameMulti@@QAEXK@Z 0042cce0 f   mmgame:gamemulti.obj
 0001:0002bd20       ?DeclareFields@mmGameMulti@@SAXXZ 0042cd20 f   mmgame:gamemulti.obj
 0001:0002bdc0       ?GetClass@mmGameMulti@@UAEPAVMetaClass@@XZ 0042cdc0 f   mmgame:gamemulti.obj
 0001:0002bf20       ??_EmmGameMulti@@UAEPAXI@Z 0042cf20 f i mmgame:gamemulti.obj
 0001:0002bf20       ??_GmmGameMulti@@UAEPAXI@Z 0042cf20 f i mmgame:gamemulti.obj
 0001:0002bf50       ??0mmNetObject@@QAE@XZ     0042cf50 f   mmgame:netobject.obj
 0001:0002c000       ??1mmNetObject@@UAE@XZ     0042d000 f   mmgame:netobject.obj
 0001:0002c010       ?Clear@mmNetObject@@QAEXXZ 0042d010 f   mmgame:netobject.obj
 0001:0002c060       ?Activate@mmNetObject@@QAEXXZ 0042d060 f   mmgame:netobject.obj
 0001:0002c0b0       ?Deactivate@mmNetObject@@QAEXXZ 0042d0b0 f   mmgame:netobject.obj
 0001:0002c100       ?Init@mmNetObject@@QAEXPAVmmCar@@PADHK1@Z 0042d100 f   mmgame:netobject.obj
 0001:0002c180       ?ReInit@mmNetObject@@QAEXPAVmmCar@@PADHK1@Z 0042d180 f   mmgame:netobject.obj
 0001:0002c240       ?SetCar@mmNetObject@@QAEXPAVmmCar@@@Z 0042d240 f   mmgame:netobject.obj
 0001:0002c250       ?SetActive@mmNetObject@@QAEXH@Z 0042d250 f   mmgame:netobject.obj
 0001:0002c270       ?SetScore@mmNetObject@@QAEXH@Z 0042d270 f   mmgame:netobject.obj
 0001:0002c280       ?SetLocalData@mmNetObject@@UAEXXZ 0042d280 f   mmgame:netobject.obj
 0001:0002c3c0       ?PositionUpdate@mmNetObject@@QAEXPAUNETGAME_MSG@@@Z 0042d3c0 f   mmgame:netobject.obj
 0001:0002c740       ?Predict@mmNetObject@@QAEXXZ 0042d740 f   mmgame:netobject.obj
 0001:0002c8e0       ?Update@mmNetObject@@UAEXXZ 0042d8e0 f   mmgame:netobject.obj
 0001:0002c980       ??_EmmNetObject@@UAEPAXI@Z 0042d980 f i mmgame:netobject.obj
 0001:0002c980       ??_GmmNetObject@@UAEPAXI@Z 0042d980 f i mmgame:netobject.obj
 0001:0002c9b0       ??0mmRainAudio@@QAE@XZ     0042d9b0 f   mmgame:rainaudio.obj
 0001:0002cbb0       ??1mmRainAudio@@QAE@XZ     0042dbb0 f   mmgame:rainaudio.obj
 0001:0002cbf0       ?SetInterior@mmRainAudio@@QAEXE@Z 0042dbf0 f   mmgame:rainaudio.obj
 0001:0002cc80       ?ShelterOn@mmRainAudio@@QAEXXZ 0042dc80 f   mmgame:rainaudio.obj
 0001:0002ccf0       ?ShelterOff@mmRainAudio@@QAEXXZ 0042dcf0 f   mmgame:rainaudio.obj
 0001:0002cd60       ?Update@mmRainAudio@@QAEXXZ 0042dd60 f   mmgame:rainaudio.obj
 0001:0002cee0       ??0mmDashView@@QAE@XZ      0042dee0 f   mmgame:dash.obj
 0001:0002d080       ??1mmDashView@@UAE@XZ      0042e080 f   mmgame:dash.obj
 0001:0002d190       ?Init@mmDashView@@QAEXPADPAVmmPlayer@@@Z 0042e190 f   mmgame:dash.obj
 0001:0002d520       ?Reset@mmDashView@@UAEXXZ  0042e520 f   mmgame:dash.obj
 0001:0002d530       ?BeforeSave@mmDashView@@UAEXXZ 0042e530 f   mmgame:dash.obj
 0001:0002d5d0       ?AfterLoad@mmDashView@@UAEXXZ 0042e5d0 f   mmgame:dash.obj
 0001:0002d670       ?ActivateUntilTransitionIsOver@mmDashView@@QAEXXZ 0042e670 f   mmgame:dash.obj
 0001:0002d690       ?Activate@mmDashView@@QAEXXZ 0042e690 f   mmgame:dash.obj
 0001:0002d6b0       ?Deactivate@mmDashView@@QAEXXZ 0042e6b0 f   mmgame:dash.obj
 0001:0002d6d0       ?TempDeactivate@mmDashView@@QAEXXZ 0042e6d0 f   mmgame:dash.obj
 0001:0002d6e0       ?Update@mmDashView@@UAEXXZ 0042e6e0 f   mmgame:dash.obj
 0001:0002d810       ?Cull@mmDashView@@UAEXXZ   0042e810 f   mmgame:dash.obj
 0001:0002da00       ??0mmExternalView@@QAE@XZ  0042ea00 f   mmgame:dash.obj
 0001:0002da80       ?Init@mmExternalView@@QAEXPAVmmPlayer@@@Z 0042ea80 f   mmgame:dash.obj
 0001:0002dac0       ?ResChange@mmExternalView@@UAEXHH@Z 0042eac0 f   mmgame:dash.obj
 0001:0002dc10       ?Reset@mmExternalView@@UAEXXZ 0042ec10 f   mmgame:dash.obj
 0001:0002dc20       ?Update@mmExternalView@@UAEXXZ 0042ec20 f   mmgame:dash.obj
 0001:0002dc40       ?WideFOV@mmExternalView@@QAEXH@Z 0042ec40 f   mmgame:dash.obj
 0001:0002dc50       ?Cull@mmExternalView@@UAEXXZ 0042ec50 f   mmgame:dash.obj
 0001:0002ddf0       ?DeclareFields@mmDashView@@SAXXZ 0042edf0 f   mmgame:dash.obj
 0001:0002e0e0       ?GetClass@mmDashView@@UAEPAVMetaClass@@XZ 0042f0e0 f   mmgame:dash.obj
 0001:0002e120       ??1RadialGauge@@UAE@XZ     0042f120 f i mmgame:dash.obj
 0001:0002e170       ??_GmmExternalView@@UAEPAXI@Z 0042f170 f i mmgame:dash.obj
 0001:0002e170       ??_EmmExternalView@@UAEPAXI@Z 0042f170 f i mmgame:dash.obj
 0001:0002e1a0       ??_EmmDashView@@UAEPAXI@Z  0042f1a0 f i mmgame:dash.obj
 0001:0002e200       ??0RadialGauge@@QAE@XZ     0042f200 f   mmgame:gauge.obj
 0001:0002e270       ?Init@RadialGauge@@QAEXPAD0PAM1M@Z 0042f270 f   mmgame:gauge.obj
 0001:0002e2d0       ?Update@RadialGauge@@UAEXXZ 0042f2d0 f   mmgame:gauge.obj
 0001:0002e3f0       ?Cull@RadialGauge@@UAEXXZ  0042f3f0 f   mmgame:gauge.obj
 0001:0002e420       ??0mmLinearGauge@@QAE@XZ   0042f420 f   mmgame:gauge.obj
 0001:0002e430       ??1mmLinearGauge@@QAE@XZ   0042f430 f   mmgame:gauge.obj
 0001:0002e440       ?Init@mmLinearGauge@@QAEXPADPAM11HPAVmmExternalView@@@Z 0042f440 f   mmgame:gauge.obj
 0001:0002e550       ?Draw@mmLinearGauge@@QAEXXZ 0042f550 f   mmgame:gauge.obj
 0001:0002e5e0       ?Init@mmRadGauge@@QAEXPAM0PAVmmExternalView@@HI@Z 0042f5e0 f   mmgame:gauge.obj
 0001:0002e610       ?ResChange@mmRadGauge@@QAEXXZ 0042f610 f   mmgame:gauge.obj
 0001:0002e660       ?Draw@mmRadGauge@@QAEXXZ   0042f660 f   mmgame:gauge.obj
 0001:0002e790       ?Init@mmGearIndicator@@QAEXPAVmmExternalView@@PAVmmPlayer@@@Z 0042f790 f   mmgame:gauge.obj
 0001:0002e8c0       ?Draw@mmGearIndicator@@QAEXXZ 0042f8c0 f   mmgame:gauge.obj
 0001:0002e940       ?Init@mmSpeedIndicator@@QAEXPAVmmExternalView@@PAVmmCarSim@@@Z 0042f940 f   mmgame:gauge.obj
 0001:0002e9d0       ?Draw@mmSpeedIndicator@@QAEXXZ 0042f9d0 f   mmgame:gauge.obj
 0001:0002eb20       ??_ERadialGauge@@UAEPAXI@Z 0042fb20 f i mmgame:gauge.obj
 0001:0002eb20       ??_GRadialGauge@@UAEPAXI@Z 0042fb20 f i mmgame:gauge.obj
 0001:0002eb50       ??0mmWaypointInstance@@QAE@HMM@Z 0042fb50 f   mmgame:wpinst.obj
 0001:0002eba0       ??1mmWaypointInstance@@UAE@XZ 0042fba0 f   mmgame:wpinst.obj
 0001:0002ebb0       ?GetScale@mmWaypointInstance@@UAIMXZ 0042fbb0 f   mmgame:wpinst.obj
 0001:0002ebc0       ?ComputeLod@mmWaypointInstance@@UAEHMM@Z 0042fbc0 f   mmgame:wpinst.obj
 0001:0002ebe0       ?Draw@mmWaypointInstance@@UAIXH@Z 0042fbe0 f   mmgame:wpinst.obj
 0001:0002efb0       ?AddWidgets@mmWaypointInstance@@QAEXPAVBank@@@Z 0042ffb0 f   mmgame:wpinst.obj
 0001:0002efc0       ?DeclareFields@mmWaypointInstance@@SAXXZ 0042ffc0 f   mmgame:wpinst.obj
 0001:0002f140       ?GetClass@mmWaypointInstance@@UAEPAVMetaClass@@XZ 00430140 f   mmgame:wpinst.obj
 0001:0002f150       ??_EmmWaypointInstance@@UAEPAXI@Z 00430150 f i mmgame:wpinst.obj
 0001:0002f1b0       ??_FmmWaypointInstance@@QAEXXZ 004301b0 f i mmgame:wpinst.obj
 0001:0002f1d0       ?GetEntity@mmInstance@@UAEPAVmmPhysEntity@@XZ 004301d0 f i mmgame:wpinst.obj
 0001:0002f1e0       ?AttachEntity@mmInstance@@UAEPAVmmPhysEntity@@XZ 004301e0 f i mmgame:wpinst.obj
 0001:0002f1f0       ?GetVelocity@mmInstance@@UAE?AVVector3@@XZ 004301f0 f i mmgame:wpinst.obj
 0001:0002f210       ?Impact@mmInstance@@UAEXPAV1@PAVVector3@@@Z 00430210 f i mmgame:wpinst.obj
 0001:0002f220       ?Detach@mmInstance@@UAEXXZ 00430220 f i mmgame:wpinst.obj
 0001:0002f270       ?Path@aiMap@@QAEPAVaiPath@@H@Z 00430270 f   mmai:aiMap.obj
 0001:0002f2a0       ?Intersection@aiMap@@QAEPAVaiIntersection@@H@Z 004302a0 f   mmai:aiMap.obj
 0001:0002f2d0       ?Vehicle@aiMap@@QAEPAVaiVehicleAmbient@@H@Z 004302d0 f   mmai:aiMap.obj
 0001:0002f310       ?Police@aiMap@@QAEPAVaiVehiclePolice@@H@Z 00430310 f   mmai:aiMap.obj
 0001:0002f350       ?Opponent@aiMap@@QAEPAVaiVehicleOpponent@@H@Z 00430350 f   mmai:aiMap.obj
 0001:0002f390       ?Pedestrian@aiMap@@QAEPAVaiPedestrian@@H@Z 00430390 f   mmai:aiMap.obj
 0001:0002f3d0       ?PlayerPos@aiMap@@QAEAAVVector3@@XZ 004303d0 f   mmai:aiMap.obj
 0001:0002f3e0       ??0aiMap@@QAE@XZ           004303e0 f   mmai:aiMap.obj
 0001:0002f400       ??1aiMap@@UAE@XZ           00430400 f   mmai:aiMap.obj
 0001:0002f410       ?Clean@aiMap@@QAEXXZ       00430410 f   mmai:aiMap.obj
 0001:0002f640       ?Init@aiMap@@QAEXPAD00PAVmmCar@@@Z 00430640 f   mmai:aiMap.obj
 0001:000301b0       ?SaveBinary@aiMap@@AAEXPAD@Z 004311b0 f   mmai:aiMap.obj
 0001:00030330       ?ReadBinary@aiMap@@AAEXPAD@Z 00431330 f   mmai:aiMap.obj
 0001:00030930       ?Reset@aiMap@@UAEXXZ       00431930 f   mmai:aiMap.obj
 0001:00030c70       ?Update@aiMap@@UAEXXZ      00431c70 f   mmai:aiMap.obj
 0001:00030ff0       ?UpdatePaused@aiMap@@UAEXXZ 00431ff0 f   mmai:aiMap.obj
 0001:00031000       ?Cull@aiMap@@UAEXXZ        00432000 f   mmai:aiMap.obj
 0001:00031010       ?DrawNextVisibleAmbient@aiMap@@QAEXXZ 00432010 f   mmai:aiMap.obj
 0001:00031030       ?AllwaysGreen@aiMap@@QAEXXZ 00432030 f   mmai:aiMap.obj
 0001:00031070       ?AllwaysRed@aiMap@@QAEXXZ  00432070 f   mmai:aiMap.obj
 0001:000310b0       ?DrawAppRoads@aiMap@@QAEXXZ 004320b0 f   mmai:aiMap.obj
 0001:000310d0       ?MapComponent@aiMap@@QAEHAAVVector3@@PAF1F@Z 004320d0 f   mmai:aiMap.obj
 0001:00031250       ?DetermineRoadPosInfo@aiMap@@QAEHAAVMatrix34@@PAVaiRailSet@@PAFPAM23H@Z 00432250 f   mmai:aiMap.obj
 0001:00031400       ?DeterminePerpMapComponent@aiMap@@QAEHAAVMatrix34@@PAVaiRailSet@@PAF2PAM32@Z 00432400 f   mmai:aiMap.obj
 0001:00031660       ?DetermineOppMapComponent@aiMap@@QAEHAAVMatrix34@@PAVaiRailSet@@PAF2PAM323MFF@Z 00432660 f   mmai:aiMap.obj
 0001:00033000       ?DetermineOppRoadPosInfo@aiMap@@QAEHAAVVector3@@0PAVaiRailSet@@PAFPAM3H@Z 00434000 f   mmai:aiMap.obj
 0001:000330e0       ?FindAmbAppRoad@aiMap@@QAEHH@Z 004340e0 f   mmai:aiMap.obj
 0001:00033130       ?FindPedAppRoad@aiMap@@QAEHH@Z 00434130 f   mmai:aiMap.obj
 0001:00033180       ?PredictIntersectionPath@aiMap@@QAEPAVaiPath@@HAAVMatrix34@@@Z 00434180 f   mmai:aiMap.obj
 0001:00033360       ?PredictAmbIntersectionPath@aiMap@@QAEPAVaiPath@@HAAVMatrix34@@@Z 00434360 f   mmai:aiMap.obj
 0001:00033550       ?PredictAmbFreewayIntersectionPath@aiMap@@QAEPAVaiPath@@HAAVMatrix34@@@Z 00434550 f   mmai:aiMap.obj
 0001:00033760       ?Dump@aiMap@@QAEXXZ        00434760 f   mmai:aiMap.obj
 0001:000338a0       ?GetCameraPos@aiMap@@QAEXXZ 004348a0 f   mmai:aiMap.obj
 0001:000338d0       ?AddAIPath@aiMap@@AAEPAVaiPath@@AAVmmRoadSect@@HH@Z 004348d0 f   mmai:aiMap.obj
 0001:000339d0       ?AddIntersection@aiMap@@QAEPAVaiIntersection@@PAVVector3@@@Z 004349d0 f   mmai:aiMap.obj
 0001:00033a00       ?ScanIntersections@aiMap@@AAEPAVaiIntersection@@AAVVector3@@@Z 00434a00 f   mmai:aiMap.obj
 0001:00033a80       ?NewIntersection@aiMap@@AAEPAVaiIntersection@@AAVVector3@@@Z 00434a80 f   mmai:aiMap.obj
 0001:00033b60       ?AddIntToAppRoadMap@aiMap@@AAEXPAVCArrayList@@HMPAPAUasPortalCell@@H@Z 00434b60 f   mmai:aiMap.obj
 0001:00033be0       ?RoadDensity@aiMap@@AAEMHMH@Z 00434be0 f   mmai:aiMap.obj
 0001:00033c30       ?NumCars@aiMap@@AAEHHMM@Z  00434c30 f   mmai:aiMap.obj
 0001:00033c60       ?FindRoad@aiMap@@AAEHPAVCArrayList@@H@Z 00434c60 f   mmai:aiMap.obj
 0001:00033ca0       ?ChooseNextRandomLink@aiMap@@QAEHPAVaiRailSet@@@Z 00434ca0 f   mmai:aiMap.obj
 0001:00033e30       ?ChooseNextLeftStraightLink@aiMap@@QAEHPAVaiRailSet@@@Z 00434e30 f   mmai:aiMap.obj
 0001:000340a0       ?ChooseNextRightStraightLink@aiMap@@QAEHPAVaiRailSet@@@Z 004350a0 f   mmai:aiMap.obj
 0001:00034340       ?ChooseNextStraightLink@aiMap@@QAEHPAVaiRailSet@@@Z 00435340 f   mmai:aiMap.obj
 0001:00034650       ?ChooseNextLaneLink@aiMap@@QAEHPAVaiRailSet@@@Z 00435650 f   mmai:aiMap.obj
 0001:000346f0       ?ChooseNextFreewayLink@aiMap@@QAEHPAVaiRailSet@@@Z 004356f0 f   mmai:aiMap.obj
 0001:00034800       ?ChooseNextRightStraightFreewayLink@aiMap@@QAEHPAVaiRailSet@@@Z 00435800 f   mmai:aiMap.obj
 0001:000349c0       ?AdjustPedestrians@aiMap@@AAEXHH@Z 004359c0 f   mmai:aiMap.obj
 0001:00034d60       ?AddPedestrian@aiMap@@QAEXPAVaiPedestrian@@@Z 00435d60 f   mmai:aiMap.obj
 0001:00034d90       ?RemovePedestrian@aiMap@@QAEXPAVaiPedestrian@@@Z 00435d90 f   mmai:aiMap.obj
 0001:00034e00       ?AdjustAmbients@aiMap@@AAEXHH@Z 00435e00 f   mmai:aiMap.obj
 0001:000352c0       ?AddAmbient@aiMap@@QAEXPAVaiVehicleSpline@@@Z 004362c0 f   mmai:aiMap.obj
 0001:00035300       ?RemoveAmbient@aiMap@@QAEXPAVaiVehicleSpline@@@Z 00436300 f   mmai:aiMap.obj
 0001:00035370       ?DetRdSegBetweenInts@aiMap@@QAEPAVaiPath@@PAVaiIntersection@@0@Z 00436370 f   mmai:aiMap.obj
 0001:000353f0       ?GoodRoadForCopStartPos@aiMap@@QAEHH@Z 004363f0 f   mmai:aiMap.obj
 0001:00035440       ?DeclareFields@aiMap@@SAXXZ 00436440 f   mmai:aiMap.obj
 0001:000355b0       ?GetClass@aiMap@@UAEPAVMetaClass@@XZ 004365b0 f   mmai:aiMap.obj
 0001:00035710       ??_EaiVehicleAmbient@@QAEPAXI@Z 00436710 f i mmai:aiMap.obj
 0001:00035770       ??_EaiVehiclePolice@@QAEPAXI@Z 00436770 f i mmai:aiMap.obj
 0001:000357d0       ??_EaiVehicleOpponent@@QAEPAXI@Z 004367d0 f i mmai:aiMap.obj
 0001:00035830       ??_EaiPedestrian@@QAEPAXI@Z 00436830 f i mmai:aiMap.obj
 0001:00035890       ??_ECArrayList@@QAEPAXI@Z  00436890 f i mmai:aiMap.obj
 0001:000358f0       ?Clamp@@YAMMMM@Z           004368f0 f i mmai:aiMap.obj
 0001:00035920       ??0Vector3@@QAE@MMM@Z      00436920 f i mmai:aiMap.obj
 0001:00035940       ??_EaiMap@@UAEPAXI@Z       00436940 f i mmai:aiMap.obj
 0001:000359a0       ??0CArrayList@@QAE@XZ      004369a0 f i mmai:aiMap.obj
 0001:000359b0       ??0aiPath@@QAE@H@Z         004369b0 f   mmai:aiPath.obj
 0001:000359e0       ??1aiPath@@QAE@XZ          004369e0 f   mmai:aiPath.obj
 0001:00035a70       ?Reset@aiPath@@QAEXXZ      00436a70 f   mmai:aiPath.obj
 0001:00035ab0       ?UpdateAmbients@aiPath@@QAEXXZ 00436ab0 f   mmai:aiPath.obj
 0001:00035bc0       ?UpdatePedestrians@aiPath@@QAEXXZ 00436bc0 f   mmai:aiPath.obj
 0001:00035c60       ?ResetVehicleReactTicks@aiPath@@QAEXXZ 00436c60 f   mmai:aiPath.obj
 0001:00035c90       ?AddPathVerts@aiPath@@QAEXAAVmmRoadSect@@HH@Z 00436c90 f   mmai:aiPath.obj
 0001:000365d0       ?AddPathVerts@aiPath@@QAEXPAVVector3@@H@Z 004375d0 f   mmai:aiPath.obj
 0001:00036c30       ?CalcCenterVerts@aiPath@@QAEXAAVmmRoadSect@@H@Z 00437c30 f   mmai:aiPath.obj
 0001:00036f70       ?SaveBinary@aiPath@@QAEXPAVStream@@@Z 00437f70 f   mmai:aiPath.obj
 0001:000371e0       ?ReadBinary@aiPath@@QAEXPAVStream@@@Z 004381e0 f   mmai:aiPath.obj
 0001:000376e0       ?Dump@aiPath@@QAEXXZ       004386e0 f   mmai:aiPath.obj
 0001:00037780       ?AllwaysStop@aiPath@@QAEXH@Z 00438780 f   mmai:aiPath.obj
 0001:000377a0       ?StopIncomingRoads@aiPath@@QAEXH@Z 004387a0 f   mmai:aiPath.obj
 0001:00037860       ?StopDestinationSources@aiPath@@QAEXH@Z 00438860 f   mmai:aiPath.obj
 0001:000378e0       ?AllwaysGo@aiPath@@QAEXH@Z 004388e0 f   mmai:aiPath.obj
 0001:00037900       ?CenterLength@aiPath@@QAEMHH@Z 00438900 f   mmai:aiPath.obj
 0001:00037920       ?SubSectionLength@aiPath@@QAEMHH@Z 00438920 f   mmai:aiPath.obj
 0001:00037940       ?GetHeading@aiPath@@QAEMMH@Z 00438940 f   mmai:aiPath.obj
 0001:00037a10       ?SubSectionDist@aiPath@@QAEMMH@Z 00438a10 f   mmai:aiPath.obj
 0001:00037ad0       ?CenterIndex@aiPath@@QAEHM@Z 00438ad0 f   mmai:aiPath.obj
 0001:00037b70       ?CenterPosition@aiPath@@QAEXMAAVVector3@@@Z 00438b70 f   mmai:aiPath.obj
 0001:00037c40       ?Index@aiPath@@QAEHMH@Z    00438c40 f   mmai:aiPath.obj
 0001:00037cf0       ?Index@aiPath@@QAEHAAVVector3@@@Z 00438cf0 f   mmai:aiPath.obj
 0001:00037df0       ?RoadDistance@aiPath@@QAEXAAVVector3@@PAFPAMF2@Z 00438df0 f   mmai:aiPath.obj
 0001:00037f90       ?CenterDistance@aiPath@@QAEHAAVVector3@@PAFPAM2@Z 00438f90 f   mmai:aiPath.obj
 0001:000382b0       ?AmbientCenterDistance@aiPath@@QAEXPAVaiVehicleSpline@@PAM111@Z 004392b0 f   mmai:aiPath.obj
 0001:000389a0       ?SubSectionPt@aiPath@@QAEXAAVVector3@@HHM@Z 004399a0 f   mmai:aiPath.obj
 0001:00038a10       ?SubSectionDir@aiPath@@QAEXAAVVector3@@HHM@Z 00439a10 f   mmai:aiPath.obj
 0001:00038a60       ?IntersectionEntryPt@aiPath@@QAEXAAVVector3@@HM@Z 00439a60 f   mmai:aiPath.obj
 0001:00038b20       ?IntersectionEntryVector@aiPath@@QAEXAAVVector3@@M@Z 00439b20 f   mmai:aiPath.obj
 0001:00038b90       ?IntersectionExitVector@aiPath@@QAEXAAVVector3@@M@Z 00439b90 f   mmai:aiPath.obj
 0001:00038c00       ?NumVehiclesAfterDist@aiPath@@QAEHHM@Z 00439c00 f   mmai:aiPath.obj
 0001:00038c50       ?ContinuityError@aiPath@@QAEHH@Z 00439c50 f   mmai:aiPath.obj
 0001:00038cb0       ?PopVehicle@aiPath@@QAEXPAVaiVehicleSpline@@H@Z 00439cb0 f   mmai:aiPath.obj
 0001:00038d90       ?PushVehicle@aiPath@@QAEXPAVaiVehicleSpline@@H@Z 00439d90 f   mmai:aiPath.obj
 0001:00038e00       ?AddVehicle@aiPath@@QAEXPAVaiVehicleSpline@@HM@Z 00439e00 f   mmai:aiPath.obj
 0001:00038f30       ?RemoveVehicle@aiPath@@QAEHPAVaiVehicleSpline@@H@Z 00439f30 f   mmai:aiPath.obj
 0001:00039040       ?RoadCapacity@aiPath@@QAEHPAVaiVehicleSpline@@H@Z 0043a040 f   mmai:aiPath.obj
 0001:00039100       ?AddPedestrian@aiPath@@QAEXPAVaiPedestrian@@@Z 0043a100 f   mmai:aiPath.obj
 0001:00039140       ?RemovePedestrian@aiPath@@QAEXPAVaiPedestrian@@@Z 0043a140 f   mmai:aiPath.obj
 0001:000391b0       ?Blocked@aiPath@@QAEXH@Z   0043a1b0 f   mmai:aiPath.obj
 0001:000391d0       ?VertXDir@aiPath@@QAEPAVVector3@@H@Z 0043a1d0 f i mmai:aiPath.obj
 0001:00039220       ??GVector3@@QBE?AV0@ABV0@@Z 0043a220 f i mmai:aiPath.obj
 0001:00039250       ?VertZDir@aiPath@@QAEPAVVector3@@H@Z 0043a250 f i mmai:aiPath.obj
 0001:000392a0       ?CenterVertice@aiPath@@QAEPAVVector3@@H@Z 0043a2a0 f i mmai:aiPath.obj
 0001:000392f0       ??0aiAudioManager@@QAE@XZ  0043a2f0 f   mmai:aiaudiomanager.obj
 0001:00039600       ??1aiAudioManager@@UAE@XZ  0043a600 f   mmai:aiaudiomanager.obj
 0001:00039a00       ?AddVehicle@aiAudioManager@@QAEFPAVaiVehicleAmbient@@@Z 0043aa00 f   mmai:aiaudiomanager.obj
 0001:00039aa0       ?AddVehicle@aiAudioManager@@QAEFPAVaiVehicleOpponent@@@Z 0043aaa0 f   mmai:aiaudiomanager.obj
 0001:00039b40       ?AddVehicle@aiAudioManager@@QAEFPAVaiVehiclePolice@@@Z 0043ab40 f   mmai:aiaudiomanager.obj
 0001:00039be0       ?RemoveVehicle@aiAudioManager@@QAEXPAVaiVehicleAmbient@@F@Z 0043abe0 f   mmai:aiaudiomanager.obj
 0001:00039c40       ?RemoveVehicle@aiAudioManager@@QAEXPAVaiVehicleOpponent@@F@Z 0043ac40 f   mmai:aiaudiomanager.obj
 0001:00039ca0       ?RemoveVehicle@aiAudioManager@@QAEXPAVaiVehiclePolice@@F@Z 0043aca0 f   mmai:aiaudiomanager.obj
 0001:00039d00       ?FindGreatestDistance@aiAudioManager@@QAEFPAVaiVehicleAmbient@@@Z 0043ad00 f   mmai:aiaudiomanager.obj
 0001:00039ef0       ?FindGreatestDistance@aiAudioManager@@QAEFPAVaiVehicleOpponent@@@Z 0043aef0 f   mmai:aiaudiomanager.obj
 0001:0003a0e0       ?FindGreatestDistance@aiAudioManager@@QAEFPAVaiVehiclePolice@@@Z 0043b0e0 f   mmai:aiaudiomanager.obj
 0001:0003a340       ?UnassignFurthestAmbient@aiAudioManager@@QAEFXZ 0043b340 f   mmai:aiaudiomanager.obj
 0001:0003a3f0       ?UnassignFurthestOpponent@aiAudioManager@@QAEFXZ 0043b3f0 f   mmai:aiaudiomanager.obj
 0001:0003a4b0       ?FindUnusedSlot@aiAudioManager@@QAEFXZ 0043b4b0 f   mmai:aiaudiomanager.obj
 0001:0003a4f0       ?Update@aiAudioManager@@UAEXXZ 0043b4f0 f   mmai:aiaudiomanager.obj
 0001:0003a860       ?EchoOn@aiAudioManager@@QAEXM@Z 0043b860 f   mmai:aiaudiomanager.obj
 0001:0003abb0       ?EchoOff@aiAudioManager@@QAEXXZ 0043bbb0 f   mmai:aiaudiomanager.obj
 0001:0003ad40       ?AssignSounds@aiAudioManager@@QAEXPAVaiVehicleOpponent@@F@Z 0043bd40 f   mmai:aiaudiomanager.obj
 0001:0003b130       ?AssignAddOnSounds@aiAudioManager@@QAEXPAVaiVehicleOpponent@@F@Z 0043c130 f   mmai:aiaudiomanager.obj
 0001:0003b230       ?AssignSounds@aiAudioManager@@QAEXPAVaiVehiclePolice@@F@Z 0043c230 f   mmai:aiaudiomanager.obj
 0001:0003b810       ?AssignSounds@aiAudioManager@@QAEXPAVaiVehicleAmbient@@F@Z 0043c810 f   mmai:aiaudiomanager.obj
 0001:0003ba00       ?AllocateAmbients@aiAudioManager@@QAEXXZ 0043ca00 f   mmai:aiaudiomanager.obj
 0001:0003ba50       ?AllocateOpponents@aiAudioManager@@QAEXXZ 0043ca50 f   mmai:aiaudiomanager.obj
 0001:0003baa0       ?AllocatePolice@aiAudioManager@@QAEXXZ 0043caa0 f   mmai:aiaudiomanager.obj
 0001:0003bdd0       ?AllocateSkids@aiAudioManager@@QAEXXZ 0043cdd0 f   mmai:aiaudiomanager.obj
 0001:0003c060       ?AllocateCopVoice@aiAudioManager@@QAEXXZ 0043d060 f   mmai:aiaudiomanager.obj
 0001:0003c130       ?LoadCopVoice@aiAudioManager@@QAEXXZ 0043d130 f   mmai:aiaudiomanager.obj
 0001:0003c250       ?CatName@aiAudioManager@@AAEPADPADHH@Z 0043d250 f   mmai:aiaudiomanager.obj
 0001:0003c450       ?AllocateImpacts@aiAudioManager@@QAEXXZ 0043d450 f   mmai:aiaudiomanager.obj
 0001:0003c500       ?AllocateHorns@aiAudioManager@@QAEXXZ 0043d500 f   mmai:aiaudiomanager.obj
 0001:0003c6d0       ?AllocateVoices@aiAudioManager@@QAEXXZ 0043d6d0 f   mmai:aiaudiomanager.obj
 0001:0003c8a0       ?AllocateEngine@aiAudioManager@@QAEXFF@Z 0043d8a0 f   mmai:aiaudiomanager.obj
 0001:0003cab0       ?AllocateAddOnEngine@aiAudioManager@@QAEFPAD@Z 0043dab0 f   mmai:aiaudiomanager.obj
 0001:0003cc80       ?AllocateEngine@aiAudioManager@@QAEPAPAVAudSound@@PAD@Z 0043dc80 f   mmai:aiaudiomanager.obj
 0001:0003cdc0       ?AllocateReverseBeep@aiAudioManager@@QAEXXZ 0043ddc0 f   mmai:aiaudiomanager.obj
 0001:0003cf00       ?QueueInCopVoice@aiAudioManager@@QAEFM@Z 0043df00 f   mmai:aiaudiomanager.obj
 0001:0003cf60       ?PlayCopVoice@aiAudioManager@@QAEFXZ 0043df60 f   mmai:aiaudiomanager.obj
 0001:0003cfb0       ?GetClosestCop@aiAudioManager@@QAEFXZ 0043dfb0 f   mmai:aiaudiomanager.obj
 0001:0003d090       ??_EaiAudioManager@@UAEPAXI@Z 0043e090 f i mmai:aiaudiomanager.obj
 0001:0003d090       ??_GaiAudioManager@@UAEPAXI@Z 0043e090 f i mmai:aiaudiomanager.obj
 0001:0003d0c0       ??0aiTrafficLightSet@@QAE@PAVaiIntersection@@@Z 0043e0c0 f   mmai:aiTrafficLight.obj
 0001:0003d2b0       ??1aiTrafficLightSet@@UAE@XZ 0043e2b0 f   mmai:aiTrafficLight.obj
 0001:0003d310       ?Reset@aiTrafficLightSet@@UAEXXZ 0043e310 f   mmai:aiTrafficLight.obj
 0001:0003d3b0       ?Update@aiTrafficLightSet@@UAEXXZ 0043e3b0 f   mmai:aiTrafficLight.obj
 0001:0003d490       ?Init@aiTrafficLightInstance@@UAEHPADAAVVector3@@1H0@Z 0043e490 f   mmai:aiTrafficLight.obj
 0001:0003d690       ?Draw@aiTrafficLightInstance@@UAIXH@Z 0043e690 f   mmai:aiTrafficLight.obj
 0001:0003d7e0       ??_EaiTrafficLightSet@@UAEPAXI@Z 0043e7e0 f i mmai:aiTrafficLight.obj
 0001:0003d7e0       ??_GaiTrafficLightSet@@UAEPAXI@Z 0043e7e0 f i mmai:aiTrafficLight.obj
 0001:0003d810       ??0mmBangerInstance@@QAE@XZ 0043e810 f i mmai:aiTrafficLight.obj
 0001:0003d830       ??_GmmBangerInstance@@UAEPAXI@Z 0043e830 f i mmai:aiTrafficLight.obj
 0001:0003d830       ??_EmmBangerInstance@@UAEPAXI@Z 0043e830 f i mmai:aiTrafficLight.obj
 0001:0003d850       ??1mmBangerInstance@@UAE@XZ 0043e850 f i mmai:aiTrafficLight.obj
 0001:0003d860       ?SizeOf@mmUnhitBangerInstance@@UAEIXZ 0043e860 f i mmai:aiTrafficLight.obj
 0001:0003d870       ??_EaiTrafficLightInstance@@UAEPAXI@Z 0043e870 f i mmai:aiTrafficLight.obj
 0001:0003d870       ??_GaiTrafficLightInstance@@UAEPAXI@Z 0043e870 f i mmai:aiTrafficLight.obj
 0001:0003d890       ??1aiTrafficLightInstance@@UAE@XZ 0043e890 f i mmai:aiTrafficLight.obj
 0001:0003d8a0       ??0aiVehiclePolice@@QAE@XZ 0043e8a0 f   mmai:aiVehiclePolice.obj
 0001:0003d900       ??1aiVehiclePolice@@QAE@XZ 0043e900 f   mmai:aiVehiclePolice.obj
 0001:0003da40       ?Init@aiVehiclePolice@@QAEXHPAVaiRaceData@@@Z 0043ea40 f   mmai:aiVehiclePolice.obj
 0001:0003dc50       ?Reset@aiVehiclePolice@@UAEXXZ 0043ec50 f   mmai:aiVehiclePolice.obj
 0001:0003e2e0       ?ResetPed@aiVehiclePolice@@QAEXXZ 0043f2e0 f   mmai:aiVehiclePolice.obj
 0001:0003e4e0       ?Update@aiVehiclePolice@@UAEXXZ 0043f4e0 f   mmai:aiVehiclePolice.obj
 0001:0003eae0       ?InPersuit@aiVehiclePolice@@QAEHXZ 0043fae0 f   mmai:aiVehiclePolice.obj
 0001:0003eb10       ?IsPerpInRange@aiVehiclePolice@@QAEHPAVmmCar@@@Z 0043fb10 f   mmai:aiVehiclePolice.obj
 0001:0003ed80       ?FindPerp@aiVehiclePolice@@AAEHHHPAVaiPath@@HH@Z 0043fd80 f   mmai:aiVehiclePolice.obj
 0001:0003eec0       ?PerpEscapes@aiVehiclePolice@@QAEXE@Z 0043fec0 f   mmai:aiVehiclePolice.obj
 0001:0003ef30       ?ConfigCar@aiVehiclePolice@@QAEXXZ 0043ff30 f   mmai:aiVehiclePolice.obj
 0001:0003f030       ?Backup@aiVehiclePolice@@QAEXXZ 00440030 f   mmai:aiVehiclePolice.obj
 0001:0003f050       ?DrawTargetPt@aiVehiclePolice@@QAEXXZ 00440050 f   mmai:aiVehiclePolice.obj
 0001:0003f060       ?DrawDamage@aiVehiclePolice@@QAEXXZ 00440060 f   mmai:aiVehiclePolice.obj
 0001:0003f070       ?DrawId@aiVehiclePolice@@UAEXXZ 00440070 f   mmai:aiVehiclePolice.obj
 0001:0003f080       ?UnAssignSounds@aiVehiclePolice@@QAEXXZ 00440080 f   mmai:aiVehiclePolice.obj
 0001:0003f0a0       ?GetCarAudioPtr@aiVehiclePolice@@QAEPAVmmPoliceCarAudio@@XZ 004400a0 f   mmai:aiVehiclePolice.obj
 0001:0003f0b0       ?GetEngineSoundIndex@aiVehiclePolice@@QAEHXZ 004400b0 f   mmai:aiVehiclePolice.obj
 0001:0003f0c0       ?SetMainSirenLoop@aiVehiclePolice@@QAEXH@Z 004400c0 f   mmai:aiVehiclePolice.obj
 0001:0003f0e0       ?UpdateAudio@aiVehiclePolice@@QAEXXZ 004400e0 f   mmai:aiVehiclePolice.obj
 0001:0003f1a0       ?GetDistanceToPlayer2@aiVehiclePolice@@QAEMXZ 004401a0 f   mmai:aiVehiclePolice.obj
 0001:0003f1b0       ?PlayVoice@aiVehiclePolice@@QAEXXZ 004401b0 f   mmai:aiVehiclePolice.obj
 0001:0003f1c0       ?SetAudioMinDistance@aiVehiclePolice@@QAEXM@Z 004401c0 f   mmai:aiVehiclePolice.obj
 0001:0003f1e0       ?SetAudioMaxDistance@aiVehiclePolice@@QAEXM@Z 004401e0 f   mmai:aiVehiclePolice.obj
 0001:0003f210       ?SetAudioCloserMinDistMult@aiVehiclePolice@@QAEXM@Z 00440210 f   mmai:aiVehiclePolice.obj
 0001:0003f230       ?AddToAiAudMgr@aiVehiclePolice@@AAEXXZ 00440230 f   mmai:aiVehiclePolice.obj
 0001:0003f2a0       ?AssignSounds@aiVehiclePolice@@QAEXPAVAudSound@@000PAVmmOpponentImpactAudio@@0@Z 004402a0 f   mmai:aiVehiclePolice.obj
 0001:0003f2d0       ?GetAudioPtr@aiVehiclePolice@@QAEPAVmmPoliceCarAudio@@XZ 004402d0 f   mmai:aiVehiclePolice.obj
 0001:0003f2e0       ?Dump@aiVehiclePolice@@QAEXXZ 004402e0 f   mmai:aiVehiclePolice.obj
 0001:0003f510       ?GetImpactAudioPtr@aiVehicleSpline@@UAEPAVmmOpponentImpactAudio@@XZ 00440510 f i mmai:aiVehiclePolice.obj
 0001:0003f520       ?PlayHorn@aiVehicleSpline@@UAEXMM@Z 00440520 f i mmai:aiVehiclePolice.obj
 0001:0003f530       ?ImpactAudioReaction@aiVehicleSpline@@UAEXM@Z 00440530 f i mmai:aiVehiclePolice.obj
 0001:0003f540       ?StopVoice@aiVehicleSpline@@UAEXXZ 00440540 f i mmai:aiVehiclePolice.obj
 0001:0003f550       ?Type@aiVehiclePolice@@UAEHXZ 00440550 f i mmai:aiVehiclePolice.obj
 0001:0003f560       ??0aiRaceData@@QAE@PAD0@Z  00440560 f   mmai:aiData.obj
 0001:0003fa40       ??1aiRaceData@@QAE@XZ      00440a40 f   mmai:aiData.obj
 0001:0003fb30       ??1CArrayList@@QAE@XZ      00440b30 f   mmai:arraylist.obj
 0001:0003fb50       ?Append@CArrayList@@QAEXH@Z 00440b50 f   mmai:arraylist.obj
 0001:0003fbb0       ??0aiPedAudioManager@@QAE@XZ 00440bb0 f   mmai:aipedaudiomanager.obj
 0001:0003feb0       ??1aiPedAudioManager@@UAE@XZ 00440eb0 f   mmai:aipedaudiomanager.obj
 0001:0003ff60       ?Add@aiPedAudioManager@@QAEFPAVaiPedestrian@@@Z 00440f60 f   mmai:aipedaudiomanager.obj
 0001:00040010       ?Remove@aiPedAudioManager@@QAEXPAVaiPedestrian@@F@Z 00441010 f   mmai:aipedaudiomanager.obj
 0001:00040080       ?FindGreatestDistance@aiPedAudioManager@@QAEFPAVaiPedestrian@@@Z 00441080 f   mmai:aipedaudiomanager.obj
 0001:00040110       ?FindUnusedSlot@aiPedAudioManager@@QAEFXZ 00441110 f   mmai:aipedaudiomanager.obj
 0001:00040150       ?Update@aiPedAudioManager@@UAEXXZ 00441150 f   mmai:aipedaudiomanager.obj
 0001:000401b0       ?AssignSounds@aiPedAudioManager@@QAEXF@Z 004411b0 f   mmai:aipedaudiomanager.obj
 0001:000401d0       ?RandomizeSeconds@aiPedAudioManager@@QAEXMM@Z 004411d0 f   mmai:aipedaudiomanager.obj
 0001:000401e0       ??_EaiPedAudioManager@@UAEPAXI@Z 004411e0 f i mmai:aipedaudiomanager.obj
 0001:000401e0       ??_GaiPedAudioManager@@UAEPAXI@Z 004411e0 f i mmai:aipedaudiomanager.obj
 0001:00040210       ??0aiIntersection@@QAE@H@Z 00441210 f   mmai:aiIntersection.obj
 0001:00040230       ??1aiIntersection@@QAE@XZ  00441230 f   mmai:aiIntersection.obj
 0001:000402a0       ?Init@aiIntersection@@QAEXXZ 004412a0 f   mmai:aiIntersection.obj
 0001:00040450       ?Reset@aiIntersection@@QAEXXZ 00441450 f   mmai:aiIntersection.obj
 0001:00040460       ?AddSinkPath@aiIntersection@@QAEXPAVaiPath@@@Z 00441460 f   mmai:aiIntersection.obj
 0001:000404d0       ?AddSourcePath@aiIntersection@@QAEXPAVaiPath@@@Z 004414d0 f   mmai:aiIntersection.obj
 0001:00040540       ?SaveBinary@aiIntersection@@QAEXPAVStream@@@Z 00441540 f   mmai:aiIntersection.obj
 0001:00040610       ?ReadBinary@aiIntersection@@QAEXPAVStream@@@Z 00441610 f   mmai:aiIntersection.obj
 0001:000407b0       ?Dump@aiIntersection@@QAEXXZ 004417b0 f   mmai:aiIntersection.obj
 0001:000407e0       ?CreateRoadMap@aiIntersection@@QAEXXZ 004417e0 f   mmai:aiIntersection.obj
 0001:00040b10       ?Path@aiIntersection@@QAEPAVaiPath@@H@Z 00441b10 f   mmai:aiIntersection.obj
 0001:00040b80       ??0aiPedestrian@@QAE@XZ    00441b80 f   mmai:aiPedestrian.obj
 0001:00040c60       ??1aiPedestrian@@QAE@XZ    00441c60 f   mmai:aiPedestrian.obj
 0001:00040c70       ?Init@aiPedestrian@@QAEXPADHH@Z 00441c70 f   mmai:aiPedestrian.obj
 0001:00040fd0       ?Reset@aiPedestrian@@QAEXPAVaiPath@@@Z 00441fd0 f   mmai:aiPedestrian.obj
 0001:00041300       ?Update@aiPedestrian@@QAEXXZ 00442300 f   mmai:aiPedestrian.obj
 0001:000426f0       ?Wander@aiPedestrian@@AAEXXZ 004436f0 f   mmai:aiPedestrian.obj
 0001:00042b40       ?Anticipate@aiPedestrian@@AAEXAAVmmIntersection@@H@Z 00443b40 f   mmai:aiPedestrian.obj
 0001:00042d60       ?Avoid@aiPedestrian@@AAEXAAVmmIntersection@@PAM@Z 00443d60 f   mmai:aiPedestrian.obj
 0001:00043160       ?TimeToCollision@aiPedestrian@@AAEMM@Z 00444160 f   mmai:aiPedestrian.obj
 0001:00043180       ?DetectPlayerForwardCollision@aiPedestrian@@AAEHPAM0@Z 00444180 f   mmai:aiPedestrian.obj
 0001:00043360       ?DetectPlayerAnticipate@aiPedestrian@@AAEHPAM0@Z 00444360 f   mmai:aiPedestrian.obj
 0001:00043520       ?RoadDistance@aiPedestrian@@AAEMXZ 00444520 f   mmai:aiPedestrian.obj
 0001:00043c20       ?SolveRoadSegment@aiPedestrian@@AAEXM@Z 00444c20 f   mmai:aiPedestrian.obj
 0001:00043d60       ?PickNextRdSeg@aiPedestrian@@AAEPAVaiPath@@XZ 00444d60 f   mmai:aiPedestrian.obj
 0001:00043f50       ?DetectPlayerCollision@aiPedestrian@@AAEHPAM@Z 00444f50 f   mmai:aiPedestrian.obj
 0001:000442b0       ?DetectBangerCollision@aiPedestrian@@AAEHPAPAVmmInstance@@PAMM@Z 004452b0 f   mmai:aiPedestrian.obj
 0001:000448a0       ?DetectBangerObstacle@aiPedestrian@@AAEPAVmmInstance@@XZ 004458a0 f   mmai:aiPedestrian.obj
 0001:00044a10       ?DetectPedObstacle@aiPedestrian@@AAEPAV1@XZ 00445a10 f   mmai:aiPedestrian.obj
 0001:00044a90       ?DetectPedCollision@aiPedestrian@@AAEHMPAPAV1@PAM@Z 00445a90 f   mmai:aiPedestrian.obj
 0001:00044f70       ?AvoidPlayer@aiPedestrian@@AAEXAAVVector3@@M@Z 00445f70 f   mmai:aiPedestrian.obj
 0001:00045000       ?AvoidBanger@aiPedestrian@@AAEXPAVmmInstance@@M@Z 00446000 f   mmai:aiPedestrian.obj
 0001:000450f0       ?AvoidPedCollision@aiPedestrian@@AAEXPAV1@M@Z 004460f0 f   mmai:aiPedestrian.obj
 0001:000451e0       ?AvoidObstacle@aiPedestrian@@AAEXAAVVector3@@M@Z 004461e0 f   mmai:aiPedestrian.obj
 0001:00045500       ?SolveTargetPoint@aiPedestrian@@AAEXM@Z 00446500 f   mmai:aiPedestrian.obj
 0001:00045570       ?CalcCurve@aiPedestrian@@AAEXHHM@Z 00446570 f   mmai:aiPedestrian.obj
 0001:00045c20       ?ComputeCurve@aiPedestrian@@AAEXAAVVector3@@000@Z 00446c20 f   mmai:aiPedestrian.obj
 0001:00045cd0       ?SolvePosition@aiPedestrian@@AAEXAAVVector3@@M@Z 00446cd0 f   mmai:aiPedestrian.obj
 0001:00045d20       ?PlayVoice@aiPedestrian@@QAEXF@Z 00446d20 f   mmai:aiPedestrian.obj
 0001:00045df0       ?CalculateDistToPlayer2@aiPedestrian@@QAEXXZ 00446df0 f   mmai:aiPedestrian.obj
 0001:00045e40       ?CalculateAudioPanning@aiPedestrian@@QAEXXZ 00446e40 f   mmai:aiPedestrian.obj
 0001:00045e90       ?UpdateAudio@aiPedestrian@@QAEXXZ 00446e90 f   mmai:aiPedestrian.obj
 0001:00045f60       ?SetVoiceSoundPtr@aiPedestrian@@QAEXPAVAudSound@@@Z 00446f60 f   mmai:aiPedestrian.obj
 0001:00045f70       ?UnAssignSounds@aiPedestrian@@QAEXXZ 00446f70 f   mmai:aiPedestrian.obj
 0001:00045fb0       ?Reset@aiPedestrian@@QAEXXZ 00446fb0 f   mmai:aiPedestrian.obj
 0001:00045fe0       ?Stop@aiPedestrian@@QAEXXZ 00446fe0 f   mmai:aiPedestrian.obj
 0001:00046020       ?Go@aiPedestrian@@QAEXXZ   00447020 f   mmai:aiPedestrian.obj
 0001:00046060       ?Dump@aiPedestrian@@QAEXXZ 00447060 f   mmai:aiPedestrian.obj
 0001:00046230       ?DrawDebug@aiPedestrian@@QAEXXZ 00447230 f   mmai:aiPedestrian.obj
 0001:00046240       ?GetRoamVoiceIndex@aiPedestrian@@AAEFXZ 00447240 f   mmai:aiPedestrian.obj
 0001:00046410       ?GetRaceVoiceIndex@aiPedestrian@@AAEFXZ 00447410 f   mmai:aiPedestrian.obj
 0001:000465b0       ?ToMatrix@aiPedestrianInstance@@UAIAAVMatrix34@@AAV2@@Z 004475b0 f i mmai:aiPedestrian.obj
 0001:000465c0       ?FromMatrix@aiPedestrianInstance@@UAIXABVMatrix34@@@Z 004475c0 f i mmai:aiPedestrian.obj
 0001:000465d0       ?GetPos@aiPedestrianInstance@@UAIAAVVector3@@XZ 004475d0 f i mmai:aiPedestrian.obj
 0001:000465e0       ?ComputeLod@aiPedestrianInstance@@UAEHMM@Z 004475e0 f i mmai:aiPedestrian.obj
 0001:00046610       ?Draw@aiPedestrianInstance@@UAIXH@Z 00447610 f i mmai:aiPedestrian.obj
 0001:00046700       ?DrawShadow@aiPedestrianInstance@@UAIXXZ 00447700 f i mmai:aiPedestrian.obj
 0001:000467d0       ?AddWidgets@aiPedestrianInstance@@UAEXPAVBank@@@Z 004477d0 f i mmai:aiPedestrian.obj
 0001:000467e0       ??_GaiPedestrianInstance@@UAEPAXI@Z 004477e0 f i mmai:aiPedestrian.obj
 0001:000467e0       ??_EaiPedestrianInstance@@UAEPAXI@Z 004477e0 f i mmai:aiPedestrian.obj
 0001:00046800       ??1aiPedestrianInstance@@UAE@XZ 00447800 f i mmai:aiPedestrian.obj
 0001:00046810       ??0aiVehicleOpponent@@QAE@XZ 00447810 f   mmai:aiVehicleOpponent.obj
 0001:00046870       ??1aiVehicleOpponent@@QAE@XZ 00447870 f   mmai:aiVehicleOpponent.obj
 0001:000469a0       ?Init@aiVehicleOpponent@@QAEXHPAVaiRaceData@@PAD@Z 004479a0 f   mmai:aiVehicleOpponent.obj
 0001:00046bb0       ?Reset@aiVehicleOpponent@@UAEXXZ 00447bb0 f   mmai:aiVehicleOpponent.obj
 0001:00046c70       ?Update@aiVehicleOpponent@@UAEXXZ 00447c70 f   mmai:aiVehicleOpponent.obj
 0001:00046da0       ?Dump@aiVehicleOpponent@@QAEXXZ 00447da0 f   mmai:aiVehicleOpponent.obj
 0001:00046e40       ?UnAssignSounds@aiVehicleOpponent@@QAEXXZ 00447e40 f   mmai:aiVehicleOpponent.obj
 0001:00046e60       ?GetEngineSoundIndex@aiVehicleOpponent@@QAEHXZ 00447e60 f   mmai:aiVehicleOpponent.obj
 0001:00046e70       ?DrawTargetPt@aiVehicleOpponent@@QAEXXZ 00447e70 f   mmai:aiVehicleOpponent.obj
 0001:00046e80       ?DrawDamage@aiVehicleOpponent@@QAEXXZ 00447e80 f   mmai:aiVehicleOpponent.obj
 0001:00046e90       ?DrawId@aiVehicleOpponent@@UAEXXZ 00447e90 f   mmai:aiVehicleOpponent.obj
 0001:00046ea0       ?UpdateAudio@aiVehicleOpponent@@QAEXXZ 00447ea0 f   mmai:aiVehicleOpponent.obj
 0001:00046f40       ?GetDistanceToPlayer2@aiVehicleOpponent@@QAEMXZ 00447f40 f   mmai:aiVehicleOpponent.obj
 0001:00046f50       ?SetAudioMinDistance@aiVehicleOpponent@@QAEXM@Z 00447f50 f   mmai:aiVehicleOpponent.obj
 0001:00046f70       ?SetAudioMaxDistance@aiVehicleOpponent@@QAEXM@Z 00447f70 f   mmai:aiVehicleOpponent.obj
 0001:00046fa0       ?SetAudioCloserMinDistMult@aiVehicleOpponent@@QAEXM@Z 00447fa0 f   mmai:aiVehicleOpponent.obj
 0001:00046fc0       ?GetCarAudioPtr@aiVehicleOpponent@@QAEPAVmmOpponentCarAudio@@XZ 00447fc0 f   mmai:aiVehicleOpponent.obj
 0001:00046fd0       ?AddToAiAudMgr@aiVehicleOpponent@@AAEXXZ 00447fd0 f   mmai:aiVehicleOpponent.obj
 0001:00047030       ?AddWidget@aiVehicleOpponent@@QAEXPAVBank@@@Z 00448030 f   mmai:aiVehicleOpponent.obj
 0001:00047040       ?AssignSounds@aiVehicleOpponent@@QAEXPAVAudSound@@0PAVmmOpponentImpactAudio@@0@Z 00448040 f   mmai:aiVehicleOpponent.obj
 0001:00047070       ?DeclareFields@aiVehicleOpponent@@SAXXZ 00448070 f   mmai:aiVehicleOpponent.obj
 0001:00047200       ?GetClass@aiVehicleOpponent@@UAEPAVMetaClass@@XZ 00448200 f   mmai:aiVehicleOpponent.obj
 0001:00047360       ?Type@aiVehicleOpponent@@UAEHXZ 00448360 f i mmai:aiVehicleOpponent.obj
 0001:00047370       ??0aiPoliceForce@@QAE@XZ   00448370 f   mmai:aiPoliceForce.obj
 0001:00047390       ??1aiPoliceForce@@QAE@XZ   00448390 f   mmai:aiPoliceForce.obj
 0001:000473a0       ?Reset@aiPoliceForce@@QAEXXZ 004483a0 f   mmai:aiPoliceForce.obj
 0001:000473e0       ?Update@aiPoliceForce@@QAEXXZ 004483e0 f   mmai:aiPoliceForce.obj
 0001:000473f0       ?Find@aiPoliceForce@@QAEHPAVmmCar@@0@Z 004483f0 f   mmai:aiPoliceForce.obj
 0001:00047460       ?RegisterPerp@aiPoliceForce@@QAEHPAVmmCar@@0@Z 00448460 f   mmai:aiPoliceForce.obj
 0001:00047500       ?UnRegisterCop@aiPoliceForce@@QAEHPAVmmCar@@0@Z 00448500 f   mmai:aiPoliceForce.obj
 0001:000475f0       ?State@aiPoliceForce@@QAEHPAVmmCar@@0M@Z 004485f0 f   mmai:aiPoliceForce.obj
 0001:000477f0       ??0aiVehicleAmbient@@QAE@XZ 004487f0 f   mmai:aiVehicleAmbient.obj
 0001:000478d0       ??1aiVehicleAmbient@@QAE@XZ 004488d0 f   mmai:aiVehicleAmbient.obj
 0001:000479a0       ?Init@aiVehicleAmbient@@QAEXPADH@Z 004489a0 f   mmai:aiVehicleAmbient.obj
 0001:00047d90       ?Reset@aiVehicleAmbient@@UAEXXZ 00448d90 f   mmai:aiVehicleAmbient.obj
 0001:00047e70       ?Update@aiVehicleAmbient@@UAEXXZ 00448e70 f   mmai:aiVehicleAmbient.obj
 0001:00048020       ?Impact@aiVehicleAmbient@@UAEXH@Z 00449020 f   mmai:aiVehicleAmbient.obj
 0001:000480d0       ?UnAssignSounds@aiVehicleAmbient@@QAEXXZ 004490d0 f   mmai:aiVehicleAmbient.obj
 0001:000481b0       ?CalculateDoppler@aiVehicleAmbient@@AAEMM@Z 004491b0 f   mmai:aiVehicleAmbient.obj
 0001:000481e0       ?CalculateFerrariPitch@aiVehicleAmbient@@AAEMMH@Z 004491e0 f   mmai:aiVehicleAmbient.obj
 0001:000483b0       ?UpdateAudio@aiVehicleAmbient@@QAEXXZ 004493b0 f   mmai:aiVehicleAmbient.obj
 0001:000483e0       ?UpdateAudio@aiVehicleAmbient@@AAEXM@Z 004493e0 f   mmai:aiVehicleAmbient.obj
 0001:00048770       ?CalculateDistToPlayer2@aiVehicleAmbient@@QAEXXZ 00449770 f   mmai:aiVehicleAmbient.obj
 0001:00048880       ?CalculateAudioPanning@aiVehicleAmbient@@QAEXXZ 00449880 f   mmai:aiVehicleAmbient.obj
 0001:00048910       ?DrawId@aiVehicleAmbient@@UAEXXZ 00449910 f   mmai:aiVehicleAmbient.obj
 0001:00048920       ?DrawBBox@aiVehicleAmbient@@QAEXF@Z 00449920 f   mmai:aiVehicleAmbient.obj
 0001:00048930       ?StopHorn@aiVehicleAmbient@@QAEXXZ 00449930 f   mmai:aiVehicleAmbient.obj
 0001:00048960       ?PlayVoice@aiVehicleAmbient@@QAEXXZ 00449960 f   mmai:aiVehicleAmbient.obj
 0001:00048bb0       ?PlayHorn@aiVehicleAmbient@@QAEXXZ 00449bb0 f   mmai:aiVehicleAmbient.obj
 0001:00048e00       ?PlayHorn@aiVehicleAmbient@@UAEXMM@Z 00449e00 f   mmai:aiVehicleAmbient.obj
 0001:00048ef0       ?PlayTrippleHorn@aiVehicleAmbient@@QAEXM@Z 00449ef0 f   mmai:aiVehicleAmbient.obj
 0001:00048fd0       ?UpdateHorn@aiVehicleAmbient@@QAEXXZ 00449fd0 f   mmai:aiVehicleAmbient.obj
 0001:00049270       ?StopVoice@aiVehicleAmbient@@UAEXXZ 0044a270 f   mmai:aiVehicleAmbient.obj
 0001:000492b0       ?UpdateAudImpactReaction@aiVehicleAmbient@@QAEXXZ 0044a2b0 f   mmai:aiVehicleAmbient.obj
 0001:000492f0       ?ImpactAudioReaction@aiVehicleAmbient@@UAEXM@Z 0044a2f0 f   mmai:aiVehicleAmbient.obj
 0001:00049350       ?ImpactAudioReaction@aiVehicleAmbient@@AAEXXZ 0044a350 f   mmai:aiVehicleAmbient.obj
 0001:00049430       ?PlayDoubleHorn@aiVehicleAmbient@@QAEXM@Z 0044a430 f   mmai:aiVehicleAmbient.obj
 0001:00049500       ?AddToAiAudMgr@aiVehicleAmbient@@AAEXXZ 0044a500 f   mmai:aiVehicleAmbient.obj
 0001:000495e0       ?SetAudioMaxDistance@aiVehicleAmbient@@SAXM@Z 0044a5e0 f   mmai:aiVehicleAmbient.obj
 0001:00049600       ?UpdateDSound3DAudio@aiVehicleAmbient@@AAEXXZ 0044a600 f   mmai:aiVehicleAmbient.obj
 0001:00049840       ?AssignSounds@aiVehicleAmbient@@QAEXPAVAudSound@@00PAVmmOpponentImpactAudio@@@Z 0044a840 f   mmai:aiVehicleAmbient.obj
 0001:00049990       ?GetSecsSinceImpactReaction@aiVehicleAmbient@@SAMXZ 0044a990 f   mmai:aiVehicleAmbient.obj
 0001:000499a0       ?Dump@aiVehicleAmbient@@QAEXXZ 0044a9a0 f   mmai:aiVehicleAmbient.obj
 0001:00049b30       ?Type@aiVehicleAmbient@@UAEHXZ 0044ab30 f i mmai:aiVehicleAmbient.obj
 0001:00049b40       ?GetImpactAudioPtr@aiVehicleAmbient@@UAEPAVmmOpponentImpactAudio@@XZ 0044ab40 f i mmai:aiVehicleAmbient.obj
 0001:00049c30       ?AMBIENTCB@@YAXPAVaiVehicleActive@@PAVasBound@@PAVmmIntersection@@PAVVector3@@M@Z 0044ac30 f   mmai:aiVehicleMGR.obj
 0001:00049dc0       ?Draw@aiVehicleInstance@@UAIXH@Z 0044adc0 f   mmai:aiVehicleMGR.obj
 0001:0004a5c0       ?DrawGlow@aiVehicleInstance@@UAIXXZ 0044b5c0 f   mmai:aiVehicleMGR.obj
 0001:0004a610       ?DrawShadow@aiVehicleInstance@@UAIXXZ 0044b610 f   mmai:aiVehicleMGR.obj
 0001:0004a6b0       ?GetEntity@aiVehicleInstance@@UAEPAVmmPhysEntity@@XZ 0044b6b0 f   mmai:aiVehicleMGR.obj
 0001:0004a6e0       ?Detach@aiVehicleInstance@@UAEXXZ 0044b6e0 f   mmai:aiVehicleMGR.obj
 0001:0004a710       ?AttachEntity@aiVehicleInstance@@UAEPAVmmPhysEntity@@XZ 0044b710 f   mmai:aiVehicleMGR.obj
 0001:0004a770       ?GetVelocity@aiVehicleInstance@@UAE?AVVector3@@XZ 0044b770 f   mmai:aiVehicleMGR.obj
 0001:0004a830       ?FromMatrix@aiVehicleInstance@@UAIXABVMatrix34@@@Z 0044b830 f   mmai:aiVehicleMGR.obj
 0001:0004a840       ?ToMatrix@aiVehicleInstance@@UAIAAVMatrix34@@AAV2@@Z 0044b840 f   mmai:aiVehicleMGR.obj
 0001:0004a850       ?GetPos@aiVehicleInstance@@UAIAAVVector3@@XZ 0044b850 f   mmai:aiVehicleMGR.obj
 0001:0004a860       ??0aiVehicleActive@@QAE@XZ 0044b860 f   mmai:aiVehicleMGR.obj
 0001:0004a950       ?Init@aiVehicleActive@@QAEXPAD@Z 0044b950 f   mmai:aiVehicleMGR.obj
 0001:0004ac00       ??1aiVehicleActive@@UAE@XZ 0044bc00 f   mmai:aiVehicleMGR.obj
 0001:0004acf0       ?Attach@aiVehicleActive@@QAEXPAVaiVehicleInstance@@@Z 0044bcf0 f   mmai:aiVehicleMGR.obj
 0001:0004aea0       ?DetachMe@aiVehicleActive@@UAEXXZ 0044bea0 f   mmai:aiVehicleMGR.obj
 0001:0004aec0       ?Detach@aiVehicleActive@@QAEXXZ 0044bec0 f   mmai:aiVehicleMGR.obj
 0001:0004b090       ?Update@aiVehicleActive@@UAEXXZ 0044c090 f   mmai:aiVehicleMGR.obj
 0001:0004b100       ?PostUpdate@aiVehicleActive@@UAEXXZ 0044c100 f   mmai:aiVehicleMGR.obj
 0001:0004b180       ?UpdateDamage@aiVehicleActive@@QAEXXZ 0044c180 f   mmai:aiVehicleMGR.obj
 0001:0004b1e0       ??0aiVehicleManager@@QAE@XZ 0044c1e0 f   mmai:aiVehicleMGR.obj
 0001:0004b2c0       ??1aiVehicleManager@@UAE@XZ 0044c2c0 f   mmai:aiVehicleMGR.obj
 0001:0004b360       ?Init@aiVehicleManager@@QAEXPAD@Z 0044c360 f   mmai:aiVehicleMGR.obj
 0001:0004b390       ?Reset@aiVehicleManager@@UAEXXZ 0044c390 f   mmai:aiVehicleMGR.obj
 0001:0004b3d0       ?Attach@aiVehicleManager@@QAEPAVaiVehicleActive@@PAVaiVehicleInstance@@@Z 0044c3d0 f   mmai:aiVehicleMGR.obj
 0001:0004b490       ?Detach@aiVehicleManager@@QAEXPAVaiVehicleActive@@@Z 0044c490 f   mmai:aiVehicleMGR.obj
 0001:0004b520       ?Update@aiVehicleManager@@UAEXXZ 0044c520 f   mmai:aiVehicleMGR.obj
 0001:0004b610       ?LoadEntry@aiVehicleData@@QAEHPAD@Z 0044c610 f   mmai:aiVehicleMGR.obj
 0001:0004b7d0       ?GetData@aiVehicleInstance@@QAEPAVaiVehicleData@@XZ 0044c7d0 f   mmai:aiVehicleMGR.obj
 0001:0004b7f0       ?AddVehicleDataEntry@aiVehicleManager@@QAEHPAD@Z 0044c7f0 f   mmai:aiVehicleMGR.obj
 0001:0004baf0       ?Save@aiVehicleManager@@UAEXXZ 0044caf0 f   mmai:aiVehicleMGR.obj
 0001:0004bb20       ?DeclareFields@aiVehicleInstance@@SAXXZ 0044cb20 f   mmai:aiVehicleMGR.obj
 0001:0004bbc0       ?GetClass@aiVehicleInstance@@UAEPAVMetaClass@@XZ 0044cbc0 f   mmai:aiVehicleMGR.obj
 0001:0004bbd0       ?DeclareFields@aiVehicleData@@SAXXZ 0044cbd0 f   mmai:aiVehicleMGR.obj
 0001:0004bf10       ?GetClass@aiVehicleData@@UAEPAVMetaClass@@XZ 0044cf10 f   mmai:aiVehicleMGR.obj
 0001:0004bf20       ??_GaiVehicleActive@@UAEPAXI@Z 0044cf20 f i mmai:aiVehicleMGR.obj
 0001:0004bf20       ??_EaiVehicleActive@@UAEPAXI@Z 0044cf20 f i mmai:aiVehicleMGR.obj
 0001:0004bf50       ??1asInertialCS@@UAE@XZ    0044cf50 f i mmai:aiVehicleMGR.obj
 0001:0004bf60       ??1asBound@@UAE@XZ         0044cf60 f i mmai:aiVehicleMGR.obj
 0001:0004bf70       ??1mmWheelCheap@@UAE@XZ    0044cf70 f i mmai:aiVehicleMGR.obj
 0001:0004bf80       ??_GaiVehicleManager@@UAEPAXI@Z 0044cf80 f i mmai:aiVehicleMGR.obj
 0001:0004bf80       ??_EaiVehicleManager@@UAEPAXI@Z 0044cf80 f i mmai:aiVehicleMGR.obj
 0001:0004bfb0       ??_EaiVehicleData@@UAEPAXI@Z 0044cfb0 f i mmai:aiVehicleMGR.obj
 0001:0004c010       ?Update@mmPhysEntity@@UAEXXZ 0044d010 f i mmai:aiVehicleMGR.obj
 0001:0004c020       ?PostUpdate@mmPhysEntity@@UAEXXZ 0044d020 f i mmai:aiVehicleMGR.obj
 0001:0004c030       ?GetBound@mmPhysEntity@@UAEPAVasBound@@XZ 0044d030 f i mmai:aiVehicleMGR.obj
 0001:0004c040       ?GetICS@mmPhysEntity@@UAEPAVasInertialCS@@XZ 0044d040 f i mmai:aiVehicleMGR.obj
 0001:0004c050       ?DetachMe@mmPhysEntity@@UAEXXZ 0044d050 f i mmai:aiVehicleMGR.obj
 0001:0004c060       ??_EmmPhysEntity@@UAEPAXI@Z 0044d060 f i mmai:aiVehicleMGR.obj
 0001:0004c060       ??_GmmPhysEntity@@UAEPAXI@Z 0044d060 f i mmai:aiVehicleMGR.obj
 0001:0004c090       ??0aiVehicleData@@QAE@XZ   0044d090 f i mmai:aiVehicleMGR.obj
 0001:0004c0b0       ??1aiVehicleData@@UAE@XZ   0044d0b0 f i mmai:aiVehicleMGR.obj
 0001:0004c0c0       ?GetBound@aiVehicleActive@@UAEPAVasBound@@XZ 0044d0c0 f i mmai:aiVehicleMGR.obj
 0001:0004c0d0       ?GetICS@aiVehicleActive@@UAEPAVasInertialCS@@XZ 0044d0d0 f i mmai:aiVehicleMGR.obj
 0001:0004c0e0       ??1asBirthRule@@UAE@XZ     0044d0e0 f i mmai:aiVehicleMGR.obj
 0001:0004c110       ??0aiRailSet@@QAE@XZ       0044d110 f   mmai:aiRailSet.obj
 0001:0004c210       ??1aiRailSet@@QAE@XZ       0044d210 f   mmai:aiRailSet.obj
 0001:0004c220       ?CalcRailPosition@aiRailSet@@QAEXAAVVector3@@M@Z 0044d220 f   mmai:aiRailSet.obj
 0001:0004cc20       ?CalcCopRailPosition@aiRailSet@@QAEHAAVVector3@@0MM@Z 0044dc20 f   mmai:aiRailSet.obj
 0001:0004f070       ?CalcRailState@aiRailSet@@QAEHM@Z 00450070 f   mmai:aiRailSet.obj
 0001:0004f680       ?CalcRailLength@aiRailSet@@QAEMXZ 00450680 f   mmai:aiRailSet.obj
 0001:0004fb70       ?CalcTurnIntersection@aiRailSet@@QAEXAAVVector3@@HPAVaiPath@@1@Z 00450b70 f   mmai:aiRailSet.obj
 0001:0004ff80       ?DrawTurn@aiRailSet@@QAEXM@Z 00450f80 f   mmai:aiRailSet.obj
 0001:0004ff90       ?CalcRailPosOrient@aiRailSet@@QAEXAAVVector3@@0M@Z 00450f90 f   mmai:aiRailSet.obj
 0001:00050b30       ?SolveNextLane@aiRailSet@@QAEXXZ 00451b30 f   mmai:aiRailSet.obj
 0001:00050bb0       ?SolveTurnType@aiRailSet@@QAEHPAVaiPath@@0@Z 00451bb0 f   mmai:aiRailSet.obj
 0001:00050d70       ?CalcXZPosition@aiRailSet@@QAEXAAVVector3@@0000M@Z 00451d70 f   mmai:aiRailSet.obj
 0001:00050e80       ?CalcXZDirection@aiRailSet@@QAEXAAVVector3@@0000M@Z 00451e80 f   mmai:aiRailSet.obj
 0001:00050fa0       ?CalcXZPosOrient@aiRailSet@@QAEXAAVVector3@@00000M@Z 00451fa0 f   mmai:aiRailSet.obj
 0001:000510e0       ?ComputeXZCurve@aiRailSet@@QAEXAAVVector3@@000@Z 004520e0 f   mmai:aiRailSet.obj
 0001:00051190       ?ComputeXZCurve@aiRailSet@@QAEXAAVVector3@@000AAVVector4@@1@Z 00452190 f   mmai:aiRailSet.obj
 0001:00051230       ?SolveXZCurve@aiRailSet@@QAEXAAVVector3@@0M@Z 00452230 f   mmai:aiRailSet.obj
 0001:000512c0       ?SolveXZPosition@aiRailSet@@QAEXAAVVector3@@M@Z 004522c0 f   mmai:aiRailSet.obj
 0001:00051300       ?Dump@aiRailSet@@QAEXXZ    00452300 f   mmai:aiRailSet.obj
 0001:00051540       ??HVector3@@QBE?AV0@ABV0@@Z 00452540 f i mmai:aiRailSet.obj
 0001:00051570       ??DVector3@@QBE?AV0@M@Z    00452570 f i mmai:aiRailSet.obj
 0001:000515a0       ??D@YA?AVVector3@@MABV0@@Z 004525a0 f i mmai:aiRailSet.obj
 0001:000515e0       ??TVector3@@QBEMABV0@@Z    004525e0 f i mmai:aiRailSet.obj
 0001:00051610       ??GVector3@@QBE?AV0@XZ     00452610 f i mmai:aiRailSet.obj
 0001:00051630       ?LBoundary@aiPath@@QAEPAVVector3@@H@Z 00452630 f i mmai:aiRailSet.obj
 0001:00051680       ??0aiVehicleSpline@@QAE@XZ 00452680 f   mmai:aiVehicleSpline.obj
 0001:000516f0       ??1aiVehicleSpline@@QAE@XZ 004526f0 f   mmai:aiVehicleSpline.obj
 0001:00051760       ?Init@aiVehicleSpline@@QAEXPADH@Z 00452760 f   mmai:aiVehicleSpline.obj
 0001:00051a50       ?Reset@aiVehicleSpline@@UAEXXZ 00452a50 f   mmai:aiVehicleSpline.obj
 0001:00051a90       ?Update@aiVehicleSpline@@UAEXXZ 00452a90 f   mmai:aiVehicleSpline.obj
 0001:00051ae0       ?ResetReactTicks@aiVehicleSpline@@QAEXXZ 00452ae0 f   mmai:aiVehicleSpline.obj
 0001:00051b40       ?SolvePositionAndOrientation@aiVehicleSpline@@QAEXXZ 00452b40 f   mmai:aiVehicleSpline.obj
 0001:00052250       ?SolveYPositionAndOrientation@aiVehicleSpline@@QAEXXZ 00453250 f   mmai:aiVehicleSpline.obj
 0001:000527e0       ?DetectPlayerForwardCollision@aiVehicleSpline@@QAEHXZ 004537e0 f   mmai:aiVehicleSpline.obj
 0001:000528d0       ?DetectPlayerTargetPtCollision@aiVehicleSpline@@QAEHXZ 004538d0 f   mmai:aiVehicleSpline.obj
 0001:00052a10       ?DetectPlayerCollision@aiVehicleSpline@@QAEHHM@Z 00453a10 f   mmai:aiVehicleSpline.obj
 0001:00053010       ?DetectPlayerZoneCollision@aiVehicleSpline@@QAEHXZ 00454010 f   mmai:aiVehicleSpline.obj
 0001:00053200       ?IsThePlayerInFrontOfMe@aiVehicleSpline@@QAEHXZ 00454200 f   mmai:aiVehicleSpline.obj
 0001:00053300       ?IsAmbientBlockingPlayer@aiVehicleSpline@@QAEHXZ 00454300 f   mmai:aiVehicleSpline.obj
 0001:000533f0       ?AvoidPlayerCollision@aiVehicleSpline@@QAEXXZ 004543f0 f   mmai:aiVehicleSpline.obj
 0001:00053470       ?WaitTime@aiVehicleSpline@@QAEHXZ 00454470 f   mmai:aiVehicleSpline.obj
 0001:00053490       ?TotLength@aiVehicleSpline@@QAEMXZ 00454490 f   mmai:aiVehicleSpline.obj
 0001:000534a0       ?Impact@aiVehicleSpline@@UAEXH@Z 004544a0 f   mmai:aiVehicleSpline.obj
 0001:000534b0       ?DistanceToVehicle@aiVehicleSpline@@QAEMPAV1@@Z 004544b0 f   mmai:aiVehicleSpline.obj
 0001:00053790       ?DistanceToIntersection@aiVehicleSpline@@QAEMXZ 00454790 f   mmai:aiVehicleSpline.obj
 0001:00053830       ?Dump@aiVehicleSpline@@QAEXXZ 00454830 f   mmai:aiVehicleSpline.obj
 0001:00053990       ?AddWidgets@aiVehicleSpline@@QAEXPAVBank@@@Z 00454990 f   mmai:aiVehicleSpline.obj
 0001:000539a0       ?DrawId@aiVehicleSpline@@UAEXXZ 004549a0 f   mmai:aiVehicleSpline.obj
 0001:000539b0       ?DeclareFields@aiVehicleSpline@@SAXXZ 004549b0 f   mmai:aiVehicleSpline.obj
 0001:00053b40       ?GetClass@aiVehicleSpline@@UAEPAVMetaClass@@XZ 00454b40 f   mmai:aiVehicleSpline.obj
 0001:00053b80       ??LVector3@@QBE?AV0@ABV0@@Z 00454b80 f i mmai:aiVehicleSpline.obj
 0001:00053bd0       ?Scale@Vector3@@QAEXABV1@M@Z 00454bd0 f i mmai:aiVehicleSpline.obj
 0001:00053c00       ??_EaiVehicleSpline@@QAEPAXI@Z 00454c00 f i mmai:aiVehicleSpline.obj
 0001:00053c60       ?Type@aiVehicleSpline@@UAEHXZ 00454c60 f i mmai:aiVehicleSpline.obj
 0001:00053c70       ??_GaiVehicleInstance@@UAEPAXI@Z 00454c70 f i mmai:aiVehicleSpline.obj
 0001:00053c70       ??_EaiVehicleInstance@@UAEPAXI@Z 00454c70 f i mmai:aiVehicleSpline.obj
 0001:00053c90       ??1aiVehicleInstance@@UAE@XZ 00454c90 f i mmai:aiVehicleSpline.obj
 0001:00053ca0       ??0AddOnCarAudio@@QAE@PADF@Z 00454ca0 f   mmai:addoncaraudio.obj
 0001:00053dd0       ??1AddOnCarAudio@@QAE@XZ   00454dd0 f   mmai:addoncaraudio.obj
 0001:00053e20       ?GetEngineSoundPtr@AddOnCarAudio@@QAEPAVAudSound@@F@Z 00454e20 f   mmai:addoncaraudio.obj
 0001:00053e40       ?EchoOn@AddOnCarAudio@@QAEXM@Z 00454e40 f   mmai:addoncaraudio.obj
 0001:00053e90       ?EchoOff@AddOnCarAudio@@QAEXXZ 00454e90 f   mmai:addoncaraudio.obj
 0001:00053ec0       ?Update@AddOnCarAudio@@QAEXXZ 00454ec0 f   mmai:addoncaraudio.obj
 0001:00053f20       ??0aiGoalRandomDrive@@QAE@PAVaiRailSet@@PAVaiVehicleSpline@@@Z 00454f20 f   mmai:aiGoalRandomDrive.obj
 0001:00053fe0       ??1aiGoalRandomDrive@@QAE@XZ 00454fe0 f   mmai:aiGoalRandomDrive.obj
 0001:00053ff0       ?Init@aiGoalRandomDrive@@UAEXXZ 00454ff0 f   mmai:aiGoalRandomDrive.obj
 0001:00054010       ?Reset@aiGoalRandomDrive@@UAEXXZ 00455010 f   mmai:aiGoalRandomDrive.obj
 0001:00054a60       ?Update@aiGoalRandomDrive@@UAEXXZ 00455a60 f   mmai:aiGoalRandomDrive.obj
 0001:00054b80       ?Context@aiGoalRandomDrive@@UAEHXZ 00455b80 f   mmai:aiGoalRandomDrive.obj
 0001:00054ba0       ?Priority@aiGoalRandomDrive@@UAEHXZ 00455ba0 f   mmai:aiGoalRandomDrive.obj
 0001:00054bb0       ?SolveVelocity@aiGoalRandomDrive@@AAEXXZ 00455bb0 f   mmai:aiGoalRandomDrive.obj
 0001:00055340       ?OkayToEnterIntersection@aiGoalRandomDrive@@AAEHXZ 00456340 f   mmai:aiGoalRandomDrive.obj
 0001:00055550       ?AnyVehiclesComingThisWay@aiGoalRandomDrive@@AAEHXZ 00456550 f   mmai:aiGoalRandomDrive.obj
 0001:00055760       ?AvoidCollision@aiGoalRandomDrive@@AAEXPAVaiVehicleSpline@@M@Z 00456760 f   mmai:aiGoalRandomDrive.obj
 0001:00055990       ?SolvePosition@aiGoalRandomDrive@@QAEXAAVVector3@@M@Z 00456990 f   mmai:aiGoalRandomDrive.obj
 0001:000559e0       ?SolveRailType@aiGoalRandomDrive@@AAEXXZ 004569e0 f   mmai:aiGoalRandomDrive.obj
 0001:000567f0       ?SolveLane@aiGoalRandomDrive@@AAEXXZ 004577f0 f   mmai:aiGoalRandomDrive.obj
 0001:000568d0       ?ChangeLanes@aiGoalRandomDrive@@AAEXXZ 004578d0 f   mmai:aiGoalRandomDrive.obj
 0001:00056db0       ?Dump@aiGoalRandomDrive@@QAEXXZ 00457db0 f   mmai:aiGoalRandomDrive.obj
 0001:00056e10       ??1aiGoal@@QAE@XZ          00457e10 f i mmai:aiGoalRandomDrive.obj
 0001:00056e20       ?Update@aiGoal@@UAEXXZ     00457e20 f i mmai:aiGoalRandomDrive.obj
 0001:00056e30       ??0aiGoalStop@@QAE@PAVmmCar@@PAF@Z 00457e30 f   mmai:aiGoalStop.obj
 0001:00056e60       ??1aiGoalStop@@QAE@XZ      00457e60 f   mmai:aiGoalStop.obj
 0001:00056e70       ?Init@aiGoalStop@@UAEXXZ   00457e70 f   mmai:aiGoalStop.obj
 0001:00056e80       ?Reset@aiGoalStop@@UAEXXZ  00457e80 f   mmai:aiGoalStop.obj
 0001:00056e90       ?Update@aiGoalStop@@UAEXXZ 00457e90 f   mmai:aiGoalStop.obj
 0001:00056ef0       ?Context@aiGoalStop@@UAEHXZ 00457ef0 f   mmai:aiGoalStop.obj
 0001:00056f10       ?Priority@aiGoalStop@@UAEHXZ 00457f10 f   mmai:aiGoalStop.obj
 0001:00056f50       ??0aiGoalBackup@@QAE@PAVaiRailSet@@PAVmmCar@@PAF@Z 00457f50 f   mmai:aiGoalBackup.obj
 0001:00056f80       ??1aiGoalBackup@@QAE@XZ    00457f80 f   mmai:aiGoalBackup.obj
 0001:00056f90       ?Init@aiGoalBackup@@UAEXXZ 00457f90 f   mmai:aiGoalBackup.obj
 0001:00056fa0       ?Context@aiGoalBackup@@UAEHXZ 00457fa0 f   mmai:aiGoalBackup.obj
 0001:00056fb0       ?Priority@aiGoalBackup@@UAEHXZ 00457fb0 f   mmai:aiGoalBackup.obj
 0001:00056fc0       ?Reset@aiGoalBackup@@UAEXXZ 00457fc0 f   mmai:aiGoalBackup.obj
 0001:00056ff0       ?Update@aiGoalBackup@@UAEXXZ 00457ff0 f   mmai:aiGoalBackup.obj
 0001:00057330       ?FinishedBackingUp@aiGoalBackup@@AAEXXZ 00458330 f   mmai:aiGoalBackup.obj
 0001:000573e0       ??0aiGoalChase@@QAE@PAVaiVehiclePolice@@PAVaiRailSet@@PAPAVmmCar@@PAFPAVVector3@@3@Z 004583e0 f   mmai:aiGoalChase.obj
 0001:00057490       ??1aiGoalChase@@QAE@XZ     00458490 f   mmai:aiGoalChase.obj
 0001:000574e0       ?Init@aiGoalChase@@UAEXXZ  004584e0 f   mmai:aiGoalChase.obj
 0001:000575f0       ?Reset@aiGoalChase@@UAEXXZ 004585f0 f   mmai:aiGoalChase.obj
 0001:000577a0       ?Context@aiGoalChase@@UAEHXZ 004587a0 f   mmai:aiGoalChase.obj
 0001:00057b40       ?Fov@aiGoalChase@@AAEHPAVmmCar@@@Z 00458b40 f   mmai:aiGoalChase.obj
 0001:00057cc0       ?Speeding@aiGoalChase@@AAEHPAVmmCar@@@Z 00458cc0 f   mmai:aiGoalChase.obj
 0001:00057d10       ?Collision@aiGoalChase@@AAEHPAVmmCar@@@Z 00458d10 f   mmai:aiGoalChase.obj
 0001:00057d30       ?HitMe@aiGoalChase@@AAEHPAVmmCar@@@Z 00458d30 f   mmai:aiGoalChase.obj
 0001:00057d50       ?Stopped@aiGoalChase@@AAEHPAVmmCar@@@Z 00458d50 f   mmai:aiGoalChase.obj
 0001:00057d80       ?IsPerpACop@aiGoalChase@@AAEHPAVmmCar@@@Z 00458d80 f   mmai:aiGoalChase.obj
 0001:00057da0       ?OffRoad@aiGoalChase@@AAEHPAVmmCar@@@Z 00458da0 f   mmai:aiGoalChase.obj
 0001:00057e60       ?Priority@aiGoalChase@@UAEHXZ 00458e60 f   mmai:aiGoalChase.obj
 0001:00057e70       ?Update@aiGoalChase@@UAEXXZ 00458e70 f   mmai:aiGoalChase.obj
 0001:00058af0       ?PlanRoute@aiGoalChase@@AAEHXZ 00459af0 f   mmai:aiGoalChase.obj
 0001:00058b90       ?LocatePerpFromRoad@aiGoalChase@@AAEHPAVaiPath@@PAPAV2@1@Z 00459b90 f   mmai:aiGoalChase.obj
 0001:00059260       ?LocatePerpFromInt@aiGoalChase@@AAEHPAVaiIntersection@@PAPAVaiPath@@@Z 0045a260 f   mmai:aiGoalChase.obj
 0001:000594c0       ?FindPerp@aiGoalChase@@AAEHHHPAVaiPath@@@Z 0045a4c0 f   mmai:aiGoalChase.obj
 0001:000595f0       ?DetectCopCollision@aiGoalChase@@AAEPAVaiVehiclePolice@@XZ 0045a5f0 f   mmai:aiGoalChase.obj
 0001:00059730       ?AvoidCopCollision@aiGoalChase@@AAEXPAVaiVehiclePolice@@@Z 0045a730 f   mmai:aiGoalChase.obj
 0001:00059a00       ?Follow@aiGoalChase@@AAEXXZ 0045aa00 f   mmai:aiGoalChase.obj
 0001:00059b30       ?CalcSpeed@aiGoalChase@@AAEXM@Z 0045ab30 f   mmai:aiGoalChase.obj
 0001:0005a2b0       ?CloseInRoad@aiGoalChase@@AAEXXZ 0045b2b0 f   mmai:aiGoalChase.obj
 0001:0005a790       ?CloseInOpenArea@aiGoalChase@@AAEXXZ 0045b790 f   mmai:aiGoalChase.obj
 0001:0005ac70       ?Barricade@aiGoalChase@@AAEXXZ 0045bc70 f   mmai:aiGoalChase.obj
 0001:0005b100       ?Block@aiGoalChase@@AAEXXZ 0045c100 f   mmai:aiGoalChase.obj
 0001:0005b510       ?Push@aiGoalChase@@AAEXXZ  0045c510 f   mmai:aiGoalChase.obj
 0001:0005b700       ?DetectAmbientCollision@aiGoalChase@@AAEHPAH@Z 0045c700 f   mmai:aiGoalChase.obj
 0001:0005c610       ?AddToBlockedRange@aiGoalChase@@AAEXMMM@Z 0045d610 f   mmai:aiGoalChase.obj
 0001:0005c7b0       ?AvoidAmbientCollision@aiGoalChase@@AAEXH@Z 0045d7b0 f   mmai:aiGoalChase.obj
 0001:0005ca10       ?ProcessCollision@aiGoalChase@@AAEXH@Z 0045da10 f   mmai:aiGoalChase.obj
 0001:0005ccd0       ?Dump@aiGoalChase@@QAEXXZ  0045dcd0 f   mmai:aiGoalChase.obj
 0001:0005cfe0       ??1aiStuck@@UAE@XZ         0045dfe0 f i mmai:aiGoalChase.obj
 0001:0005cff0       ??0aiVehicle@@QAE@XZ       0045dff0 f   mmai:aiVehicle.obj
 0001:0005d010       ??1aiVehicle@@QAE@XZ       0045e010 f   mmai:aiVehicle.obj
 0001:0005d020       ?Init@aiVehicle@@QAEXH@Z   0045e020 f   mmai:aiVehicle.obj
 0001:0005d030       ?Reset@aiVehicle@@UAEXXZ   0045e030 f   mmai:aiVehicle.obj
 0001:0005d040       ?Update@aiVehicle@@UAEXXZ  0045e040 f   mmai:aiVehicle.obj
 0001:0005d0b0       ??0aiGoalFollowWayPts@@QAE@XZ 0045e0b0 f   mmai:aiGoalFollowWayPts.obj
 0001:0005d110       ??0aiGoalFollowWayPts@@QAE@PADPAVaiRailSet@@PAVaiVehicleOpponent@@PAF330M@Z 0045e110 f   mmai:aiGoalFollowWayPts.obj
 0001:0005db20       ??1aiGoalFollowWayPts@@QAE@XZ 0045eb20 f   mmai:aiGoalFollowWayPts.obj
 0001:0005dbd0       ?Init@aiGoalFollowWayPts@@UAEXXZ 0045ebd0 f   mmai:aiGoalFollowWayPts.obj
 0001:0005dfc0       ?Context@aiGoalFollowWayPts@@UAEHXZ 0045efc0 f   mmai:aiGoalFollowWayPts.obj
 0001:0005e0b0       ?Priority@aiGoalFollowWayPts@@UAEHXZ 0045f0b0 f   mmai:aiGoalFollowWayPts.obj
 0001:0005e0c0       ?Reset@aiGoalFollowWayPts@@UAEXXZ 0045f0c0 f   mmai:aiGoalFollowWayPts.obj
 0001:0005e1b0       ?Update@aiGoalFollowWayPts@@UAEXXZ 0045f1b0 f   mmai:aiGoalFollowWayPts.obj
 0001:0005e5a0       ?DetectOpponentCollision@aiGoalFollowWayPts@@AAEPAVaiVehicleOpponent@@XZ 0045f5a0 f   mmai:aiGoalFollowWayPts.obj
 0001:0005e740       ?AvoidOpponentCollision@aiGoalFollowWayPts@@AAEXPAVaiVehicleOpponent@@@Z 0045f740 f   mmai:aiGoalFollowWayPts.obj
 0001:0005ebb0       ?PlanRoute@aiGoalFollowWayPts@@AAEXXZ 0045fbb0 f   mmai:aiGoalFollowWayPts.obj
 0001:0005ede0       ?LocateWayPtFromRoad@aiGoalFollowWayPts@@AAEHPAVaiPath@@PAPAV2@1@Z 0045fde0 f   mmai:aiGoalFollowWayPts.obj
 0001:0005f460       ?LocateWayPtFromInt@aiGoalFollowWayPts@@AAEHPAVaiIntersection@@PAPAVaiPath@@@Z 00460460 f   mmai:aiGoalFollowWayPts.obj
 0001:0005f540       ?DetRdSegBetweenInts@aiGoalFollowWayPts@@AAEPAVaiPath@@PAVaiIntersection@@0@Z 00460540 f   mmai:aiGoalFollowWayPts.obj
 0001:0005f5d0       ?DetectCollision@aiGoalFollowWayPts@@AAEHPAH@Z 004605d0 f   mmai:aiGoalFollowWayPts.obj
 0001:00060200       ?AddToBlockedRange@aiGoalFollowWayPts@@AAEXMMM@Z 00461200 f   mmai:aiGoalFollowWayPts.obj
 0001:000603a0       ?AvoidCollision@aiGoalFollowWayPts@@AAEXH@Z 004613a0 f   mmai:aiGoalFollowWayPts.obj
 0001:00060870       ?CalcSpeed@aiGoalFollowWayPts@@AAEXXZ 00461870 f   mmai:aiGoalFollowWayPts.obj
 0001:00061510       ?SolveTargetPoint@aiGoalFollowWayPts@@AAEXXZ 00462510 f   mmai:aiGoalFollowWayPts.obj
 0001:00061560       ?Dump@aiGoalFollowWayPts@@QAEXXZ 00462560 f   mmai:aiGoalFollowWayPts.obj
 0001:000617d0       ?DeclareFields@aiGoalFollowWayPts@@SAXXZ 004627d0 f   mmai:aiGoalFollowWayPts.obj
 0001:00061960       ?GetClass@aiGoalFollowWayPts@@UAEPAVMetaClass@@XZ 00462960 f   mmai:aiGoalFollowWayPts.obj
 0001:000619a0       ??_EaiGoalFollowWayPts@@QAEPAXI@Z 004629a0 f i mmai:aiGoalFollowWayPts.obj
 0001:00061a00       ??0aiGoalAvoidPlayer@@QAE@PAVaiRailSet@@PAVaiVehicleAmbient@@@Z 00462a00 f   mmai:aiGoalAvoidPlayer.obj
 0001:00061a30       ??1aiGoalAvoidPlayer@@QAE@XZ 00462a30 f   mmai:aiGoalAvoidPlayer.obj
 0001:00061a40       ?Init@aiGoalAvoidPlayer@@UAEXXZ 00462a40 f   mmai:aiGoalAvoidPlayer.obj
 0001:00061a50       ?Reset@aiGoalAvoidPlayer@@UAEXXZ 00462a50 f   mmai:aiGoalAvoidPlayer.obj
 0001:00061bb0       ?Update@aiGoalAvoidPlayer@@UAEXXZ 00462bb0 f   mmai:aiGoalAvoidPlayer.obj
 0001:00061d80       ?AvoidPlayer@aiGoalAvoidPlayer@@AAEXXZ 00462d80 f   mmai:aiGoalAvoidPlayer.obj
 0001:00061ff0       ?Context@aiGoalAvoidPlayer@@UAEHXZ 00462ff0 f   mmai:aiGoalAvoidPlayer.obj
 0001:00062010       ?Priority@aiGoalAvoidPlayer@@UAEHXZ 00463010 f   mmai:aiGoalAvoidPlayer.obj
 0001:00062020       ?Dump@aiGoalAvoidPlayer@@QAEXXZ 00463020 f   mmai:aiGoalAvoidPlayer.obj
 0001:000620a0       ??0aiGoalRegainRail@@QAE@PAVaiRailSet@@PAVaiVehicleSpline@@@Z 004630a0 f   mmai:aiGoalRegainRail.obj
 0001:000620d0       ??1aiGoalRegainRail@@QAE@XZ 004630d0 f   mmai:aiGoalRegainRail.obj
 0001:000620e0       ?Init@aiGoalRegainRail@@UAEXXZ 004630e0 f   mmai:aiGoalRegainRail.obj
 0001:00062100       ?Reset@aiGoalRegainRail@@UAEXXZ 00463100 f   mmai:aiGoalRegainRail.obj
 0001:000627b0       ?Update@aiGoalRegainRail@@UAEXXZ 004637b0 f   mmai:aiGoalRegainRail.obj
 0001:000628c0       ?Context@aiGoalRegainRail@@UAEHXZ 004638c0 f   mmai:aiGoalRegainRail.obj
 0001:000628e0       ?Priority@aiGoalRegainRail@@UAEHXZ 004638e0 f   mmai:aiGoalRegainRail.obj
 0001:000628f0       ?Dump@aiGoalRegainRail@@QAEXXZ 004638f0 f   mmai:aiGoalRegainRail.obj
 0001:00062970       ??0aiGoalCollision@@QAE@PAVaiRailSet@@PAVaiVehicleSpline@@@Z 00463970 f   mmai:aiGoalCollision.obj
 0001:000629a0       ??1aiGoalCollision@@QAE@XZ 004639a0 f   mmai:aiGoalCollision.obj
 0001:000629b0       ?Init@aiGoalCollision@@UAEXXZ 004639b0 f   mmai:aiGoalCollision.obj
 0001:000629c0       ?Reset@aiGoalCollision@@UAEXXZ 004639c0 f   mmai:aiGoalCollision.obj
 0001:000629d0       ?Update@aiGoalCollision@@UAEXXZ 004639d0 f   mmai:aiGoalCollision.obj
 0001:00062a50       ?Context@aiGoalCollision@@UAEHXZ 00463a50 f   mmai:aiGoalCollision.obj
 0001:00062a70       ?Priority@aiGoalCollision@@UAEHXZ 00463a70 f   mmai:aiGoalCollision.obj
 0001:00062a80       ??0aiStuck@@QAE@XZ         00463a80 f   mmai:aiStuck.obj
 0001:00062b20       ?Init@aiStuck@@QAEXPAVmmCarSim@@@Z 00463b20 f   mmai:aiStuck.obj
 0001:00062b40       ?Impact@aiStuck@@QAEXXZ    00463b40 f   mmai:aiStuck.obj
 0001:00062b50       ?Reset@aiStuck@@UAEXXZ     00463b50 f   mmai:aiStuck.obj
 0001:00062b60       ?Pegged@aiStuck@@QAEHXZ    00463b60 f   mmai:aiStuck.obj
 0001:00062bd0       ?Update@aiStuck@@UAEXXZ    00463bd0 f   mmai:aiStuck.obj
 0001:00062df0       ??_EaiStuck@@UAEPAXI@Z     00463df0 f i mmai:aiStuck.obj
 0001:00062df0       ??_GaiStuck@@UAEPAXI@Z     00463df0 f i mmai:aiStuck.obj
 0001:00062e40       ?IMPACTCB@@YAXPAVmmCarSim@@PAVasBound@@PAVmmIntersection@@PAVVector3@@M3@Z 00463e40 f   mmcar:carsim.obj
 0001:00062ea0       ??0mmCarSim@@QAE@XZ        00463ea0 f   mmcar:carsim.obj
 0001:00063540       ?OnGround@mmCarSim@@QAEHXZ 00464540 f   mmcar:carsim.obj
 0001:00063580       ?SetGlobalTuning@mmCarSim@@SAXMM@Z 00464580 f   mmcar:carsim.obj
 0001:00063590       ??1mmCarSim@@UAE@XZ        00464590 f   mmcar:carsim.obj
 0001:00063890       ?AddPlayerSpecifics@mmCarSim@@QAEXXZ 00464890 f   mmcar:carsim.obj
 0001:00063910       ?PlayHorn@mmCarSim@@QAEXXZ 00464910 f   mmcar:carsim.obj
 0001:00063980       ?StopHorn@mmCarSim@@QAEXXZ 00464980 f   mmcar:carsim.obj
 0001:000639f0       ?StartSiren@mmCarSim@@QAEXXZ 004649f0 f   mmcar:carsim.obj
 0001:00063a20       ?StopSiren@mmCarSim@@QAEXXZ 00464a20 f   mmcar:carsim.obj
 0001:00063a50       ?Init@mmCarSim@@QAEXPADPAVmmCar@@H@Z 00464a50 f   mmcar:carsim.obj
 0001:00064070       ?ReInit@mmCarSim@@QAEXPAD@Z 00465070 f   mmcar:carsim.obj
 0001:00064570       ?RestoreImpactParams@mmCarSim@@QAEXXZ 00465570 f   mmcar:carsim.obj
 0001:00064590       ?SetHackedImpactParams@mmCarSim@@QAEXXZ 00465590 f   mmcar:carsim.obj
 0001:000645b0       ?ReconfigureDrivetrain@mmCarSim@@QAEXXZ 004655b0 f   mmcar:carsim.obj
 0001:000645d0       ?ConfigureDrivetrain@mmCarSim@@QAEXXZ 004655d0 f   mmcar:carsim.obj
 0001:00064850       ?UnconfigureDrivetrain@mmCarSim@@QAEXXZ 00465850 f   mmcar:carsim.obj
 0001:00064a50       ?SetResetPos@mmCarSim@@QAEXAAVVector3@@@Z 00465a50 f   mmcar:carsim.obj
 0001:00064a90       ?AfterLoad@mmCarSim@@UAEXXZ 00465a90 f   mmcar:carsim.obj
 0001:00064b50       ?BeforeSave@mmCarSim@@UAEXXZ 00465b50 f   mmcar:carsim.obj
 0001:00064bd0       ?UpdateICSParams@mmCarSim@@QAEXXZ 00465bd0 f   mmcar:carsim.obj
 0001:00064c00       ?Reset@mmCarSim@@UAEXXZ    00465c00 f   mmcar:carsim.obj
 0001:00064db0       ?Update@mmCarSim@@UAEXXZ   00465db0 f   mmcar:carsim.obj
 0001:000655e0       ?Explode@mmCarSim@@QAEXXZ  004665e0 f   mmcar:carsim.obj
 0001:000656c0       ?UpdateExhaust@mmCarSim@@QAEXXZ 004666c0 f   mmcar:carsim.obj
 0001:000657d0       ?UpdateDamage@mmCarSim@@QAEXXZ 004667d0 f   mmcar:carsim.obj
 0001:00065a80       ?UpdateFF@mmCarSim@@QAEXXZ 00466a80 f   mmcar:carsim.obj
 0001:00065d40       ?ShouldSkid@mmCarSim@@QAEHXZ 00466d40 f   mmcar:carsim.obj
 0001:00065d90       ?RemoveNetVehicleAudio@mmCarSim@@QAEXXZ 00466d90 f   mmcar:carsim.obj
 0001:00065da0       ?AddWidgets@mmCarSim@@QAEXPAVBank@@@Z 00466da0 f   mmcar:carsim.obj
 0001:00065db0       ?InitPtx@mmCarSim@@QAEXXZ  00466db0 f   mmcar:carsim.obj
 0001:000662a0       ?PlayImpactAudio@mmCarSim@@QAEXFPAVmmIntersection@@PAVVector3@@@Z 004672a0 f   mmcar:carsim.obj
 0001:000663c0       ?DeclareFields@mmCarSim@@SAXXZ 004673c0 f   mmcar:carsim.obj
 0001:000669a0       ?GetClass@mmCarSim@@UAEPAVMetaClass@@XZ 004679a0 f   mmcar:carsim.obj
 0001:00066b00       ??1mmStuck@@UAE@XZ         00467b00 f i mmcar:carsim.obj
 0001:00066b10       ??1mmSplash@@UAE@XZ        00467b10 f i mmcar:carsim.obj
 0001:00066b20       ??1asAero@@UAE@XZ          00467b20 f i mmcar:carsim.obj
 0001:00066b30       ??1mmForce@@UAE@XZ         00467b30 f i mmcar:carsim.obj
 0001:00066b40       ??1VehGyro@@UAE@XZ         00467b40 f i mmcar:carsim.obj
 0001:00066b50       ??1mmDrivetrain@@UAE@XZ    00467b50 f i mmcar:carsim.obj
 0001:00066b60       ??1mmWheel@@UAE@XZ         00467b60 f i mmcar:carsim.obj
 0001:00066b70       ??1mmAxle@@UAE@XZ          00467b70 f i mmcar:carsim.obj
 0001:00066b80       ??1mmShock@@UAE@XZ         00467b80 f i mmcar:carsim.obj
 0001:00066b90       ??1mmTransmission@@UAE@XZ  00467b90 f i mmcar:carsim.obj
 0001:00066ba0       ?Struct@@YAPAUMetaType@@PAVMetaClass@@@Z 00467ba0 f i mmcar:carsim.obj
 0001:00066bd0       ??_EmmCarSim@@UAEPAXI@Z    00467bd0 f i mmcar:carsim.obj
 0001:00066c30       ??0mmTransmission@@QAE@XZ  00467c30 f   mmcar:transmission.obj
 0001:00066d00       ?Init@mmTransmission@@QAEXPAVmmCarSim@@@Z 00467d00 f   mmcar:transmission.obj
 0001:00066d40       ?Reset@mmTransmission@@UAEXXZ 00467d40 f   mmcar:transmission.obj
 0001:00066d70       ?Upshift@mmTransmission@@QAEHXZ 00467d70 f   mmcar:transmission.obj
 0001:00066da0       ?Downshift@mmTransmission@@QAEHXZ 00467da0 f   mmcar:transmission.obj
 0001:00066dc0       ?Update@mmTransmission@@UAEXXZ 00467dc0 f   mmcar:transmission.obj
 0001:00066ec0       ?CopyTrans@mmTransmission@@QAEXXZ 00467ec0 f   mmcar:transmission.obj
 0001:00066ef0       ?Automatic@mmTransmission@@QAEXH@Z 00467ef0 f   mmcar:transmission.obj
 0001:00066f10       ?SetReverse@mmTransmission@@QAEXXZ 00467f10 f   mmcar:transmission.obj
 0001:00066f20       ?SetDrive@mmTransmission@@QAEXXZ 00467f20 f   mmcar:transmission.obj
 0001:00066f40       ?GetCurrentGear@mmTransmission@@QAEHXZ 00467f40 f   mmcar:transmission.obj
 0001:00066f50       ?SetCurrentGear@mmTransmission@@QAEHH@Z 00467f50 f   mmcar:transmission.obj
 0001:00066f90       ?DeclareFields@mmTransmission@@SAXXZ 00467f90 f   mmcar:transmission.obj
 0001:000671e0       ?GetClass@mmTransmission@@UAEPAVMetaClass@@XZ 004681e0 f   mmcar:transmission.obj
 0001:00067220       ?ArrayOf@@YAPAUMetaType@@PAU1@H@Z 00468220 f i mmcar:transmission.obj
 0001:00067250       ??_EmmTransmission@@UAEPAXI@Z 00468250 f i mmcar:transmission.obj
 0001:000672b0       ?SetClearSurfaceAudioInfos@@YAXXZ 004682b0 f   mmcar:surfaceaudioinfo.obj
 0001:00067510       ?SetRainSurfaceAudioInfos@@YAXXZ 00468510 f   mmcar:surfaceaudioinfo.obj
 0001:00067770       ?SetSnowSurfaceAudioInfos@@YAXXZ 00468770 f   mmcar:surfaceaudioinfo.obj
 0001:000679f0       ??0mmCarModel@@QAE@XZ      004689f0 f   mmcar:carmodel.obj
 0001:00067aa0       ??1mmCarModel@@UAE@XZ      00468aa0 f   mmcar:carmodel.obj
 0001:00067b00       ?FromMatrix@mmCarModel@@UAIXABVMatrix34@@@Z 00468b00 f   mmcar:carmodel.obj
 0001:00067b20       ?ToMatrix@mmCarModel@@UAIAAVMatrix34@@AAV2@@Z 00468b20 f   mmcar:carmodel.obj
 0001:00067b30       ?GetPos@mmCarModel@@UAIAAVVector3@@XZ 00468b30 f   mmcar:carmodel.obj
 0001:00067ba0       ?Impact@mmCarModel@@QAEXPAVVector3@@@Z 00468ba0 f   mmcar:carmodel.obj
 0001:00067ce0       ?EjectWheels@mmCarModel@@QAEXH@Z 00468ce0 f   mmcar:carmodel.obj
 0001:00067e30       ?EjectPart@mmCarModel@@QAEXPAVmmWheel@@FFH@Z 00468e30 f   mmcar:carmodel.obj
 0001:000680c0       ?Draw@mmCarModel@@UAIXH@Z  004690c0 f   mmcar:carmodel.obj
 0001:00069020       ?DrawGlow@mmCarModel@@UAIXXZ 0046a020 f   mmcar:carmodel.obj
 0001:000690b0       ?DrawShadow@mmCarModel@@UAIXXZ 0046a0b0 f   mmcar:carmodel.obj
 0001:00069100       ?GetCarFlags@mmCarModel@@QAEHPAD@Z 0046a100 f   mmcar:carmodel.obj
 0001:00069110       ?InitDamage@mmCarModel@@QAEXXZ 0046a110 f   mmcar:carmodel.obj
 0001:00069170       ?GetPart@mmCarModel@@QAEPAVmmHitBangerInstance@@H@Z 0046a170 f   mmcar:carmodel.obj
 0001:000691c0       ?ClearDamage@mmCarModel@@QAEXH@Z 0046a1c0 f   mmcar:carmodel.obj
 0001:000692b0       ?ApplyDamage@mmCarModel@@QAEXAAVVector3@@M@Z 0046a2b0 f   mmcar:carmodel.obj
 0001:000692e0       ?Init@mmCarModel@@QAEXPADPAVmmCar@@H@Z 0046a2e0 f   mmcar:carmodel.obj
 0001:000695a0       ?DashActivated@mmCarModel@@QAEXXZ 0046a5a0 f   mmcar:carmodel.obj
 0001:000695b0       ?DashDeactivated@mmCarModel@@QAEXXZ 0046a5b0 f   mmcar:carmodel.obj
 0001:000695c0       ?Activate@mmCarModel@@QAEXXZ 0046a5c0 f   mmcar:carmodel.obj
 0001:000695d0       ?Deactivate@mmCarModel@@QAEXXZ 0046a5d0 f   mmcar:carmodel.obj
 0001:000695f0       ?Kill@mmCarModel@@QAEXXZ   0046a5f0 f   mmcar:carmodel.obj
 0001:00069600       ?DeclareFields@mmCarModel@@SAXXZ 0046a600 f   mmcar:carmodel.obj
 0001:00069780       ?GetClass@mmCarModel@@UAEPAVMetaClass@@XZ 0046a780 f   mmcar:carmodel.obj
 0001:000697c0       ??_EmmCarModel@@UAEPAXI@Z  0046a7c0 f i mmcar:carmodel.obj
 0001:00069820       ?GetEntity@mmCarModel@@UAEPAVmmPhysEntity@@XZ 0046a820 f i mmcar:carmodel.obj
 0001:00069830       ?AttachEntity@mmCarModel@@UAEPAVmmPhysEntity@@XZ 0046a830 f i mmcar:carmodel.obj
 0001:00069840       ?GetVelocity@mmCarModel@@UAE?AVVector3@@XZ 0046a840 f i mmcar:carmodel.obj
 0001:00069870       ?Reset@mmCarModel@@UAEXXZ  0046a870 f i mmcar:carmodel.obj
 0001:00069880       ??0mmCar@@QAE@XZ           0046a880 f   mmcar:car.obj
 0001:000699a0       ?TranslateFlags@mmCar@@QAEXH@Z 0046a9a0 f   mmcar:car.obj
 0001:00069a00       ?ReleaseTrailer@mmCar@@QAEXXZ 0046aa00 f   mmcar:car.obj
 0001:00069a30       ?Init@mmCar@@QAEXPADHH@Z   0046aa30 f   mmcar:car.obj
 0001:00069e60       ?ReInit@mmCar@@QAEXPADH@Z  0046ae60 f   mmcar:car.obj
 0001:0006a090       ?Reset@mmCar@@UAEXXZ       0046b090 f   mmcar:car.obj
 0001:0006a140       ?Update@mmCar@@UAEXXZ      0046b140 f   mmcar:car.obj
 0001:0006a160       ?PostUpdate@mmCar@@UAEXXZ  0046b160 f   mmcar:car.obj
 0001:0006a230       ?EnableDriving@mmCar@@QAEXH@Z 0046b230 f   mmcar:car.obj
 0001:0006a2a0       ?IsDrivingDisabled@mmCar@@QAEHXZ 0046b2a0 f   mmcar:car.obj
 0001:0006a2b0       ?ToggleSiren@mmCar@@QAEXXZ 0046b2b0 f   mmcar:car.obj
 0001:0006a2e0       ?StartSiren@mmCar@@QAEXXZ  0046b2e0 f   mmcar:car.obj
 0001:0006a300       ?StopSiren@mmCar@@QAEXXZ   0046b300 f   mmcar:car.obj
 0001:0006a320       ?RemoveVehicleAudio@mmCar@@QAEXXZ 0046b320 f   mmcar:car.obj
 0001:0006a330       ?ClearDamage@mmCar@@QAEXXZ 0046b330 f   mmcar:car.obj
 0001:0006a370       ?Impact@mmCar@@QAEXPAVmmIntersection@@PAVVector3@@MH1@Z 0046b370 f   mmcar:car.obj
 0001:0006a7a0       ?EggNameIndex@@YAHPAD@Z    0046b7a0 f   mmcar:car.obj
 0001:0006a800       ?VehNameRemap@mmCar@@QAEPADPADH@Z 0046b800 f   mmcar:car.obj
 0001:0006aaa0       ?DeclareFields@mmCar@@SAXXZ 0046baa0 f   mmcar:car.obj
 0001:0006ac10       ?GetClass@mmCar@@UAEPAVMetaClass@@XZ 0046bc10 f   mmcar:car.obj
 0001:0006ac50       ??_EmmCar@@UAEPAXI@Z       0046bc50 f i mmcar:car.obj
 0001:0006acb0       ?GetICS@mmCar@@UAEPAVasInertialCS@@XZ 0046bcb0 f i mmcar:car.obj
 0001:0006acc0       ?GetBound@mmCar@@UAEPAVasBound@@XZ 0046bcc0 f i mmcar:car.obj
 0001:0006acd0       ??0mmWheelCheap@@QAE@XZ    0046bcd0 f   mmcar:carsimcheap.obj
 0001:0006ada0       ?Init@mmWheelCheap@@QAEXPAVVector3@@PAVaiVehicleData@@PAVasInertialCS@@@Z 0046bda0 f   mmcar:carsimcheap.obj
 0001:0006ae70       ?Update@mmWheelCheap@@UAEXXZ 0046be70 f   mmcar:carsimcheap.obj
 0001:0006b5e0       ?Reset@mmWheelCheap@@UAEXXZ 0046c5e0 f   mmcar:carsimcheap.obj
 0001:0006b600       ??_GmmWheelCheap@@UAEPAXI@Z 0046c600 f i mmcar:carsimcheap.obj
 0001:0006b600       ??_EmmWheelCheap@@UAEPAXI@Z 0046c600 f i mmcar:carsimcheap.obj
 0001:0006b630       ??0NetAudioManager@@QAE@XZ 0046c630 f   mmcar:netaudiomanager.obj
 0001:0006b810       ??1NetAudioManager@@UAE@XZ 0046c810 f   mmcar:netaudiomanager.obj
 0001:0006bbd0       ?AddVehicle@NetAudioManager@@QAEFPAVmmNetworkCarAudio@@@Z 0046cbd0 f   mmcar:netaudiomanager.obj
 0001:0006bc60       ?RemoveVehicle@NetAudioManager@@QAEXPAVmmNetworkCarAudio@@F@Z 0046cc60 f   mmcar:netaudiomanager.obj
 0001:0006bcc0       ?FindGreatestDistance@NetAudioManager@@QAEFPAVmmNetworkCarAudio@@@Z 0046ccc0 f   mmcar:netaudiomanager.obj
 0001:0006bd60       ?FindUnusedSlot@NetAudioManager@@QAEFXZ 0046cd60 f   mmcar:netaudiomanager.obj
 0001:0006bda0       ?Update@NetAudioManager@@UAEXXZ 0046cda0 f   mmcar:netaudiomanager.obj
 0001:0006bf60       ?EchoOn@NetAudioManager@@QAEXM@Z 0046cf60 f   mmcar:netaudiomanager.obj
 0001:0006c2d0       ?EchoOff@NetAudioManager@@QAEXXZ 0046d2d0 f   mmcar:netaudiomanager.obj
 0001:0006c460       ?AssignSounds@NetAudioManager@@QAEXPAVmmNetworkCarAudio@@F@Z 0046d460 f   mmcar:netaudiomanager.obj
 0001:0006cda0       ?AssignAddOnSounds@NetAudioManager@@AAEXPAVmmNetworkCarAudio@@F@Z 0046dda0 f   mmcar:netaudiomanager.obj
 0001:0006cfc0       ?GetAvailableDistance@NetAudioManager@@QAEMXZ 0046dfc0 f   mmcar:netaudiomanager.obj
 0001:0006d000       ?AllocateEngine@NetAudioManager@@QAEXF@Z 0046e000 f   mmcar:netaudiomanager.obj
 0001:0006d180       ?AllocateAddOnEngine@NetAudioManager@@QAEFPAD@Z 0046e180 f   mmcar:netaudiomanager.obj
 0001:0006d350       ?AllocateEngine@NetAudioManager@@QAEPAPAVAudSound@@PAD@Z 0046e350 f   mmcar:netaudiomanager.obj
 0001:0006d480       ?AllocateReverseBeep@NetAudioManager@@QAEXXZ 0046e480 f   mmcar:netaudiomanager.obj
 0001:0006d5d0       ?AllocateHorn@NetAudioManager@@QAEXF@Z 0046e5d0 f   mmcar:netaudiomanager.obj
 0001:0006d7c0       ?AllocateSkids@NetAudioManager@@QAEXXZ 0046e7c0 f   mmcar:netaudiomanager.obj
 0001:0006da40       ?AllocateImpacts@NetAudioManager@@QAEXXZ 0046ea40 f   mmcar:netaudiomanager.obj
 0001:0006dad0       ?AllocatePoliceSiren@NetAudioManager@@QAEXXZ 0046ead0 f   mmcar:netaudiomanager.obj
 0001:0006dc40       ??_GNetAudioManager@@UAEPAXI@Z 0046ec40 f i mmcar:netaudiomanager.obj
 0001:0006dc40       ??_ENetAudioManager@@UAEPAXI@Z 0046ec40 f i mmcar:netaudiomanager.obj
 0001:0006dc70       ?SetSoundPtr@EngineAudioOpponent@@QAEXPAVAudSound@@@Z 0046ec70 f i mmcar:netaudiomanager.obj
 0001:0006dcb0       ??0mmSkid@@QAE@XZ          0046ecb0 f   mmcar:skid.obj
 0001:0006dcd0       ?Init@mmSkid@@QAEXPAD@Z    0046ecd0 f   mmcar:skid.obj
 0001:0006dcf0       ??1mmSkid@@UAE@XZ          0046ecf0 f   mmcar:skid.obj
 0001:0006dd00       ?AddSkid@mmSkid@@QAEXAAVMatrix34@@PAVVector3@@PAVagiPhysParameters@@M@Z 0046ed00 f   mmcar:skid.obj
 0001:0006dec0       ?FromMatrix@mmSkid@@UAIXABVMatrix34@@@Z 0046eec0 f   mmcar:skid.obj
 0001:0006ded0       ?ToMatrix@mmSkid@@UAIAAVMatrix34@@AAV2@@Z 0046eed0 f   mmcar:skid.obj
 0001:0006dee0       ?GetPos@mmSkid@@UAIAAVVector3@@XZ 0046eee0 f   mmcar:skid.obj
 0001:0006def0       ?Update@mmSkid@@QAEXXZ     0046eef0 f   mmcar:skid.obj
 0001:0006df00       ?Draw@mmSkid@@UAIXH@Z      0046ef00 f   mmcar:skid.obj
 0001:0006df90       ?DrawShadow@mmSkid@@UAIXXZ 0046ef90 f   mmcar:skid.obj
 0001:0006dfa0       ??0mmSkidManager@@QAE@XZ   0046efa0 f   mmcar:skid.obj
 0001:0006dfd0       ??1mmSkidManager@@UAE@XZ   0046efd0 f   mmcar:skid.obj
 0001:0006e030       ?Init@mmSkidManager@@QAEXPADHPAVmmWheel@@@Z 0046f030 f   mmcar:skid.obj
 0001:0006e0f0       ?ReInit@mmSkidManager@@QAEXPAVmmWheel@@@Z 0046f0f0 f   mmcar:skid.obj
 0001:0006e120       ?Reset@mmSkidManager@@UAEXXZ 0046f120 f   mmcar:skid.obj
 0001:0006e170       ?LayTrack@mmSkidManager@@QAEXXZ 0046f170 f   mmcar:skid.obj
 0001:0006e500       ?Update@mmSkidManager@@UAEXXZ 0046f500 f   mmcar:skid.obj
 0001:0006e5e0       ?DeclareFields@mmSkid@@SAXXZ 0046f5e0 f   mmcar:skid.obj
 0001:0006e760       ?GetClass@mmSkid@@UAEPAVMetaClass@@XZ 0046f760 f   mmcar:skid.obj
 0001:0006e770       ?DeclareFields@mmSkidManager@@SAXXZ 0046f770 f   mmcar:skid.obj
 0001:0006e8d0       ?GetClass@mmSkidManager@@UAEPAVMetaClass@@XZ 0046f8d0 f   mmcar:skid.obj
 0001:0006e8e0       ??_EmmSkid@@UAEPAXI@Z      0046f8e0 f i mmcar:skid.obj
 0001:0006e940       ??_EmmSkidManager@@UAEPAXI@Z 0046f940 f i mmcar:skid.obj
 0001:0006e9a0       ??0Matrix34@@QAE@XZ        0046f9a0 f i mmcar:skid.obj
 0001:0006e9b0       ?AddWidgets@mmSkid@@UAEXPAVBank@@@Z 0046f9b0 f i mmcar:skid.obj
 0001:0006e9c0       ??0mmShard@@QAE@XZ         0046f9c0 f   mmcar:shard.obj
 0001:0006ea00       ?Init@mmShard@@QAEXPADH@Z  0046fa00 f   mmcar:shard.obj
 0001:0006ea30       ??1mmShard@@UAE@XZ         0046fa30 f   mmcar:shard.obj
 0001:0006ea40       ?AddShard@mmShard@@QAEXVVector3@@00M@Z 0046fa40 f   mmcar:shard.obj
 0001:0006eaa0       ?Update@mmShard@@QAEXXZ    0046faa0 f   mmcar:shard.obj
 0001:0006eb80       ?Draw@mmShard@@UAIXH@Z     0046fb80 f   mmcar:shard.obj
 0001:0006ec30       ??0mmShardManager@@QAE@XZ  0046fc30 f   mmcar:shard.obj
 0001:0006eca0       ??1mmShardManager@@UAE@XZ  0046fca0 f   mmcar:shard.obj
 0001:0006ed10       ?GetInstance@mmShardManager@@SAPAV1@H@Z 0046fd10 f   mmcar:shard.obj
 0001:0006ed30       ?Init@mmShardManager@@QAEXPADHPAVmmCarSim@@@Z 0046fd30 f   mmcar:shard.obj
 0001:0006ee20       ?ReInit@mmShardManager@@QAEXPAVmmCarSim@@@Z 0046fe20 f   mmcar:shard.obj
 0001:0006ee30       ?EmitShards@mmShardManager@@QAEXVVector3@@MM@Z 0046fe30 f   mmcar:shard.obj
 0001:0006eea0       ?EmitAllShards@mmShardManager@@QAEXVVector3@@M@Z 0046fea0 f   mmcar:shard.obj
 0001:0006eef0       ?EmitShard@mmShardManager@@QAEXVVector3@@M@Z 0046fef0 f   mmcar:shard.obj
 0001:0006f0a0       ?Update@mmShardManager@@UAEXXZ 004700a0 f   mmcar:shard.obj
 0001:0006f0d0       ?DeclareFields@mmShard@@SAXXZ 004700d0 f   mmcar:shard.obj
 0001:0006f250       ?GetClass@mmShard@@UAEPAVMetaClass@@XZ 00470250 f   mmcar:shard.obj
 0001:0006f260       ?DeclareFields@mmShardManager@@SAXXZ 00470260 f   mmcar:shard.obj
 0001:0006f420       ?GetClass@mmShardManager@@UAEPAVMetaClass@@XZ 00470420 f   mmcar:shard.obj
 0001:0006f430       ??_EmmShard@@UAEPAXI@Z     00470430 f i mmcar:shard.obj
 0001:0006f490       ??_EmmShardManager@@UAEPAXI@Z 00470490 f i mmcar:shard.obj
 0001:0006f4f0       ??0mmTrailer@@QAE@XZ       004704f0 f   mmcar:trailer.obj
 0001:0006f740       ?Init@mmTrailer@@QAEXPADPAVmmCarSim@@VVector3@@@Z 00470740 f   mmcar:trailer.obj
 0001:0006f990       ?FromMatrix@mmTrailerInstance@@UAIXABVMatrix34@@@Z 00470990 f   mmcar:trailer.obj
 0001:0006f9b0       ?ToMatrix@mmTrailerInstance@@UAIAAVMatrix34@@AAV2@@Z 004709b0 f   mmcar:trailer.obj
 0001:0006f9d0       ?GetPos@mmTrailerInstance@@UAIAAVVector3@@XZ 004709d0 f   mmcar:trailer.obj
 0001:0006f9e0       ?GetEntity@mmTrailerInstance@@UAEPAVmmPhysEntity@@XZ 004709e0 f   mmcar:trailer.obj
 0001:0006f9f0       ?AttachEntity@mmTrailerInstance@@UAEPAVmmPhysEntity@@XZ 004709f0 f   mmcar:trailer.obj
 0001:0006fa00       ?GetVelocity@mmTrailerInstance@@UAE?AVVector3@@XZ 00470a00 f   mmcar:trailer.obj
 0001:0006fa30       ?Init@mmTrailerInstance@@QAEXPADPAVVector3@@@Z 00470a30 f   mmcar:trailer.obj
 0001:0006fbc0       ?Draw@mmTrailerInstance@@UAIXH@Z 00470bc0 f   mmcar:trailer.obj
 0001:0006fdb0       ?DrawShadow@mmTrailerInstance@@UAIXXZ 00470db0 f   mmcar:trailer.obj
 0001:0006fdd0       ?AfterLoad@mmTrailer@@UAEXXZ 00470dd0 f   mmcar:trailer.obj
 0001:0006fe40       ?Activate@mmTrailer@@QAEXXZ 00470e40 f   mmcar:trailer.obj
 0001:0006fe50       ?Deactivate@mmTrailer@@QAEXXZ 00470e50 f   mmcar:trailer.obj
 0001:0006fe60       ?BeforeSave@mmTrailer@@UAEXXZ 00470e60 f   mmcar:trailer.obj
 0001:0006fe90       ?UpdateICSParams@mmTrailer@@QAEXXZ 00470e90 f   mmcar:trailer.obj
 0001:0006fec0       ?RestoreImpactParams@mmTrailer@@QAEXXZ 00470ec0 f   mmcar:trailer.obj
 0001:0006fef0       ?SetHackedImpactParams@mmTrailer@@QAEXXZ 00470ef0 f   mmcar:trailer.obj
 0001:0006ff10       ?Reset@mmTrailer@@UAEXXZ   00470f10 f   mmcar:trailer.obj
 0001:0006fff0       ?Update@mmTrailer@@UAEXXZ  00470ff0 f   mmcar:trailer.obj
 0001:000700c0       ?PostUpdate@mmTrailer@@UAEXXZ 004710c0 f   mmcar:trailer.obj
 0001:000700d0       ?AddWidgets@mmTrailer@@QAEXPAVBank@@@Z 004710d0 f   mmcar:trailer.obj
 0001:000700e0       ?DeclareFields@mmTrailer@@SAXXZ 004710e0 f   mmcar:trailer.obj
 0001:000702e0       ?GetClass@mmTrailer@@UAEPAVMetaClass@@XZ 004712e0 f   mmcar:trailer.obj
 0001:000702f0       ??1mmTrailerInstance@@UAE@XZ 004712f0 f i mmcar:trailer.obj
 0001:00070300       ??_GmmTrailerInstance@@UAEPAXI@Z 00471300 f i mmcar:trailer.obj
 0001:00070300       ??_EmmTrailerInstance@@UAEPAXI@Z 00471300 f i mmcar:trailer.obj
 0001:00070320       ??_EmmTrailer@@UAEPAXI@Z   00471320 f i mmcar:trailer.obj
 0001:00070380       ??1mmTrailer@@UAE@XZ       00471380 f i mmcar:trailer.obj
 0001:000704b0       ?GetICS@mmTrailer@@UAEPAVasInertialCS@@XZ 004714b0 f i mmcar:trailer.obj
 0001:000704c0       ?GetBound@mmTrailer@@UAEPAVasBound@@XZ 004714c0 f i mmcar:trailer.obj
 0001:00070550       ??0mmOpponentImpactAudio@@QAE@XZ 00471550 f   mmcar:opponentimpactaudio.obj
 0001:00070710       ??1mmOpponentImpactAudio@@QAE@XZ 00471710 f   mmcar:opponentimpactaudio.obj
 0001:00070740       ?Play@mmOpponentImpactAudio@@QAEXMFMM@Z 00471740 f   mmcar:opponentimpactaudio.obj
 0001:000708b0       ?Update@mmOpponentImpactAudio@@QAEXXZ 004718b0 f   mmcar:opponentimpactaudio.obj
 0001:00070910       ?Enable3DMode@mmOpponentImpactAudio@@QAEXPAVVector3@@@Z 00471910 f   mmcar:opponentimpactaudio.obj
 0001:00070960       ?SetSecondsElapsed@mmOpponentImpactAudio@@SAXM@Z 00471960 f   mmcar:opponentimpactaudio.obj
 0001:00070970       ?GetSecondsElapsed@mmOpponentImpactAudio@@SAMXZ 00471970 f   mmcar:opponentimpactaudio.obj
 0001:00070980       ?Disable3DMode@mmOpponentImpactAudio@@QAEXXZ 00471980 f   mmcar:opponentimpactaudio.obj
 0001:000709a0       ??0mmPoliceCarAudio@@QAE@PAVmmCarSim@@M@Z 004719a0 f   mmcar:policecaraudio.obj
 0001:00070a80       ??1mmPoliceCarAudio@@UAE@XZ 00471a80 f   mmcar:policecaraudio.obj
 0001:00070a90       ?ExplosionIsPlaying@mmPoliceCarAudio@@QAEHXZ 00471a90 f   mmcar:policecaraudio.obj
 0001:00070ab0       ?StartSiren@mmPoliceCarAudio@@QAEXXZ 00471ab0 f   mmcar:policecaraudio.obj
 0001:00070b60       ?StopSiren@mmPoliceCarAudio@@QAEXXZ 00471b60 f   mmcar:policecaraudio.obj
 0001:00070bc0       ?PlayExplosion@mmPoliceCarAudio@@QAEXXZ 00471bc0 f   mmcar:policecaraudio.obj
 0001:00070c70       ?DamageSiren@mmPoliceCarAudio@@QAEXXZ 00471c70 f   mmcar:policecaraudio.obj
 0001:00070dd0       ?Update@mmPoliceCarAudio@@QAEXHMM@Z 00471dd0 f   mmcar:policecaraudio.obj
 0001:00070ef0       ?FluctuateSlowSiren@mmPoliceCarAudio@@AAEXXZ 00471ef0 f   mmcar:policecaraudio.obj
 0001:00071180       ?FluctuateFastSiren@mmPoliceCarAudio@@AAEXXZ 00472180 f   mmcar:policecaraudio.obj
 0001:000715a0       ?UpdateDoppler@mmPoliceCarAudio@@QAEXXZ 004725a0 f   mmcar:policecaraudio.obj
 0001:000715b0       ?UpdateDoppler@mmPoliceCarAudio@@QAEXM@Z 004725b0 f   mmcar:policecaraudio.obj
 0001:000717a0       ?PlayVoice@mmPoliceCarAudio@@QAEXXZ 004727a0 f   mmcar:policecaraudio.obj
 0001:00071840       ?AssignSounds@mmPoliceCarAudio@@QAEXPAVAudSound@@000PAVmmOpponentImpactAudio@@0@Z 00472840 f   mmcar:policecaraudio.obj
 0001:00071910       ?UnAssignSounds@mmPoliceCarAudio@@QAEXXZ 00472910 f   mmcar:policecaraudio.obj
 0001:00071ac0       ??_GmmPoliceCarAudio@@UAEPAXI@Z 00472ac0 f i mmcar:policecaraudio.obj
 0001:00071ac0       ??_EmmPoliceCarAudio@@UAEPAXI@Z 00472ac0 f i mmcar:policecaraudio.obj
 0001:00071af0       ??0mmOpponentCarAudio@@QAE@PAVmmCarSim@@@Z 00472af0 f   mmcar:opponentcaraudio.obj
 0001:00071b60       ??1mmOpponentCarAudio@@UAE@XZ 00472b60 f   mmcar:opponentcaraudio.obj
 0001:00071bd0       ?Init@mmOpponentCarAudio@@QAEXPAVmmCarSim@@@Z 00472bd0 f   mmcar:opponentcaraudio.obj
 0001:00071d20       ?PlayReverseBeep@mmOpponentCarAudio@@QAEXXZ 00472d20 f   mmcar:opponentcaraudio.obj
 0001:00071d80       ?Update@mmOpponentCarAudio@@QAEXHMM@Z 00472d80 f   mmcar:opponentcaraudio.obj
 0001:00071e20       ?CalculateDistToPlayer2@mmOpponentCarAudio@@QAEXXZ 00472e20 f   mmcar:opponentcaraudio.obj
 0001:00071f00       ?CalculatePan@mmOpponentCarAudio@@QAEXXZ 00472f00 f   mmcar:opponentcaraudio.obj
 0001:00071f50       ?CalculateDoppler@mmOpponentCarAudio@@QAEXM@Z 00472f50 f   mmcar:opponentcaraudio.obj
 0001:00071f80       ?UpdateDoppler@mmOpponentCarAudio@@QAEXXZ 00472f80 f   mmcar:opponentcaraudio.obj
 0001:00071f90       ?UpdateDoppler@mmOpponentCarAudio@@QAEXM@Z 00472f90 f   mmcar:opponentcaraudio.obj
 0001:000720a0       ?Reset@mmOpponentCarAudio@@UAEXXZ 004730a0 f   mmcar:opponentcaraudio.obj
 0001:000720c0       ?LoadSucessful@mmOpponentCarAudio@@QAEXPAVmmCarSim@@@Z 004730c0 f   mmcar:opponentcaraudio.obj
 0001:000720f0       ?AssignSounds@mmOpponentCarAudio@@QAEXPAVAudSound@@0PAVmmOpponentImpactAudio@@0@Z 004730f0 f   mmcar:opponentcaraudio.obj
 0001:000721c0       ?UnAssignSounds@mmOpponentCarAudio@@QAEXXZ 004731c0 f   mmcar:opponentcaraudio.obj
 0001:00072260       ?SetMinAmpSpeed@mmOpponentCarAudio@@QAEXM@Z 00473260 f   mmcar:opponentcaraudio.obj
 0001:00072280       ?DeclareFields@mmOpponentCarAudio@@SAXXZ 00473280 f   mmcar:opponentcaraudio.obj
 0001:00072440       ?GetClass@mmOpponentCarAudio@@UAEPAVMetaClass@@XZ 00473440 f   mmcar:opponentcaraudio.obj
 0001:00072570       ??_EmmOpponentCarAudio@@UAEPAXI@Z 00473570 f i mmcar:opponentcaraudio.obj
 0001:000725d0       ??0mmOpponentCarAudio@@QAE@XZ 004735d0 f i mmcar:opponentcaraudio.obj
 0001:00072620       ??0mmStuck@@QAE@XZ         00473620 f   mmcar:stuck.obj
 0001:000726c0       ?Init@mmStuck@@QAEXPAVmmCarSim@@@Z 004736c0 f   mmcar:stuck.obj
 0001:000726e0       ?Impact@mmStuck@@QAEXXZ    004736e0 f   mmcar:stuck.obj
 0001:000726f0       ?Reset@mmStuck@@UAEXXZ     004736f0 f   mmcar:stuck.obj
 0001:00072700       ?Pegged@mmStuck@@QAEHXZ    00473700 f   mmcar:stuck.obj
 0001:00072750       ?Update@mmStuck@@UAEXXZ    00473750 f   mmcar:stuck.obj
 0001:00072970       ??_GmmStuck@@UAEPAXI@Z     00473970 f i mmcar:stuck.obj
 0001:00072970       ??_EmmStuck@@UAEPAXI@Z     00473970 f i mmcar:stuck.obj
 0001:000729a0       ??0mmEngine@@QAE@XZ        004739a0 f   mmcar:engine.obj
 0001:00072a00       ??1mmEngine@@UAE@XZ        00473a00 f   mmcar:engine.obj
 0001:00072a10       ?Init@mmEngine@@QAEXPAVmmCarSim@@@Z 00473a10 f   mmcar:engine.obj
 0001:00072a40       ?AfterLoad@mmEngine@@UAEXXZ 00473a40 f   mmcar:engine.obj
 0001:00072a50       ?Load@mmEngine@@QAEXPAVStream@@@Z 00473a50 f   mmcar:engine.obj
 0001:00072ad0       ?ComputeConstants@mmEngine@@QAEXXZ 00473ad0 f   mmcar:engine.obj
 0001:00072b50       ?CalcTorqueAtFullThrottle@mmEngine@@QAEMXZ 00473b50 f   mmcar:engine.obj
 0001:00072be0       ?CalcTorqueAtZeroThrottle@mmEngine@@QAEMXZ 00473be0 f   mmcar:engine.obj
 0001:00072c20       ?CalcTorque@mmEngine@@QAEMM@Z 00473c20 f   mmcar:engine.obj
 0001:00072c50       ?Save@mmEngine@@QAEXPAVStream@@@Z 00473c50 f   mmcar:engine.obj
 0001:00072cd0       ?Reset@mmEngine@@UAEXXZ    00473cd0 f   mmcar:engine.obj
 0001:00072d00       ?Update@mmEngine@@UAEXXZ   00473d00 f   mmcar:engine.obj
 0001:00072ee0       ?DeclareFields@mmEngine@@SAXXZ 00473ee0 f   mmcar:engine.obj
 0001:00073090       ?GetClass@mmEngine@@UAEPAVMetaClass@@XZ 00474090 f   mmcar:engine.obj
 0001:000730a0       ??_EmmEngine@@UAEPAXI@Z    004740a0 f i mmcar:engine.obj
 0001:00073100       ??0mmShock@@QAE@XZ         00474100 f   mmcar:shock.obj
 0001:00073120       ?Init@mmShock@@QAEXPAD0PAVmmWheel@@@Z 00474120 f   mmcar:shock.obj
 0001:00073180       ?Update@mmShock@@UAEXXZ    00474180 f   mmcar:shock.obj
 0001:00073190       ?DeclareFields@mmShock@@SAXXZ 00474190 f   mmcar:shock.obj
 0001:00073300       ?GetClass@mmShock@@UAEPAVMetaClass@@XZ 00474300 f   mmcar:shock.obj
 0001:00073310       ??_EmmShock@@UAEPAXI@Z     00474310 f i mmcar:shock.obj
 0001:00073370       ??0mmAxle@@QAE@XZ          00474370 f   mmcar:axle.obj
 0001:00073390       ?Init@mmAxle@@QAEXPAD0PAVmmWheel@@1@Z 00474390 f   mmcar:axle.obj
 0001:000733e0       ?Update@mmAxle@@UAEXXZ     004743e0 f   mmcar:axle.obj
 0001:00073480       ?DeclareFields@mmAxle@@SAXXZ 00474480 f   mmcar:axle.obj
 0001:000735f0       ?GetClass@mmAxle@@UAEPAVMetaClass@@XZ 004745f0 f   mmcar:axle.obj
 0001:00073600       ??_EmmAxle@@UAEPAXI@Z      00474600 f i mmcar:axle.obj
 0001:00073660       ??0mmWheel@@QAE@XZ         00474660 f   mmcar:wheel.obj
 0001:00073820       ?ComputeConstants@mmWheel@@QAEXXZ 00474820 f   mmcar:wheel.obj
 0001:000738e0       ?AfterLoad@mmWheel@@UAEXXZ 004748e0 f   mmcar:wheel.obj
 0001:000738f0       ?Init@mmWheel@@QAEXPAD0VVector3@@PAVasInertialCS@@HPAVmmBoundTemplate@@H@Z 004748f0 f   mmcar:wheel.obj
 0001:00073a80       ?ComputeDwtdw@mmWheel@@QAEMMPAM00@Z 00474a80 f   mmcar:wheel.obj
 0001:00074280       ?Update@mmWheel@@UAEXXZ    00475280 f   mmcar:wheel.obj
 0001:00075170       ?Reset@mmWheel@@UAEXXZ     00476170 f   mmcar:wheel.obj
 0001:000751e0       ?GenerateSkidParticles@mmWheel@@QAEXXZ 004761e0 f   mmcar:wheel.obj
 0001:00075200       ?SetInputs@mmWheel@@QAEXMM@Z 00476200 f   mmcar:wheel.obj
 0001:00075220       ?SetFricMultiplier@mmWheel@@QAEXM@Z 00476220 f   mmcar:wheel.obj
 0001:00075240       ?SetSteerMultiplier@mmWheel@@QAEXM@Z 00476240 f   mmcar:wheel.obj
 0001:00075250       ?Load@mmWheel@@QAEXPAVStream@@@Z 00476250 f   mmcar:wheel.obj
 0001:00075350       ?Save@mmWheel@@QAEXPAVStream@@@Z 00476350 f   mmcar:wheel.obj
 0001:00075490       ?CopyVars@mmWheel@@QAEXPAV1@@Z 00476490 f   mmcar:wheel.obj
 0001:00075550       ?GetSurfaceSound@mmWheel@@QAEHXZ 00476550 f   mmcar:wheel.obj
 0001:00075570       ?DeclareFields@mmWheel@@SAXXZ 00476570 f   mmcar:wheel.obj
 0001:00075830       ?GetClass@mmWheel@@UAEPAVMetaClass@@XZ 00476830 f   mmcar:wheel.obj
 0001:00075870       ??_EmmWheel@@UAEPAXI@Z     00476870 f i mmcar:wheel.obj
 0001:000758d0       ??0mmDrivetrain@@QAE@XZ    004768d0 f   mmcar:drivetrain.obj
 0001:00075900       ?Init@mmDrivetrain@@QAEXPAVmmCarSim@@@Z 00476900 f   mmcar:drivetrain.obj
 0001:00075930       ?Attach@mmDrivetrain@@QAEXXZ 00476930 f   mmcar:drivetrain.obj
 0001:00075950       ?Detach@mmDrivetrain@@QAEXXZ 00476950 f   mmcar:drivetrain.obj
 0001:00075960       ?AddWheel@mmDrivetrain@@QAEHPAVmmWheel@@@Z 00476960 f   mmcar:drivetrain.obj
 0001:000759a0       ?Update@mmDrivetrain@@UAEXXZ 004769a0 f   mmcar:drivetrain.obj
 0001:00075e50       ?DeclareFields@mmDrivetrain@@SAXXZ 00476e50 f   mmcar:drivetrain.obj
 0001:00075fe0       ?GetClass@mmDrivetrain@@UAEPAVMetaClass@@XZ 00476fe0 f   mmcar:drivetrain.obj
 0001:00075ff0       ??_EmmDrivetrain@@UAEPAXI@Z 00476ff0 f i mmcar:drivetrain.obj
 0001:00076050       ?Reset@mmDrivetrain@@UAEXXZ 00477050 f i mmcar:drivetrain.obj
 0001:00076060       ??0VehGyro@@QAE@XZ         00477060 f   mmcar:gyro.obj
 0001:00076090       ?Load@VehGyro@@QAEXPAVStream@@@Z 00477090 f   mmcar:gyro.obj
 0001:00076100       ?Save@VehGyro@@QAEXPAVStream@@@Z 00477100 f   mmcar:gyro.obj
 0001:00076180       ?Update@VehGyro@@UAEXXZ    00477180 f   mmcar:gyro.obj
 0001:00076340       ?AddWidgets@VehGyro@@QAEXPAVBank@@@Z 00477340 f   mmcar:gyro.obj
 0001:00076350       ?DeclareFields@VehGyro@@SAXXZ 00477350 f   mmcar:gyro.obj
 0001:000764e0       ?GetClass@VehGyro@@UAEPAVMetaClass@@XZ 004774e0 f   mmcar:gyro.obj
 0001:000764f0       ??_EVehGyro@@UAEPAXI@Z     004774f0 f i mmcar:gyro.obj
 0001:00076550       ??0mmForce@@QAE@XZ         00477550 f   mmcar:force.obj
 0001:00076570       ?Update@mmForce@@UAEXXZ    00477570 f   mmcar:force.obj
 0001:00076770       ?AddWidgets@mmForce@@QAEXPAVBank@@@Z 00477770 f   mmcar:force.obj
 0001:00076780       ?DeclareFields@mmForce@@SAXXZ 00477780 f   mmcar:force.obj
 0001:000768e0       ?GetClass@mmForce@@UAEPAVMetaClass@@XZ 004778e0 f   mmcar:force.obj
 0001:000768f0       ??_EmmForce@@UAEPAXI@Z     004778f0 f i mmcar:force.obj
 0001:00076950       ??0mmSplash@@QAE@XZ        00477950 f   mmcar:splash.obj
 0001:000769c0       ?Reset@mmSplash@@UAEXXZ    004779c0 f   mmcar:splash.obj
 0001:000769d0       ?Init@mmSplash@@QAEXPAVasInertialCS@@VVector3@@1@Z 004779d0 f   mmcar:splash.obj
 0001:00076b30       ?Activate@mmSplash@@QAEXM@Z 00477b30 f   mmcar:splash.obj
 0001:00076b50       ?Update@mmSplash@@UAEXXZ   00477b50 f   mmcar:splash.obj
 0001:00076d90       ??_GmmSplash@@UAEPAXI@Z    00477d90 f i mmcar:splash.obj
 0001:00076d90       ??_EmmSplash@@UAEPAXI@Z    00477d90 f i mmcar:splash.obj
 0001:00076dc0       ??0mmCarRoadFF@@QAE@XZ     00477dc0 f   mmcar:roadff.obj
 0001:00076e00       ??1mmCarRoadFF@@UAE@XZ     00477e00 f   mmcar:roadff.obj
 0001:00076e60       ?AssignProperties@mmCarRoadFF@@QAEXMH@Z 00477e60 f   mmcar:roadff.obj
 0001:00076f00       ?SetFGVals@mmCarRoadFF@@QAEXMMM@Z 00477f00 f   mmcar:roadff.obj
 0001:00076ff0       ?Start@mmCarRoadFF@@QAEXXZ 00477ff0 f   mmcar:roadff.obj
 0001:00077010       ?Stop@mmCarRoadFF@@QAEXXZ  00478010 f   mmcar:roadff.obj
 0001:00077020       ?Reset@mmCarRoadFF@@UAEXXZ 00478020 f   mmcar:roadff.obj
 0001:00077050       ?IsPlaying@mmCarRoadFF@@QAEHXZ 00478050 f   mmcar:roadff.obj
 0001:00077060       ?Update@mmCarRoadFF@@UAEXXZ 00478060 f   mmcar:roadff.obj
 0001:000770b0       ?UpdateVals@mmCarRoadFF@@QAEXXZ 004780b0 f   mmcar:roadff.obj
 0001:00077100       ?DeclareFields@mmCarRoadFF@@SAXXZ 00478100 f   mmcar:roadff.obj
 0001:00077260       ?GetClass@mmCarRoadFF@@UAEPAVMetaClass@@XZ 00478260 f   mmcar:roadff.obj
 0001:00077270       ??_EmmCarRoadFF@@UAEPAXI@Z 00478270 f i mmcar:roadff.obj
 0001:000772d0       ??0mmPlayerCarAudio@@QAE@PAVmmCarSim@@@Z 004782d0 f   mmcar:playercaraudio.obj
 0001:00077370       ?Init@mmPlayerCarAudio@@QAEXPAVmmCarSim@@@Z 00478370 f   mmcar:playercaraudio.obj
 0001:00077700       ??1mmPlayerCarAudio@@UAE@XZ 00478700 f   mmcar:playercaraudio.obj
 0001:000777f0       ?EchoOn@mmPlayerCarAudio@@QAEXM@Z 004787f0 f   mmcar:playercaraudio.obj
 0001:00077910       ?EchoOff@mmPlayerCarAudio@@QAEXXZ 00478910 f   mmcar:playercaraudio.obj
 0001:000779c0       ?PlayReverseBeep@mmPlayerCarAudio@@QAEXXZ 004789c0 f   mmcar:playercaraudio.obj
 0001:00077a20       ?Update@mmPlayerCarAudio@@QAEXHMMF@Z 00478a20 f   mmcar:playercaraudio.obj
 0001:00077c30       ?StartSiren@mmPlayerCarAudio@@QAEXXZ 00478c30 f   mmcar:playercaraudio.obj
 0001:00077cc0       ?StopSiren@mmPlayerCarAudio@@QAEXXZ 00478cc0 f   mmcar:playercaraudio.obj
 0001:00077d00       ?FluctuateSlowSiren@mmPlayerCarAudio@@QAEXXZ 00478d00 f   mmcar:playercaraudio.obj
 0001:00077f00       ?FluctuateFastSiren@mmPlayerCarAudio@@QAEXXZ 00478f00 f   mmcar:playercaraudio.obj
 0001:00078220       ?Reset@mmPlayerCarAudio@@UAEXXZ 00479220 f   mmcar:playercaraudio.obj
 0001:00078260       ?PlayHorn@mmPlayerCarAudio@@QAEXXZ 00479260 f   mmcar:playercaraudio.obj
 0001:000782a0       ?SetUpDefault@mmPlayerCarAudio@@QAEXPAVmmCarSim@@@Z 004792a0 f   mmcar:playercaraudio.obj
 0001:000783f0       ?LoadSucessful@mmPlayerCarAudio@@QAEXXZ 004793f0 f   mmcar:playercaraudio.obj
 0001:00078850       ?DeclareFields@mmPlayerCarAudio@@SAXXZ 00479850 f   mmcar:playercaraudio.obj
 0001:00078a40       ?GetClass@mmPlayerCarAudio@@UAEPAVMetaClass@@XZ 00479a40 f   mmcar:playercaraudio.obj
 0001:00078b70       ??_EmmPlayerCarAudio@@UAEPAXI@Z 00479b70 f i mmcar:playercaraudio.obj
 0001:00078bd0       ??0mmPlayerCarAudio@@QAE@XZ 00479bd0 f i mmcar:playercaraudio.obj
 0001:00078c20       ??0mmNetworkCarAudio@@QAE@PAVmmCarSim@@@Z 00479c20 f   mmcar:networkcaraudio.obj
 0001:00078c80       ?Init@mmNetworkCarAudio@@QAEXPAVmmCarSim@@G@Z 00479c80 f   mmcar:networkcaraudio.obj
 0001:00078e10       ??1mmNetworkCarAudio@@UAE@XZ 00479e10 f   mmcar:networkcaraudio.obj
 0001:00078e80       ?Update@mmNetworkCarAudio@@UAEXXZ 00479e80 f   mmcar:networkcaraudio.obj
 0001:00078ec0       ?UpdateAudio@mmNetworkCarAudio@@QAEXXZ 00479ec0 f   mmcar:networkcaraudio.obj
 0001:00078ff0       ?FluctuateSlowSiren@mmNetworkCarAudio@@QAEXXZ 00479ff0 f   mmcar:networkcaraudio.obj
 0001:00079240       ?FluctuateFastSiren@mmNetworkCarAudio@@QAEXXZ 0047a240 f   mmcar:networkcaraudio.obj
 0001:000795f0       ?DeactivateAudio@mmNetworkCarAudio@@QAEXXZ 0047a5f0 f   mmcar:networkcaraudio.obj
 0001:000796a0       ?CalculateDistToPlayer2@mmNetworkCarAudio@@QAEXXZ 0047a6a0 f   mmcar:networkcaraudio.obj
 0001:00079760       ?CalculateDoppler@mmNetworkCarAudio@@QAEXXZ 0047a760 f   mmcar:networkcaraudio.obj
 0001:00079780       ?UpdateDoppler@mmNetworkCarAudio@@QAEXXZ 0047a780 f   mmcar:networkcaraudio.obj
 0001:00079a30       ?StopSiren@mmNetworkCarAudio@@QAEXXZ 0047aa30 f   mmcar:networkcaraudio.obj
 0001:00079a70       ?StartSiren@mmNetworkCarAudio@@QAEXXZ 0047aa70 f   mmcar:networkcaraudio.obj
 0001:00079ac0       ?Reset@mmNetworkCarAudio@@UAEXXZ 0047aac0 f   mmcar:networkcaraudio.obj
 0001:00079ae0       ?RemoveFromManager@mmNetworkCarAudio@@QAEXXZ 0047aae0 f   mmcar:networkcaraudio.obj
 0001:00079b00       ?LoadSucessful@mmNetworkCarAudio@@QAEXPAVmmCarSim@@@Z 0047ab00 f   mmcar:networkcaraudio.obj
 0001:00079b80       ?DeclareFields@mmNetworkCarAudio@@SAXXZ 0047ab80 f   mmcar:networkcaraudio.obj
 0001:00079d50       ?GetClass@mmNetworkCarAudio@@UAEPAVMetaClass@@XZ 0047ad50 f   mmcar:networkcaraudio.obj
 0001:00079e80       ??_EmmNetworkCarAudio@@UAEPAXI@Z 0047ae80 f i mmcar:networkcaraudio.obj
 0001:00079ee0       ??0mmNetworkCarAudio@@QAE@XZ 0047aee0 f i mmcar:networkcaraudio.obj
 0001:00079f30       ??0mmImpactAudio@@QAE@PAVmmCarSim@@PAVVector3@@@Z 0047af30 f   mmcar:impactaudio.obj
 0001:0007a560       ??1mmImpactAudio@@QAE@XZ   0047b560 f   mmcar:impactaudio.obj
 0001:0007a640       ?EchoOn@mmImpactAudio@@QAEXPAVmmCarSim@@@Z 0047b640 f   mmcar:impactaudio.obj
 0001:0007a650       ?EchoOff@mmImpactAudio@@QAEXPAVmmCarSim@@@Z 0047b650 f   mmcar:impactaudio.obj
 0001:0007a660       ?Play@mmImpactAudio@@QAEXMFMM@Z 0047b660 f   mmcar:impactaudio.obj
 0001:0007a6f0       ?PlayWall@mmImpactAudio@@QAEXMMM@Z 0047b6f0 f   mmcar:impactaudio.obj
 0001:0007a7f0       ?PlayCar@mmImpactAudio@@QAEXM@Z 0047b7f0 f   mmcar:impactaudio.obj
 0001:0007a800       ?GetBangerPtrs@mmImpactAudio@@QAEXFPAPAVAudSound@@0@Z 0047b800 f   mmcar:impactaudio.obj
 0001:0007aa80       ?PlayBanger@mmImpactAudio@@QAEXMF@Z 0047ba80 f   mmcar:impactaudio.obj
 0001:0007abc0       ?SetWallSoftVolumeRange@mmImpactAudio@@QAEXMM@Z 0047bbc0 f   mmcar:impactaudio.obj
 0001:0007abe0       ?SetWallSoftVolumeMultiplier@mmImpactAudio@@QAEXM@Z 0047bbe0 f   mmcar:impactaudio.obj
 0001:0007ac00       ?SetWallMedVolumeRange@mmImpactAudio@@QAEXMM@Z 0047bc00 f   mmcar:impactaudio.obj
 0001:0007ac20       ?SetWallMedVolumeMultiplier@mmImpactAudio@@QAEXM@Z 0047bc20 f   mmcar:impactaudio.obj
 0001:0007ac40       ?SetWallHugeVolumeRange@mmImpactAudio@@QAEXMM@Z 0047bc40 f   mmcar:impactaudio.obj
 0001:0007ac60       ?SetWallHugeVolumeMultiplier@mmImpactAudio@@QAEXM@Z 0047bc60 f   mmcar:impactaudio.obj
 0001:0007ac80       ?SetBangerVolumeRange@mmImpactAudio@@QAEXMMMF@Z 0047bc80 f   mmcar:impactaudio.obj
 0001:0007ad10       ?Update@mmImpactAudio@@QAEXXZ 0047bd10 f   mmcar:impactaudio.obj
 0001:0007ad20       ??0NetAddOnCarAudio@@QAE@PADF@Z 0047bd20 f   mmcar:netaddoncaraudio.obj
 0001:0007ae40       ??1NetAddOnCarAudio@@QAE@XZ 0047be40 f   mmcar:netaddoncaraudio.obj
 0001:0007ae90       ?AssignSounds@NetAddOnCarAudio@@QAEHPAVmmNetworkCarAudio@@F@Z 0047be90 f   mmcar:netaddoncaraudio.obj
 0001:0007af20       ?EchoOn@NetAddOnCarAudio@@QAEXM@Z 0047bf20 f   mmcar:netaddoncaraudio.obj
 0001:0007af80       ?EchoOff@NetAddOnCarAudio@@QAEXXZ 0047bf80 f   mmcar:netaddoncaraudio.obj
 0001:0007afb0       ?Update@NetAddOnCarAudio@@QAEXXZ 0047bfb0 f   mmcar:netaddoncaraudio.obj
 0001:0007afe0       ??0EngineAudioOpponent@@QAE@XZ 0047bfe0 f   mmcar:engineaudioopponent.obj
 0001:0007b040       ??1EngineAudioOpponent@@UAE@XZ 0047c040 f   mmcar:engineaudioopponent.obj
 0001:0007b070       ?Init@EngineAudioOpponent@@QAEXXZ 0047c070 f   mmcar:engineaudioopponent.obj
 0001:0007b0e0       ?Init@EngineAudioOpponent@@QAEXF@Z 0047c0e0 f   mmcar:engineaudioopponent.obj
 0001:0007b120       ?UpdateRPM@EngineAudioOpponent@@QAEXM@Z 0047c120 f   mmcar:engineaudioopponent.obj
 0001:0007b1f0       ?ClearName@EngineAudioOpponent@@QAEXXZ 0047c1f0 f   mmcar:engineaudioopponent.obj
 0001:0007b210       ?Enable3DMode@EngineAudioOpponent@@QAEXPAVVector3@@@Z 0047c210 f   mmcar:engineaudioopponent.obj
 0001:0007b230       ?Disable3DMode@EngineAudioOpponent@@QAEXXZ 0047c230 f   mmcar:engineaudioopponent.obj
 0001:0007b240       ?DeclareFields@EngineAudioOpponent@@SAXXZ 0047c240 f   mmcar:engineaudioopponent.obj
 0001:0007b440       ?GetClass@EngineAudioOpponent@@UAEPAVMetaClass@@XZ 0047c440 f   mmcar:engineaudioopponent.obj
 0001:0007b570       ??_EEngineAudioOpponent@@UAEPAXI@Z 0047c570 f i mmcar:engineaudioopponent.obj
 0001:0007b5d0       ??0mmOpponentSurfaceAudio@@QAE@XZ 0047c5d0 f   mmcar:opponentsurfaceaudio.obj
 0001:0007b600       ??1mmOpponentSurfaceAudio@@QAE@XZ 0047c600 f   mmcar:opponentsurfaceaudio.obj
 0001:0007b610       ?SetWheelPointers@mmOpponentSurfaceAudio@@QAEXPAVmmWheel@@000@Z 0047c610 f   mmcar:opponentsurfaceaudio.obj
 0001:0007b630       ?Update@mmOpponentSurfaceAudio@@QAEXM@Z 0047c630 f   mmcar:opponentsurfaceaudio.obj
 0001:0007b670       ?UpdateSkid@mmOpponentSurfaceAudio@@QAEXM@Z 0047c670 f   mmcar:opponentsurfaceaudio.obj
 0001:0007b8f0       ?UpdateSkidSnow@mmOpponentSurfaceAudio@@QAEXM@Z 0047c8f0 f   mmcar:opponentsurfaceaudio.obj
 0001:0007bb50       ?Enable3DMode@mmOpponentSurfaceAudio@@QAEXPAVVector3@@@Z 0047cb50 f   mmcar:opponentsurfaceaudio.obj
 0001:0007bb70       ?Disable3DMode@mmOpponentSurfaceAudio@@QAEXXZ 0047cb70 f   mmcar:opponentsurfaceaudio.obj
 0001:0007bca0       ??0EngineAudio@@QAE@XZ     0047cca0 f   mmcar:engineaudio.obj
 0001:0007bd20       ?Init@EngineAudio@@QAEXPAVVector3@@@Z 0047cd20 f   mmcar:engineaudio.obj
 0001:0007bf60       ?Init@EngineAudio@@QAEXPAD0@Z 0047cf60 f   mmcar:engineaudio.obj
 0001:0007c0f0       ??1EngineAudio@@UAE@XZ     0047d0f0 f   mmcar:engineaudio.obj
 0001:0007c1a0       ?EchoOn@EngineAudio@@QAEXM@Z 0047d1a0 f   mmcar:engineaudio.obj
 0001:0007c1f0       ?EchoOff@EngineAudio@@QAEXXZ 0047d1f0 f   mmcar:engineaudio.obj
 0001:0007c220       ?EnableClutch@EngineAudio@@QAEXPADM@Z 0047d220 f   mmcar:engineaudio.obj
 0001:0007c2d0       ?UpdateRPM@EngineAudio@@UAEXM@Z 0047d2d0 f   mmcar:engineaudio.obj
 0001:0007c530       ?ResetVolume@EngineAudio@@QAEXXZ 0047d530 f   mmcar:engineaudio.obj
 0001:0007c550       ?Stop@EngineAudio@@QAEXXZ  0047d550 f   mmcar:engineaudio.obj
 0001:0007c590       ?DeclareFields@EngineAudio@@SAXXZ 0047d590 f   mmcar:engineaudio.obj
 0001:0007c840       ?GetClass@EngineAudio@@UAEPAVMetaClass@@XZ 0047d840 f   mmcar:engineaudio.obj
 0001:0007c850       ??_EEngineAudio@@UAEPAXI@Z 0047d850 f i mmcar:engineaudio.obj
 0001:0007c8b0       ??0mmSurfaceAudio@@QAE@PAVmmCarSim@@PAVVector3@@@Z 0047d8b0 f   mmcar:surfaceaudio.obj
 0001:0007ccb0       ??1mmSurfaceAudio@@QAE@XZ  0047dcb0 f   mmcar:surfaceaudio.obj
 0001:0007cd20       ?EnableTireWobble@mmSurfaceAudio@@QAEXXZ 0047dd20 f   mmcar:surfaceaudio.obj
 0001:0007cdd0       ?EchoOn@mmSurfaceAudio@@QAEXPAVmmCarSim@@M@Z 0047ddd0 f   mmcar:surfaceaudio.obj
 0001:0007cee0       ?EchoOff@mmSurfaceAudio@@QAEXPAVmmCarSim@@@Z 0047dee0 f   mmcar:surfaceaudio.obj
 0001:0007cf90       ?EnableAir@mmSurfaceAudio@@QAEHPAVmmCarSim@@@Z 0047df90 f   mmcar:surfaceaudio.obj
 0001:0007d060       ?EnableSuspension@mmSurfaceAudio@@QAEHPAVmmCarSim@@@Z 0047e060 f   mmcar:surfaceaudio.obj
 0001:0007d110       ?EnableSurface@mmSurfaceAudio@@QAEHPAVmmCarSim@@@Z 0047e110 f   mmcar:surfaceaudio.obj
 0001:0007d2a0       ?DisableSurface@mmSurfaceAudio@@QAEXXZ 0047e2a0 f   mmcar:surfaceaudio.obj
 0001:0007d2c0       ?SetWheelPointers@mmSurfaceAudio@@QAEXPAVmmWheel@@000@Z 0047e2c0 f   mmcar:surfaceaudio.obj
 0001:0007d2f0       ?Update@mmSurfaceAudio@@QAEXM@Z 0047e2f0 f   mmcar:surfaceaudio.obj
 0001:0007d380       ?UpdateTireWobble@mmSurfaceAudio@@QAEXXZ 0047e380 f   mmcar:surfaceaudio.obj
 0001:0007d4d0       ?UpdateSurface@mmSurfaceAudio@@QAEXM@Z 0047e4d0 f   mmcar:surfaceaudio.obj
 0001:0007d750       ?UpdateSurfaceSnow@mmSurfaceAudio@@QAEXM@Z 0047e750 f   mmcar:surfaceaudio.obj
 0001:0007d930       ?PlayCobble@mmSurfaceAudio@@AAEXM@Z 0047e930 f   mmcar:surfaceaudio.obj
 0001:0007da60       ?UpdateSkidClear@mmSurfaceAudio@@QAEXM@Z 0047ea60 f   mmcar:surfaceaudio.obj
 0001:0007de20       ?UpdateSkidRain@mmSurfaceAudio@@QAEXM@Z 0047ee20 f   mmcar:surfaceaudio.obj
 0001:0007e1f0       ?UpdateSkidSnow@mmSurfaceAudio@@QAEXM@Z 0047f1f0 f   mmcar:surfaceaudio.obj
 0001:0007e520       ?UpdateSuspension@mmSurfaceAudio@@QAEXXZ 0047f520 f   mmcar:surfaceaudio.obj
 0001:0007e630       ?OnTwoWheels@mmSurfaceAudio@@QAEFXZ 0047f630 f   mmcar:surfaceaudio.obj
 0001:0007e6c0       ?SetWobblePitch@mmSurfaceAudio@@QAEXMM@Z 0047f6c0 f   mmcar:surfaceaudio.obj
 0001:0007e6e0       ?SetWobbleVol@mmSurfaceAudio@@QAEXMM@Z 0047f6e0 f   mmcar:surfaceaudio.obj
 0001:0007e740       ??0asNetwork@@QAE@XZ       0047f740 f   mmnetwork:network.obj
 0001:0007e7b0       ??1asNetwork@@QAE@XZ       0047f7b0 f   mmnetwork:network.obj
 0001:0007e7c0       ?Initialize@asNetwork@@QAEHHHH@Z 0047f7c0 f   mmnetwork:network.obj
 0001:0007e820       ?InitializeLobby@asNetwork@@QAEHHH@Z 0047f820 f   mmnetwork:network.obj
 0001:0007e890       ?WaitForLobbyConnection@asNetwork@@QAEXH@Z 0047f890 f   mmnetwork:network.obj
 0001:0007e8f0       ?JoinLobbySession@asNetwork@@QAEHXZ 0047f8f0 f   mmnetwork:network.obj
 0001:0007ea20       ?SendLobbyProperty@asNetwork@@QAEXPAXH@Z 0047fa20 f   mmnetwork:network.obj
 0001:0007eb00       ?Logout@asNetwork@@QAEXXZ  0047fb00 f   mmnetwork:network.obj
 0001:0007ebd0       ?Deallocate@asNetwork@@QAEXXZ 0047fbd0 f   mmnetwork:network.obj
 0001:0007ec10       ?CreateInterface@asNetwork@@QAEHXZ 0047fc10 f   mmnetwork:network.obj
 0001:0007ec30       ?GetNetworkCaps@asNetwork@@QAEHXZ 0047fc30 f   mmnetwork:network.obj
 0001:0007ecc0       ?GetProtocols@asNetwork@@QAEXXZ 0047fcc0 f   mmnetwork:network.obj
 0001:0007ecf0       ?SetProtocol@asNetwork@@QAEHHPAUNETCOMMPACK@@@Z 0047fcf0 f   mmnetwork:network.obj
 0001:0007f060       ?SetProtocol@asNetwork@@QAEHH@Z 00480060 f   mmnetwork:network.obj
 0001:0007f0c0       ?Disconnect@asNetwork@@QAEXXZ 004800c0 f   mmnetwork:network.obj
 0001:0007f110       ?GetEnumProtocol@asNetwork@@QAEPADH@Z 00480110 f   mmnetwork:network.obj
 0001:0007f140       ?GetNumProtocols@asNetwork@@QAEHXZ 00480140 f   mmnetwork:network.obj
 0001:0007f150       ?CreatePlayer@asNetwork@@QAEHPADPAXH@Z 00480150 f   mmnetwork:network.obj
 0001:0007f210       ?DestroyPlayer@asNetwork@@QAEXXZ 00480210 f   mmnetwork:network.obj
 0001:0007f250       ?GetPlayers@asNetwork@@QAEHPAU_GUID@@@Z 00480250 f   mmnetwork:network.obj
 0001:0007f280       ?GetEnumPlayer@asNetwork@@QAEPADH@Z 00480280 f   mmnetwork:network.obj
 0001:0007f2b0       ?GetPlayerID@asNetwork@@QAEKH@Z 004802b0 f   mmnetwork:network.obj
 0001:0007f2f0       ?GetNumPlayers@asNetwork@@QAEHXZ 004802f0 f   mmnetwork:network.obj
 0001:0007f3b0       ?GetPlayerName@asNetwork@@QAEPADK@Z 004803b0 f   mmnetwork:network.obj
 0001:0007f470       ?GetPlayerName@asNetwork@@QAEHKPAD@Z 00480470 f   mmnetwork:network.obj
 0001:0007f550       ?SetPlayerData@asNetwork@@QAEXKPAXH@Z 00480550 f   mmnetwork:network.obj
 0001:0007f5f0       ?GetEnumPlayerData@asNetwork@@QAEHHPAXH@Z 004805f0 f   mmnetwork:network.obj
 0001:0007f6b0       ?GetPlayerData@asNetwork@@QAEHKPAXH@Z 004806b0 f   mmnetwork:network.obj
 0001:0007f760       ?Ping@asNetwork@@QAEKK@Z   00480760 f   mmnetwork:network.obj
 0001:0007f830       ?CreateSession@asNetwork@@QAEHPAD0HPAUNETSESSION_DESC@@@Z 00480830 f   mmnetwork:network.obj
 0001:0007f920       ?JoinSession@asNetwork@@QAEHPADPAU_GUID@@0@Z 00480920 f   mmnetwork:network.obj
 0001:0007fb50       ?CloseSession@asNetwork@@QAEXXZ 00480b50 f   mmnetwork:network.obj
 0001:0007fb90       ?GetEnumSession@asNetwork@@QAEPADH@Z 00480b90 f   mmnetwork:network.obj
 0001:0007fbc0       ?GetEnumSessionID@asNetwork@@QAEHH@Z 00480bc0 f   mmnetwork:network.obj
 0001:0007fbf0       ?GetNumSessions@asNetwork@@QAEHXZ 00480bf0 f   mmnetwork:network.obj
 0001:0007fc00       ?SealSession@asNetwork@@QAEXXZ 00480c00 f   mmnetwork:network.obj
 0001:0007fd20       ?UnSealSession@asNetwork@@QAEXXZ 00480d20 f   mmnetwork:network.obj
 0001:0007fe40       ?GetSessionData@asNetwork@@QAEXPAUNETSESSION_DESC@@@Z 00480e40 f   mmnetwork:network.obj
 0001:0007ff00       ?SetSessionData@asNetwork@@QAEXPAUNETSESSION_DESC@@PAD@Z 00480f00 f   mmnetwork:network.obj
 0001:00080040       ?GetSessionsSynch@asNetwork@@QAEHH@Z 00481040 f   mmnetwork:network.obj
 0001:000800f0       ?GetSessionsAsynch@asNetwork@@QAEXXZ 004810f0 f   mmnetwork:network.obj
 0001:00080150       ?StopSessionsAsynch@asNetwork@@QAEXXZ 00481150 f   mmnetwork:network.obj
 0001:000801d0       ?PollLobby@asNetwork@@QAEHXZ 004811d0 f   mmnetwork:network.obj
 0001:00080270       ?Update@asNetwork@@QAEHXZ  00481270 f   mmnetwork:network.obj
 0001:00080370       ?HandleAppMessage@asNetwork@@QAEXPAX@Z 00481370 f   mmnetwork:network.obj
 0001:00080390       ?HandleSysMessage@asNetwork@@QAEXPAUDPMSG_GENERIC@@@Z 00481390 f   mmnetwork:network.obj
 0001:000805e0       ?ChatMessage@asNetwork@@QAEXKPAD@Z 004815e0 f   mmnetwork:network.obj
 0001:000806a0       ?Send@asNetwork@@QAEXKPAXKH@Z 004816a0 f   mmnetwork:network.obj
 0001:00080770       ?GetMyLogicalIndex@asNetwork@@QAEHXZ 00481770 f   mmnetwork:network.obj
 0001:000807b0       ?GetGameVersion@asNetwork@@QAEHH@Z 004817b0 f   mmnetwork:network.obj
 0001:000807e0       ?GetEnumSessionStatus@asNetwork@@QAEHH@Z 004817e0 f   mmnetwork:network.obj
 0001:00080810       ?GetEnumSessionLock@asNetwork@@QAEHH@Z 00481810 f   mmnetwork:network.obj
 0001:00080840       ?SetEnumSessionLock@asNetwork@@QAEXHH@Z 00481840 f   mmnetwork:network.obj
 0001:00080860       ?EnumSessionCallback@@YGHPBUDPSESSIONDESC2@@PAKKPAX@Z 00481860 f   mmnetwork:network.obj
 0001:00080920       ?EnumConnectionsCallback@@YGHPBU_GUID@@PAXKPBUDPNAME@@K1@Z 00481920 f   mmnetwork:network.obj
 0001:00080990       ?EnumPlayersCallback@@YGHKKPBUDPNAME@@KPAX@Z 00481990 f   mmnetwork:network.obj
 0001:000809f0       ?JoinSession@asNetwork@@QAEHHPAD@Z 004819f0 f   mmnetwork:network.obj
 0001:00080a70       ?GetNumModems@asNetwork@@QAEHXZ 00481a70 f   mmnetwork:network.obj
 0001:00080a80       ?GetEnumModem@asNetwork@@QAEPADH@Z 00481a80 f   mmnetwork:network.obj
 0001:00080ab0       ?QueryModems@asNetwork@@QAEHXZ 00481ab0 f   mmnetwork:network.obj
 0001:00080be0       ?EnumModemAddress@@YGHABU_GUID@@KPBXPAX@Z 00481be0 f   mmnetwork:network.obj
 0001:00080c50       ??0asNetObject@@QAE@XZ     00481c50 f   mmnetwork:netobject.obj
 0001:00080c70       ??1asNetObject@@UAE@XZ     00481c70 f   mmnetwork:netobject.obj
 0001:00080c80       ?PositionUpdate@asNetObject@@UAEXPAVMatrix34@@VVector3@@MMM@Z 00481c80 f   mmnetwork:netobject.obj
 0001:00080ca0       ?Update@asNetObject@@UAEXXZ 00481ca0 f   mmnetwork:netobject.obj
 0001:00080cb0       ??_GasNetObject@@UAEPAXI@Z 00481cb0 f i mmnetwork:netobject.obj
 0001:00080cb0       ??_EasNetObject@@UAEPAXI@Z 00481cb0 f i mmnetwork:netobject.obj
 0001:00080ce0       ??0mmLoader@@QAE@XZ        00481ce0 f   mmcity:loader.obj
 0001:00080e30       ??1mmLoader@@UAE@XZ        00481e30 f   mmcity:loader.obj
 0001:00080ed0       ?Init@mmLoader@@QAEXPADMM@Z 00481ed0 f   mmcity:loader.obj
 0001:00080fc0       ?Shutdown@mmLoader@@QAEXXZ 00481fc0 f   mmcity:loader.obj
 0001:00080fd0       ?SetIntroText@mmLoader@@QAEXPAULocString@@@Z 00481fd0 f   mmcity:loader.obj
 0001:00081000       ?BeginTask@mmLoader@@QAEXPAULocString@@M@Z 00482000 f   mmcity:loader.obj
 0001:00081080       ?EndTask@mmLoader@@QAEXM@Z 00482080 f   mmcity:loader.obj
 0001:00081120       ?Percent@mmLoader@@QAEXH@Z 00482120 f   mmcity:loader.obj
 0001:00081170       ?Reset@mmLoader@@QAEXXZ    00482170 f   mmcity:loader.obj
 0001:00081190       ?Update@mmLoader@@QAEXXZ   00482190 f   mmcity:loader.obj
 0001:00081220       ?Cull@mmLoader@@UAEXXZ     00482220 f   mmcity:loader.obj
 0001:000812d0       ??_EmmLoader@@UAEPAXI@Z    004822d0 f i mmcity:loader.obj
 0001:000812d0       ??_GmmLoader@@UAEPAXI@Z    004822d0 f i mmcity:loader.obj
 0001:00081300       ??_GasCullable@@UAEPAXI@Z  00482300 f i mmcity:loader.obj
 0001:00081330       ??1asCullable@@UAE@XZ      00482330 f i mmcity:loader.obj
 0001:00081340       ??0mmCullCity@@QAE@XZ      00482340 f   mmcity:cullcity.obj
 0001:00081520       ??1mmCullCity@@UAE@XZ      00482520 f   mmcity:cullcity.obj
 0001:000816c0       ?GetHitId@mmCullCity@@QAEFAAVVector3@@@Z 004826c0 f   mmcity:cullcity.obj
 0001:000816f0       ?Draw@mmUpperInstance@@EAIXH@Z 004826f0 f   mmcity:cullcity.obj
 0001:00081750       ??0mmRunwayLight@@QAE@PADAAVVector3@@1@Z 00482750 f   mmcity:cullcity.obj
 0001:00081910       ?GetPos@mmRunwayLight@@UAIAAVVector3@@XZ 00482910 f   mmcity:cullcity.obj
 0001:00081920       ?FromMatrix@mmRunwayLight@@UAIXABVMatrix34@@@Z 00482920 f   mmcity:cullcity.obj
 0001:00081930       ?ToMatrix@mmRunwayLight@@UAIAAVMatrix34@@AAV2@@Z 00482930 f   mmcity:cullcity.obj
 0001:00081960       ?Draw@mmRunwayLight@@UAIXH@Z 00482960 f   mmcity:cullcity.obj
 0001:00081a60       ?GetScale@mmRunwayLight@@UAIMXZ 00482a60 f   mmcity:cullcity.obj
 0001:00081a70       ?AddInstance@mmCullCity@@AAEXHPAD0HPAVVector3@@11M@Z 00482a70 f   mmcity:cullcity.obj
 0001:00081df0       ?ReparentObject@mmCullCity@@QAEXPAVmmInstance@@@Z 00482df0 f   mmcity:cullcity.obj
 0001:00081e80       ?Init@mmCullCity@@QAEXPADPAVasCamera@@@Z 00482e80 f   mmcity:cullcity.obj
 0001:00082370       ?Reset@mmCullCity@@UAEXXZ  00483370 f   mmcity:cullcity.obj
 0001:00082440       ?InitObjectDetail@mmCullCity@@QAEXXZ 00483440 f   mmcity:cullcity.obj
 0001:00082470       ?LoadBangers@mmCullCity@@QAEXPAD@Z 00483470 f   mmcity:cullcity.obj
 0001:00082590       ?LoadFacades@mmCullCity@@QAEXPAD@Z 00483590 f   mmcity:cullcity.obj
 0001:000826a0       ?InitSnowTextures@mmCullCity@@AAEXXZ 004836a0 f   mmcity:cullcity.obj
 0001:00082890       ?UpdateSnowTextures@mmCullCity@@AAEXXZ 00483890 f   mmcity:cullcity.obj
 0001:00082b30       ?IsPolyWater@mmCullCity@@QAEHPAVmmPolygon@@@Z 00483b30 f   mmcity:cullcity.obj
 0001:00082b70       ?Update@mmCullCity@@UAEXXZ 00483b70 f   mmcity:cullcity.obj
 0001:00082db0       ?Cull@mmCullCity@@UAEXXZ   00483db0 f   mmcity:cullcity.obj
 0001:00082ee0       ?ToggleSky@mmCullCity@@QAEXXZ 00483ee0 f   mmcity:cullcity.obj
 0001:00082ef0       ?GetRoomFlags@mmCullCity@@QAEFF@Z 00483ef0 f   mmcity:cullcity.obj
 0001:00082f30       ?RelightEverything@mmCullCity@@QAEXXZ 00483f30 f   mmcity:cullcity.obj
 0001:00082f90       ?fix_clip@@YAXXZ           00483f90 f   mmcity:cullcity.obj
 0001:00083000       ?fix_lighting@@YAXXZ       00484000 f   mmcity:cullcity.obj
 0001:000830a0       ?InitTimeOfDayAndWeather@mmCullCity@@AAEXXZ 004840a0 f   mmcity:cullcity.obj
 0001:000839e0       ?DeclareFields@mmCullCity@@SAXXZ 004849e0 f   mmcity:cullcity.obj
 0001:00083b50       ?GetClass@mmCullCity@@UAEPAVMetaClass@@XZ 00484b50 f   mmcity:cullcity.obj
 0001:00083b60       ?AddWidgets@mmRunwayLight@@UAEXPAVBank@@@Z 00484b60 f i mmcity:cullcity.obj
 0001:00083b70       ??_EmmRunwayLight@@UAEPAXI@Z 00484b70 f i mmcity:cullcity.obj
 0001:00083b70       ??_GmmRunwayLight@@UAEPAXI@Z 00484b70 f i mmcity:cullcity.obj
 0001:00083b90       ??1mmRunwayLight@@UAE@XZ   00484b90 f i mmcity:cullcity.obj
 0001:00083ba0       ??_GmmUpperInstance@@UAEPAXI@Z 00484ba0 f i mmcity:cullcity.obj
 0001:00083ba0       ??_EmmUpperInstance@@UAEPAXI@Z 00484ba0 f i mmcity:cullcity.obj
 0001:00083bc0       ??1mmUpperInstance@@UAE@XZ 00484bc0 f i mmcity:cullcity.obj
 0001:00083bd0       ??_EmmCullCity@@UAEPAXI@Z  00484bd0 f i mmcity:cullcity.obj
 0001:00083c30       ?Add@?$agiLib@VagiTexParameters@@VagiTexDef@@@@QAEHAAVagiTexParameters@@@Z 00484c30 f i mmcity:cullcity.obj
 0001:00083d10       ??_GmmShearInstance@@UAEPAXI@Z 00484d10 f i mmcity:cullcity.obj
 0001:00083d30       ??1mmShearInstance@@UAE@XZ 00484d30 f i mmcity:cullcity.obj
 0001:00083d40       ??_GmmBuildingInstance@@UAEPAXI@Z 00484d40 f i mmcity:cullcity.obj
 0001:00083d60       ??1mmBuildingInstance@@UAE@XZ 00484d60 f i mmcity:cullcity.obj
 0001:00083d70       ??_EmmUnhitBangerInstance@@UAEPAXI@Z 00484d70 f i mmcity:cullcity.obj
 0001:00083d70       ??_GmmUnhitBangerInstance@@UAEPAXI@Z 00484d70 f i mmcity:cullcity.obj
 0001:00083d90       ??1mmUnhitBangerInstance@@UAE@XZ 00484d90 f i mmcity:cullcity.obj
 0001:00083da0       ??_GmmBangerManager@@UAEPAXI@Z 00484da0 f i mmcity:cullcity.obj
 0001:00083da0       ??_EmmBangerManager@@UAEPAXI@Z 00484da0 f i mmcity:cullcity.obj
 0001:00083dd0       ??1mmBangerManager@@UAE@XZ 00484dd0 f i mmcity:cullcity.obj
 0001:00083de0       ??0mmPositions@@QAE@XZ     00484de0 f   mmcity:position.obj
 0001:00083df0       ?Init@mmPositions@@QAEXH@Z 00484df0 f   mmcity:position.obj
 0001:00083e20       ?Load@mmPositions@@QAEHPAD@Z 00484e20 f   mmcity:position.obj
 0001:00083ff0       ?GetCount@mmPositions@@QAEHXZ 00484ff0 f   mmcity:position.obj
 0001:00084000       ?GetVector4@mmPositions@@QAEAAVVector4@@H@Z 00485000 f   mmcity:position.obj
 0001:00084030       ?Dump@mmPositions@@QAEXPAD@Z 00485030 f   mmcity:position.obj
 0001:000840d0       ?Recall@mmPositions@@QAEHHPAVMatrix34@@PAHPAD@Z 004850d0 f   mmcity:position.obj
 0001:00084160       ?Register@mmPositions@@QAEHAAVVector4@@HHHHPAD@Z 00485160 f   mmcity:position.obj
 0001:00084260       ?InitPositions@@YAXXZ      00485260 f   mmcity:positions.obj
 0001:000842a0       ?LoadPositions@@YAXPAD@Z   004852a0 f   mmcity:positions.obj
 0001:00084460       ?GetPositionCount@@YAHXZ   00485460 f   mmcity:positions.obj
 0001:00084470       ?GetPositionVector4@@YAAAVVector4@@H@Z 00485470 f   mmcity:positions.obj
 0001:000844a0       ?DumpPositions@@YAXPAD@Z   004854a0 f   mmcity:positions.obj
 0001:00084560       ?RecallPosition@@YAHHPAVMatrix34@@PAHPAD@Z 00485560 f   mmcity:positions.obj
 0001:000845f0       ?RegisterPosition@@YAHAAVVector4@@HHHHPAD@Z 004855f0 f   mmcity:positions.obj
 0001:00084750       ??1position_t@@QAE@XZ      00485750 f i mmcity:positions.obj
 0001:00084760       ??0mmInstChain@@QAE@XZ     00485760 f   mmcity:instchn.obj
 0001:00084770       ??1mmInstChain@@QAE@XZ     00485770 f   mmcity:instchn.obj
 0001:00084790       ?Init@mmInstChain@@QAEXH@Z 00485790 f   mmcity:instchn.obj
 0001:000847f0       ?Parent@mmInstChain@@QAEXPAVmmInstance@@F@Z 004857f0 f   mmcity:instchn.obj
 0001:00084880       ?Unparent@mmInstChain@@QAEXPAVmmInstance@@@Z 00485880 f   mmcity:instchn.obj
 0001:00084920       ?Reparent@mmInstChain@@QAEXPAVmmInstance@@F@Z 00485920 f   mmcity:instchn.obj
 0001:00084950       ?RelightEverything@mmInstChain@@QAEXXZ 00485950 f   mmcity:instchn.obj
 0001:00084970       ?Relight@mmInstChain@@QAEXF@Z 00485970 f   mmcity:instchn.obj
 0001:000849a0       ?Draw@mmInstChain@@QAEXFFIHM@Z 004859a0 f   mmcity:instchn.obj
 0001:00084d10       ??0asRenderWeb@@QAE@XZ     00485d10 f   mmcity:renderweb.obj
 0001:00084d90       ??1asRenderWeb@@UAE@XZ     00485d90 f   mmcity:renderweb.obj
 0001:00084e20       ?GetStartCell@asRenderWeb@@UAEPAUasPortalCell@@AAVVector3@@PAU2@PAPAVmmPolygon@@@Z 00485e20 f   mmcity:renderweb.obj
 0001:00085040       ?Load@asRenderWeb@@QAEHPADH@Z 00486040 f   mmcity:renderweb.obj
 0001:00085d10       ?Update@asRenderWeb@@UAEXXZ 00486d10 f   mmcity:renderweb.obj
 0001:00085da0       ?UpdateMirror@asRenderWeb@@QAEXXZ 00486da0 f   mmcity:renderweb.obj
 0001:00085eb0       ?SetMirrorPos@asRenderWeb@@QAEXMMMMM@Z 00486eb0 f   mmcity:renderweb.obj
 0001:00085f80       ?DrawMirrorBorder@@YAXXZ   00486f80 f   mmcity:renderweb.obj
 0001:00086030       ?Cull@asRenderWeb@@UAEXXZ  00487030 f   mmcity:renderweb.obj
 0001:00086430       ?GetCellNeighbors@asRenderWeb@@QAEHHPAPAUasPortalCell@@H@Z 00487430 f   mmcity:renderweb.obj
 0001:000864a0       ?DeclareFields@asRenderWeb@@SAXXZ 004874a0 f   mmcity:renderweb.obj
 0001:00086620       ?GetClass@asRenderWeb@@UAEPAVMetaClass@@XZ 00487620 f   mmcity:renderweb.obj
 0001:00086630       ??_EasRenderWeb@@UAEPAXI@Z 00487630 f i mmcity:renderweb.obj
 0001:000866d0       ??0mmInstance@@QAE@XZ      004876d0 f   mmcity:inst.obj
 0001:00086700       ??1mmInstance@@UAE@XZ      00487700 f   mmcity:inst.obj
 0001:00086710       ?Relight@mmInstance@@UAIXXZ 00487710 f   mmcity:inst.obj
 0001:00086720       ?GetScale@mmInstance@@UAIMXZ 00487720 f   mmcity:inst.obj
 0001:00086730       ?ComputeLod@mmInstance@@UAEHMM@Z 00487730 f   mmcity:inst.obj
 0001:000867a0       ?Draw@mmInstance@@UAIXH@Z  004877a0 f   mmcity:inst.obj
 0001:000867f0       ?DrawShadow@mmInstance@@UAIXXZ 004877f0 f   mmcity:inst.obj
 0001:00086800       ?DrawGlow@mmInstance@@UAIXXZ 00487800 f   mmcity:inst.obj
 0001:00086810       ?Init@mmInstance@@UAEHPADAAVVector3@@1H0@Z 00487810 f   mmcity:inst.obj
 0001:000868b0       ?formatf@@YAPADPBDZZ       004878b0 f   mmcity:inst.obj
 0001:000868d0       ?GetResidentMeshSet@mmInstance@@QAEPAVagiMeshSet@@HHH@Z 004878d0 f   mmcity:inst.obj
 0001:00086960       ?GetMeshSetSet@mmInstance@@SAHPADH0PAVVector3@@@Z 00487960 f   mmcity:inst.obj
 0001:00086dd0       ?GetPolyInfo@@YAHPAVagiMeshSet@@@Z 00487dd0 f   mmcity:inst.obj
 0001:00086e10       ?SizeOf@mmInstance@@UAEIXZ 00487e10 f   mmcity:inst.obj
 0001:00086e20       ?Reset@mmInstance@@UAEXXZ  00487e20 f   mmcity:inst.obj
 0001:00086e30       ?ResetAll@mmInstance@@SAXXZ 00487e30 f   mmcity:inst.obj
 0001:00086f40       ?InitMeshes@mmInstance@@QAEXPADH0PAVVector3@@@Z 00487f40 f   mmcity:inst.obj
 0001:00086f80       ?AddMeshes@mmInstance@@QAEXPADH0PAVVector3@@@Z 00487f80 f   mmcity:inst.obj
 0001:00086fa0       ??0mmYInstance@@QAE@XZ     00487fa0 f   mmcity:inst.obj
 0001:00086fd0       ??1mmYInstance@@UAE@XZ     00487fd0 f   mmcity:inst.obj
 0001:00086fe0       ?FromMatrix@mmYInstance@@UAIXABVMatrix34@@@Z 00487fe0 f   mmcity:inst.obj
 0001:00087030       ?ToMatrix@mmYInstance@@UAIAAVMatrix34@@AAV2@@Z 00488030 f   mmcity:inst.obj
 0001:00087080       ?GetPos@mmYInstance@@UAIAAVVector3@@XZ 00488080 f   mmcity:inst.obj
 0001:00087090       ?SizeOf@mmYInstance@@UAEIXZ 00488090 f   mmcity:inst.obj
 0001:000870a0       ??0mmMatrixInstance@@QAE@XZ 004880a0 f   mmcity:inst.obj
 0001:000870d0       ??1mmMatrixInstance@@UAE@XZ 004880d0 f   mmcity:inst.obj
 0001:000870e0       ?FromMatrix@mmMatrixInstance@@UAIXABVMatrix34@@@Z 004880e0 f   mmcity:inst.obj
 0001:00087100       ?ToMatrix@mmMatrixInstance@@UAIAAVMatrix34@@AAV2@@Z 00488100 f   mmcity:inst.obj
 0001:00087110       ?GetPos@mmMatrixInstance@@UAIAAVVector3@@XZ 00488110 f   mmcity:inst.obj
 0001:00087120       ?Init@mmMatrixInstance@@QAEHPADAAVVector3@@11H0@Z 00488120 f   mmcity:inst.obj
 0001:00087250       ?Hit@mmMatrixInstance@@UAEXPAVmmInstance@@@Z 00488250 f   mmcity:inst.obj
 0001:00087260       ?SizeOf@mmMatrixInstance@@UAEIXZ 00488260 f   mmcity:inst.obj
 0001:00087270       ??0mmStaticInstance@@QAE@XZ 00488270 f   mmcity:inst.obj
 0001:00087290       ??1mmStaticInstance@@UAE@XZ 00488290 f   mmcity:inst.obj
 0001:000872a0       ?Init@mmStaticInstance@@QAEHPADAAVVector3@@1MH0@Z 004882a0 f   mmcity:inst.obj
 0001:00087420       ??0mmFacadeInstance@@QAE@XZ 00488420 f   mmcity:inst.obj
 0001:00087440       ??1mmFacadeInstance@@UAE@XZ 00488440 f   mmcity:inst.obj
 0001:00087450       ?DoubleArea@mmFacadeQuad@@SAMPAVagiMeshSet@@@Z 00488450 f   mmcity:inst.obj
 0001:000874b0       ?Valid@mmFacadeQuad@@SAHPAVagiMeshSet@@@Z 004884b0 f   mmcity:inst.obj
 0001:000874e0       ??0mmFacadeQuad@@QAE@PAVagiMeshSet@@MM@Z 004884e0 f   mmcity:inst.obj
 0001:00087800       ?DrawLit@mmFacadeQuad@@QAEXP6AXPAEPAI1PAVagiMeshSet@@@Z2@Z 00488800 f   mmcity:inst.obj
 0001:00087950       ?InitFacade@mmFacadeInstance@@QAEHPADAAVVector3@@1MHABV2@@Z 00488950 f   mmcity:inst.obj
 0001:00087c80       ?GetScale@mmFacadeInstance@@UAIMXZ 00488c80 f   mmcity:inst.obj
 0001:00087c90       ?SizeOf@mmFacadeInstance@@UAEIXZ 00488c90 f   mmcity:inst.obj
 0001:00087ca0       ?Draw@mmFacadeInstance@@UAIXH@Z 00488ca0 f   mmcity:inst.obj
 0001:00087e50       ?SizeOf@mmStaticInstance@@UAEIXZ 00488e50 f   mmcity:inst.obj
 0001:00087e60       ?Relight@mmStaticInstance@@UAIXXZ 00488e60 f   mmcity:inst.obj
 0001:00087e70       ?Draw@mmStaticInstance@@UAIXH@Z 00488e70 f   mmcity:inst.obj
 0001:00087ec0       ?SizeOf@mmShearInstance@@UAEIXZ 00488ec0 f   mmcity:inst.obj
 0001:00087ed0       ?Init@mmShearInstance@@QAEHPADAAVVector3@@1MH0@Z 00488ed0 f   mmcity:inst.obj
 0001:00088090       ?Draw@mmShearInstance@@UAIXH@Z 00489090 f   mmcity:inst.obj
 0001:000880b0       ?GetScale@mmShearInstance@@UAIMXZ 004890b0 f   mmcity:inst.obj
 0001:000880c0       ?SizeOf@mmBuildingInstance@@UAEIXZ 004890c0 f   mmcity:inst.obj
 0001:000880d0       ?Init@mmBuildingInstance@@QAEHPADAAVVector3@@11@Z 004890d0 f   mmcity:inst.obj
 0001:00088210       ?GetScale@mmBuildingInstance@@UAIMXZ 00489210 f   mmcity:inst.obj
 0001:00088220       ?Draw@mmBuildingInstance@@UAIXH@Z 00489220 f   mmcity:inst.obj
 0001:000882d0       ?DrawDropShadow@mmInstance@@QAEXHHABVMatrix34@@@Z 004892d0 f   mmcity:inst.obj
 0001:00088570       ?DeclareFields@mmInstance@@SAXXZ 00489570 f   mmcity:inst.obj
 0001:00088610       ?GetClass@mmInstance@@UAEPAVMetaClass@@XZ 00489610 f   mmcity:inst.obj
 0001:00088620       ?DeclareFields@mmYInstance@@SAXXZ 00489620 f   mmcity:inst.obj
 0001:000886c0       ?GetClass@mmYInstance@@UAEPAVMetaClass@@XZ 004896c0 f   mmcity:inst.obj
 0001:000886d0       ?DeclareFields@mmMatrixInstance@@SAXXZ 004896d0 f   mmcity:inst.obj
 0001:00088850       ?GetClass@mmMatrixInstance@@UAEPAVMetaClass@@XZ 00489850 f   mmcity:inst.obj
 0001:00088860       ?DeclareFields@mmShearInstance@@SAXXZ 00489860 f   mmcity:inst.obj
 0001:000889f0       ?GetClass@mmShearInstance@@UAEPAVMetaClass@@XZ 004899f0 f   mmcity:inst.obj
 0001:00088a00       ?DeclareFields@mmBuildingInstance@@SAXXZ 00489a00 f   mmcity:inst.obj
 0001:00088b90       ?GetClass@mmBuildingInstance@@UAEPAVMetaClass@@XZ 00489b90 f   mmcity:inst.obj
 0001:00088ba0       ?DeclareFields@mmStaticInstance@@SAXXZ 00489ba0 f   mmcity:inst.obj
 0001:00088d20       ?GetClass@mmStaticInstance@@UAEPAVMetaClass@@XZ 00489d20 f   mmcity:inst.obj
 0001:00088d30       ?DeclareFields@mmFacadeInstance@@SAXXZ 00489d30 f   mmcity:inst.obj
 0001:00088eb0       ?GetClass@mmFacadeInstance@@UAEPAVMetaClass@@XZ 00489eb0 f   mmcity:inst.obj
 0001:00088ec0       ??_GmmInstance@@UAEPAXI@Z  00489ec0 f i mmcity:inst.obj
 0001:00088ec0       ??_EmmInstance@@UAEPAXI@Z  00489ec0 f i mmcity:inst.obj
 0001:00088ee0       ??_EmmYInstance@@UAEPAXI@Z 00489ee0 f i mmcity:inst.obj
 0001:00088ee0       ??_GmmYInstance@@UAEPAXI@Z 00489ee0 f i mmcity:inst.obj
 0001:00088f00       ??_EmmMatrixInstance@@UAEPAXI@Z 00489f00 f i mmcity:inst.obj
 0001:00088f60       ??_EmmShearInstance@@UAEPAXI@Z 00489f60 f i mmcity:inst.obj
 0001:00088fc0       ??0mmShearInstance@@QAE@XZ 00489fc0 f i mmcity:inst.obj
 0001:00088fe0       ??_EmmBuildingInstance@@UAEPAXI@Z 00489fe0 f i mmcity:inst.obj
 0001:00089040       ??0mmBuildingInstance@@QAE@XZ 0048a040 f i mmcity:inst.obj
 0001:00089060       ??_EmmStaticInstance@@UAEPAXI@Z 0048a060 f i mmcity:inst.obj
 0001:000890c0       ??_EmmFacadeInstance@@UAEPAXI@Z 0048a0c0 f i mmcity:inst.obj
 0001:00089120       ?mmHeapError@@YAXXZ        0048a120 f   mmcity:heap.obj
 0001:00089130       ??0mmSky@@QAE@XZ           0048a130 f   mmcity:sky.obj
 0001:00089170       ??1mmSky@@QAE@XZ           0048a170 f   mmcity:sky.obj
 0001:000891b0       ?Init@mmSky@@QAEXPAD@Z     0048a1b0 f   mmcity:sky.obj
 0001:000891e0       ?SetTexture@mmSky@@QAEXPAVagiTexDef@@@Z 0048a1e0 f   mmcity:sky.obj
 0001:00089200       ?Draw@mmSky@@QAEXAAVMatrix34@@@Z 0048a200 f   mmcity:sky.obj
 0001:00089330       ??0mmPed@@QAE@XZ           0048a330 f   mmcity:ped.obj
 0001:00089350       ?Init@mmPed@@QAEXPADAAVVector3@@@Z 0048a350 f   mmcity:ped.obj
 0001:000893e0       ??1mmPed@@UAE@XZ           0048a3e0 f   mmcity:ped.obj
 0001:000893f0       ?Update@mmPed@@QAEXXZ      0048a3f0 f   mmcity:ped.obj
 0001:00089410       ?Draw@mmPed@@UAIXH@Z       0048a410 f   mmcity:ped.obj
 0001:00089440       ?ToMatrix@mmPed@@UAIAAVMatrix34@@AAV2@@Z 0048a440 f   mmcity:ped.obj
 0001:00089490       ??0mmPedManager@@QAE@XZ    0048a490 f   mmcity:ped.obj
 0001:000894b0       ??1mmPedManager@@UAE@XZ    0048a4b0 f   mmcity:ped.obj
 0001:000894c0       ?Init@mmPedManager@@QAEXH@Z 0048a4c0 f   mmcity:ped.obj
 0001:00089570       ?Update@mmPedManager@@UAEXXZ 0048a570 f   mmcity:ped.obj
 0001:000895a0       ?DeclareFields@mmPed@@SAXXZ 0048a5a0 f   mmcity:ped.obj
 0001:00089720       ?GetClass@mmPed@@UAEPAVMetaClass@@XZ 0048a720 f   mmcity:ped.obj
 0001:00089730       ?DeclareFields@mmPedManager@@SAXXZ 0048a730 f   mmcity:ped.obj
 0001:00089890       ?GetClass@mmPedManager@@UAEPAVMetaClass@@XZ 0048a890 f   mmcity:ped.obj
 0001:000898a0       ??_EmmPed@@UAEPAXI@Z       0048a8a0 f i mmcity:ped.obj
 0001:00089900       ??_EmmPedManager@@UAEPAXI@Z 0048a900 f i mmcity:ped.obj
 0001:00089960       ?LookupSequence@mmAnimation@@QAEHPAD@Z 0048a960 f   mmcity:anim.obj
 0001:000899c0       ?Load@mmAnimation@@QAEXPADPAVStream@@@Z 0048a9c0 f   mmcity:anim.obj
 0001:0008a1d0       ?GetAnimation@@YAPAVmmAnimation@@PAD@Z 0048b1d0 f   mmcity:anim.obj
 0001:0008a300       ?PreUpdate@mmAnimInstState@@SAXM@Z 0048b300 f   mmcity:anim.obj
 0001:0008a350       ?Update@mmAnimInstState@@QAEXXZ 0048b350 f   mmcity:anim.obj
 0001:0008a420       ??1HashTable@@QAE@XZ       0048b420 f i mmcity:anim.obj
 0001:0008a440       ??0mmCellRenderer@@QAE@XZ  0048b440 f   mmcity:cellrend.obj
 0001:0008a470       ??1mmCellRenderer@@QAE@XZ  0048b470 f   mmcity:cellrend.obj
 0001:0008a4b0       ?Init@mmCellRenderer@@QAEXPADHHHHPAH@Z 0048b4b0 f   mmcity:cellrend.obj
 0001:0008a9e0       ?Relight@mmCellRenderer@@QAEXXZ 0048b9e0 f   mmcity:cellrend.obj
 0001:0008a9f0       ?Cull@mmCellRenderer@@UAEXH@Z 0048b9f0 f   mmcity:cellrend.obj
 0001:0008b120       ?AddCell@asPortalWeb@@QAEPAUasPortalCell@@PADPAVasPortalRenderable@@I@Z 0048c120 f   mmcity:portal.obj
 0001:0008b170       ?DeleteCell@asPortalWeb@@QAEXPAUasPortalCell@@@Z 0048c170 f   mmcity:portal.obj
 0001:0008b220       ?AddEdge@asPortalWeb@@QAEPAUasPortalEdge@@PADPAUasPortalCell@@1H@Z 0048c220 f   mmcity:portal.obj
 0001:0008b2e0       ?DeleteEdge@asPortalWeb@@QAEXPAUasPortalEdge@@@Z 0048c2e0 f   mmcity:portal.obj
 0001:0008b2f0       ?LookupCell@@YAPAUasPortalCell@@PAD@Z 0048c2f0 f   mmcity:portal.obj
 0001:0008b300       ?LookupEdge@@YAPAUasPortalCell@@PAD@Z 0048c300 f   mmcity:portal.obj
 0001:0008b310       ?Init@asPortalPVS@@QAEXHH@Z 0048c310 f   mmcity:portal.obj
 0001:0008b370       ?Create@asPortalPVS@@SAPAU1@HZZ 0048c370 f   mmcity:portal.obj
 0001:0008b3f0       ?SetVisible@asPortalPVS@@QAEXI@Z 0048c3f0 f   mmcity:portal.obj
 0001:0008b420       ??0asPortalWeb@@QAE@XZ     0048c420 f   mmcity:portal.obj
 0001:0008b450       ?Update@asPortalWeb@@UAEXXZ 0048c450 f   mmcity:portal.obj
 0001:0008bf50       ?BuildGroups@asPortalWeb@@QAEXXZ 0048cf50 f   mmcity:portal.obj
 0001:0008c540       ?Cull@asPortalWeb@@QAEXH@Z 0048d540 f   mmcity:portal.obj
 0001:0008c740       ??1asPortalWeb@@UAE@XZ     0048d740 f   mmcity:portal.obj
 0001:0008c7b0       ?DeclareFields@asPortalWeb@@SAXXZ 0048d7b0 f   mmcity:portal.obj
 0001:0008c850       ?GetClass@asPortalWeb@@UAEPAVMetaClass@@XZ 0048d850 f   mmcity:portal.obj
 0001:0008c860       ??_EasPortalWeb@@UAEPAXI@Z 0048d860 f i mmcity:portal.obj
 0001:0008c860       ??_GasPortalWeb@@UAEPAXI@Z 0048d860 f i mmcity:portal.obj
 0001:0008c890       ??0asPortalEdge@@QAE@PAUasPortalCell@@0H@Z 0048d890 f i mmcity:portal.obj
 0001:0008c8e0       ?AutoDetect@@YAXHH@Z       0048d8e0 f   mmui:graphics.obj
 0001:0008cb40       ??0GraphicsOptions@@QAE@H@Z 0048db40 f   mmui:graphics.obj
 0001:0008d4c0       ??1GraphicsOptions@@UAE@XZ 0048e4c0 f   mmui:graphics.obj
 0001:0008d520       ?SetResolution@GraphicsOptions@@QAEXXZ 0048e520 f   mmui:graphics.obj
 0001:0008d540       ?SetLightQuality@GraphicsOptions@@QAEXXZ 0048e540 f   mmui:graphics.obj
 0001:0008d560       ?SetRenderer@GraphicsOptions@@QAEXXZ 0048e560 f   mmui:graphics.obj
 0001:0008d770       ?PreSetup@GraphicsOptions@@UAEXXZ 0048e770 f   mmui:graphics.obj
 0001:0008d790       ?ResetDefaultAction@GraphicsOptions@@UAEXXZ 0048e790 f   mmui:graphics.obj
 0001:0008d7e0       ?CancelAction@GraphicsOptions@@UAEXXZ 0048e7e0 f   mmui:graphics.obj
 0001:0008d810       ?DoneAction@GraphicsOptions@@UAEXXZ 0048e810 f   mmui:graphics.obj
 0001:0008d870       ??_EGraphicsOptions@@UAEPAXI@Z 0048e870 f i mmui:graphics.obj
 0001:0008d870       ??_GGraphicsOptions@@UAEPAXI@Z 0048e870 f i mmui:graphics.obj
 0001:0008d8a0       ?StoreCurrentSetup@OptionsBase@@UAEXXZ 0048e8a0 f i mmui:graphics.obj
 0001:0008d8b0       ?IsAnOptionMenu@OptionsBase@@UAEHXZ 0048e8b0 f i mmui:graphics.obj
 0001:0008d8c0       ?Init@string@@QAEXH@Z      0048e8c0 f i mmui:graphics.obj
 0001:0008d900       ??0string@@QAE@ABV0@@Z     0048e900 f i mmui:graphics.obj
 0001:0008d960       ??0VehicleSelectBase@@QAE@H@Z 0048e960 f   mmui:vselect.obj
 0001:0008dac0       ?IncColor@VehicleSelectBase@@QAEXXZ 0048eac0 f   mmui:vselect.obj
 0001:0008db80       ?DecColor@VehicleSelectBase@@QAEXXZ 0048eb80 f   mmui:vselect.obj
 0001:0008dc40       ?ColorCB@VehicleSelectBase@@QAEXXZ 0048ec40 f   mmui:vselect.obj
 0001:0008dc60       ?InitCarSelection@VehicleSelectBase@@QAEXHMMMM@Z 0048ec60 f   mmui:vselect.obj
 0001:0008e990       ??1VehicleSelectBase@@UAE@XZ 0048f990 f   mmui:vselect.obj
 0001:0008ea30       ?PreSetup@VehicleSelectBase@@UAEXXZ 0048fa30 f   mmui:vselect.obj
 0001:0008eb20       ?PostSetup@VehicleSelectBase@@UAEXXZ 0048fb20 f   mmui:vselect.obj
 0001:0008eb40       ?AllSetCar@VehicleSelectBase@@QAEXPADH@Z 0048fb40 f   mmui:vselect.obj
 0001:0008eb90       ?TDPickCB@VehicleSelectBase@@QAEXXZ 0048fb90 f   mmui:vselect.obj
 0001:0008eba0       ?Reset@VehicleSelectBase@@UAEXXZ 0048fba0 f   mmui:vselect.obj
 0001:0008ebb0       ?Update@VehicleSelectBase@@UAEXXZ 0048fbb0 f   mmui:vselect.obj
 0001:0008ec50       ?GetCarTitle@VehicleSelectBase@@QAEPADHPADFPAVstring@@@Z 0048fc50 f   mmui:vselect.obj
 0001:0008ed80       ?CurrentVehicleIsLocked@VehicleSelectBase@@QAEHXZ 0048fd80 f   mmui:vselect.obj
 0001:0008eda0       ?SetLastUnlockedVehicle@VehicleSelectBase@@QAEXXZ 0048fda0 f   mmui:vselect.obj
 0001:0008ee00       ?CarMod@VehicleSelectBase@@QAEXAAH@Z 0048fe00 f   mmui:vselect.obj
 0001:0008ee30       ?SetPick@VehicleSelectBase@@QAEXHF@Z 0048fe30 f   mmui:vselect.obj
 0001:0008f110       ?LoadStats@VehicleSelectBase@@QAEHPAD@Z 00490110 f   mmui:vselect.obj
 0001:0008f1b0       ?AssignVehicleStats@VehicleSelectBase@@QAEXHMMMM@Z 004901b0 f   mmui:vselect.obj
 0001:0008f390       ?FillStats@VehicleSelectBase@@QAEXXZ 00490390 f   mmui:vselect.obj
 0001:0008f3e0       ?SetLockedLabel@VehicleSelectBase@@QAEXXZ 004903e0 f   mmui:vselect.obj
 0001:0008f550       ??_EVehicleSelectBase@@UAEPAXI@Z 00490550 f i mmui:vselect.obj
 0001:0008f550       ??_GVehicleSelectBase@@UAEPAXI@Z 00490550 f i mmui:vselect.obj
 0001:0008f580       ??_EasDofCS@@UAEPAXI@Z     00490580 f i mmui:vselect.obj
 0001:0008f5e0       ??1asDofCS@@UAE@XZ         004905e0 f i mmui:vselect.obj
 0001:0008f5f0       ??_EmmVehicleForm@@UAEPAXI@Z 004905f0 f i mmui:vselect.obj
 0001:0008f650       ??1mmVehicleForm@@UAE@XZ   00490650 f i mmui:vselect.obj
 0001:0008f6a0       ?IsAnOptionMenu@UIMenu@@UAEHXZ 004906a0 f i mmui:vselect.obj
 0001:0008f6b0       ?DecCar@VehicleSelectBase@@QAEXXZ 004906b0 f i mmui:vselect.obj
 0001:0008f6c0       ?IncCar@VehicleSelectBase@@QAEXXZ 004906c0 f i mmui:vselect.obj
 0001:0008f6d0       ?SetShowcaseFlag@VehicleSelectBase@@QAEXXZ 004906d0 f i mmui:vselect.obj
 0001:0008f6e0       ?SetColor@Card2D@@QAEXVVector4@@@Z 004906e0 f i mmui:vselect.obj
 0001:0008f740       ?IsValid@mmVehInfo@@QAEHXZ 00490740 f i mmui:vselect.obj
 0001:0008f750       ??0AudioOptions@@QAE@H@Z   00490750 f   mmui:audio.obj
 0001:00090010       ??1AudioOptions@@UAE@XZ    00491010 f   mmui:audio.obj
 0001:000900a0       ?PreSetup@AudioOptions@@UAEXXZ 004910a0 f   mmui:audio.obj
 0001:000900b0       ?SetWaveVolume@AudioOptions@@QAEXXZ 004910b0 f   mmui:audio.obj
 0001:000900d0       ?SetCDVolume@AudioOptions@@QAEXXZ 004910d0 f   mmui:audio.obj
 0001:000900f0       ?SetBalance@AudioOptions@@QAEXXZ 004910f0 f   mmui:audio.obj
 0001:00090120       ?SetQuality@AudioOptions@@QAEXXZ 00491120 f   mmui:audio.obj
 0001:000901f0       ?SetStereoFX@AudioOptions@@QAEXXZ 004911f0 f   mmui:audio.obj
 0001:00090270       ?StoreCurrentSetup@AudioOptions@@UAEXXZ 00491270 f   mmui:audio.obj
 0001:00090280       ?ResetDefaultAction@AudioOptions@@UAEXXZ 00491280 f   mmui:audio.obj
 0001:00090300       ?CancelAction@AudioOptions@@UAEXXZ 00491300 f   mmui:audio.obj
 0001:00090380       ?DoneAction@AudioOptions@@UAEXXZ 00491380 f   mmui:audio.obj
 0001:00090390       ?SetAudioState@AudioOptions@@QAEXXZ 00491390 f   mmui:audio.obj
 0001:000905a0       ?SetCDMusic@AudioOptions@@QAEXXZ 004915a0 f   mmui:audio.obj
 0001:000905d0       ?SetSoundFX@AudioOptions@@QAEXXZ 004915d0 f   mmui:audio.obj
 0001:00090600       ?SetCommentary@AudioOptions@@QAEXXZ 00491600 f   mmui:audio.obj
 0001:00090630       ?FindDevice@AudioOptions@@QAEHPAD@Z 00491630 f   mmui:audio.obj
 0001:000906c0       ?GetCurrentDeviceName@AudioOptions@@QAEPADXZ 004916c0 f   mmui:audio.obj
 0001:000906e0       ?ResetStereo@AudioOptions@@QAEXXZ 004916e0 f   mmui:audio.obj
 0001:00090710       ?ResetSoundFX@AudioOptions@@QAEXXZ 00491710 f   mmui:audio.obj
 0001:00090740       ?ResetCDMusic@AudioOptions@@QAEXXZ 00491740 f   mmui:audio.obj
 0001:00090770       ?ResetSoundQuality@AudioOptions@@QAEXXZ 00491770 f   mmui:audio.obj
 0001:000907d0       ?ResetCommentary@AudioOptions@@QAEXXZ 004917d0 f   mmui:audio.obj
 0001:00090800       ?SetDevice@AudioOptions@@QAEXH@Z 00491800 f   mmui:audio.obj
 0001:000908b0       ??_GAudioOptions@@UAEPAXI@Z 004918b0 f i mmui:audio.obj
 0001:000908b0       ??_EAudioOptions@@UAEPAXI@Z 004918b0 f i mmui:audio.obj
 0001:000908e0       ??0Dialog_City@@QAE@HMMMMPAD@Z 004918e0 f   mmui:dlg_city.obj
 0001:00090b60       ??1Dialog_City@@UAE@XZ     00491b60 f   mmui:dlg_city.obj
 0001:00090bc0       ?PreSetup@Dialog_City@@UAEXXZ 00491bc0 f   mmui:dlg_city.obj
 0001:00090bd0       ?DoneCB@Dialog_City@@QAEXXZ 00491bd0 f   mmui:dlg_city.obj
 0001:00090c30       ??_GDialog_City@@UAEPAXI@Z 00491c30 f i mmui:dlg_city.obj
 0001:00090c30       ??_EDialog_City@@UAEPAXI@Z 00491c30 f i mmui:dlg_city.obj
 0001:00090c60       ??0Dialog_Password@@QAE@HMMMMPAD@Z 00491c60 f   mmui:dlg_password.obj
 0001:00090dd0       ??1Dialog_Password@@UAE@XZ 00491dd0 f   mmui:dlg_password.obj
 0001:00090de0       ?PreSetup@Dialog_Password@@UAEXXZ 00491de0 f   mmui:dlg_password.obj
 0001:00090df0       ?PasswordCallback@Dialog_Password@@QAEXXZ 00491df0 f   mmui:dlg_password.obj
 0001:00090e00       ??_GDialog_Password@@UAEPAXI@Z 00491e00 f i mmui:dlg_password.obj
 0001:00090e00       ??_EDialog_Password@@UAEPAXI@Z 00491e00 f i mmui:dlg_password.obj
 0001:00090e30       ??0Dialog_RaceEnvironment@@QAE@HMMMMPAD@Z 00491e30 f   mmui:dlg_renv.obj
 0001:00091440       ??1Dialog_RaceEnvironment@@UAE@XZ 00492440 f   mmui:dlg_renv.obj
 0001:00091450       ?PreSetup@Dialog_RaceEnvironment@@UAEXXZ 00492450 f   mmui:dlg_renv.obj
 0001:000914a0       ?ControlPedSlider@Dialog_RaceEnvironment@@QAEXXZ 004924a0 f   mmui:dlg_renv.obj
 0001:000914c0       ?SetMultiRaceOptions@Dialog_RaceEnvironment@@QAEXH@Z 004924c0 f   mmui:dlg_renv.obj
 0001:00091500       ?DoneCallback@Dialog_RaceEnvironment@@QAEXXZ 00492500 f   mmui:dlg_renv.obj
 0001:00091550       ?CancelCallback@Dialog_RaceEnvironment@@QAEXXZ 00492550 f   mmui:dlg_renv.obj
 0001:00091560       ??_EDialog_RaceEnvironment@@UAEPAXI@Z 00492560 f i mmui:dlg_renv.obj
 0001:00091560       ??_GDialog_RaceEnvironment@@UAEPAXI@Z 00492560 f i mmui:dlg_renv.obj
 0001:00091590       ??0Dialog_HallOfFame@@QAE@HMMMMPAD@Z 00492590 f   mmui:dlg_hoff.obj
 0001:00091990       ??1Dialog_HallOfFame@@UAE@XZ 00492990 f   mmui:dlg_hoff.obj
 0001:000919a0       ?PreSetup@Dialog_HallOfFame@@UAEXXZ 004929a0 f   mmui:dlg_hoff.obj
 0001:000919b0       ?AddRaceRecord@Dialog_HallOfFame@@QAEXHPAD00H00@Z 004929b0 f   mmui:dlg_hoff.obj
 0001:00091af0       ?ResetRaceRecord@Dialog_HallOfFame@@QAEXXZ 00492af0 f   mmui:dlg_hoff.obj
 0001:00091b80       ?SetSortState@Dialog_HallOfFame@@QAEXXZ 00492b80 f   mmui:dlg_hoff.obj
 0001:00091c00       ?InitRaceRecord@Dialog_HallOfFame@@QAEXXZ 00492c00 f   mmui:dlg_hoff.obj
 0001:00091d90       ??_GDialog_HallOfFame@@UAEPAXI@Z 00492d90 f i mmui:dlg_hoff.obj
 0001:00091d90       ??_EDialog_HallOfFame@@UAEPAXI@Z 00492d90 f i mmui:dlg_hoff.obj
 0001:00091dc0       ??0Dialog_DriverRec@@QAE@HMMMMPAD@Z 00492dc0 f   mmui:dlg_drec.obj
 0001:00092120       ??1Dialog_DriverRec@@UAE@XZ 00493120 f   mmui:dlg_drec.obj
 0001:00092130       ?PreSetup@Dialog_DriverRec@@UAEXXZ 00493130 f   mmui:dlg_drec.obj
 0001:00092140       ?InitDriverRecord@Dialog_DriverRec@@QAEXH@Z 00493140 f   mmui:dlg_drec.obj
 0001:00092210       ?AddDriverRecord@Dialog_DriverRec@@QAEHHPADHM0H@Z 00493210 f   mmui:dlg_drec.obj
 0001:00092350       ?ResetDriverRecord@Dialog_DriverRec@@QAEXXZ 00493350 f   mmui:dlg_drec.obj
 0001:000923e0       ?SetRecordPosition@Dialog_DriverRec@@QAEXH@Z 004933e0 f   mmui:dlg_drec.obj
 0001:00092400       ?SetSortState@Dialog_DriverRec@@QAEXXZ 00493400 f   mmui:dlg_drec.obj
 0001:00092460       ??_EDialog_DriverRec@@UAEPAXI@Z 00493460 f i mmui:dlg_drec.obj
 0001:00092460       ??_GDialog_DriverRec@@UAEPAXI@Z 00493460 f i mmui:dlg_drec.obj
 0001:00092490       ??0Dialog_Message@@QAE@HMMMMPAD@Z 00493490 f   mmui:dlg_msg.obj
 0001:000925a0       ?Init@Dialog_Message@@QAEXHPAD0@Z 004935a0 f   mmui:dlg_msg.obj
 0001:00092610       ??1Dialog_Message@@UAE@XZ  00493610 f   mmui:dlg_msg.obj
 0001:00092620       ?PreSetup@Dialog_Message@@UAEXXZ 00493620 f   mmui:dlg_msg.obj
 0001:00092630       ??_GDialog_Message@@UAEPAXI@Z 00493630 f i mmui:dlg_msg.obj
 0001:00092630       ??_EDialog_Message@@UAEPAXI@Z 00493630 f i mmui:dlg_msg.obj
 0001:00092660       ??0Dialog_NewPlayer@@QAE@HMMMMPAD@Z 00493660 f   mmui:dlg_newp.obj
 0001:00092980       ??1Dialog_NewPlayer@@UAE@XZ 00493980 f   mmui:dlg_newp.obj
 0001:00092990       ?EnterNewPlayer@Dialog_NewPlayer@@QAEXXZ 00493990 f   mmui:dlg_newp.obj
 0001:000929a0       ?PreSetup@Dialog_NewPlayer@@UAEXXZ 004939a0 f   mmui:dlg_newp.obj
 0001:000929d0       ??_EDialog_NewPlayer@@UAEPAXI@Z 004939d0 f i mmui:dlg_newp.obj
 0001:000929d0       ??_GDialog_NewPlayer@@UAEPAXI@Z 004939d0 f i mmui:dlg_newp.obj
 0001:00092a00       ??0Dialog_Serial@@QAE@HMMMMPAD@Z 00493a00 f   mmui:dlg_serial.obj
 0001:00093260       ??1Dialog_Serial@@UAE@XZ   00494260 f   mmui:dlg_serial.obj
 0001:000932c0       ?PreSetup@Dialog_Serial@@UAEXXZ 004942c0 f   mmui:dlg_serial.obj
 0001:000932d0       ?IPAddressCallback@Dialog_Serial@@QAEXXZ 004942d0 f   mmui:dlg_serial.obj
 0001:000932e0       ?BuildComs@Dialog_Serial@@QAEXXZ 004942e0 f   mmui:dlg_serial.obj
 0001:000933a0       ?GetCommPack@Dialog_Serial@@QAEPAUNETCOMMPACK@@XZ 004943a0 f   mmui:dlg_serial.obj
 0001:000933b0       ??_GDialog_Serial@@UAEPAXI@Z 004943b0 f i mmui:dlg_serial.obj
 0001:000933b0       ??_EDialog_Serial@@UAEPAXI@Z 004943b0 f i mmui:dlg_serial.obj
 0001:000933e0       ??0Dialog_ControlAssign@@QAE@HMMMMPAD@Z 004943e0 f   mmui:dlg_ctrl.obj
 0001:000934e0       ??1Dialog_ControlAssign@@UAE@XZ 004944e0 f   mmui:dlg_ctrl.obj
 0001:000934f0       ?PreSetup@Dialog_ControlAssign@@UAEXXZ 004944f0 f   mmui:dlg_ctrl.obj
 0001:00093500       ??_GDialog_ControlAssign@@UAEPAXI@Z 00494500 f i mmui:dlg_ctrl.obj
 0001:00093500       ??_EDialog_ControlAssign@@UAEPAXI@Z 00494500 f i mmui:dlg_ctrl.obj
 0001:00093530       ??0Dialog_TCPIP@@QAE@HMMMMPAD@Z 00494530 f   mmui:dlg_tcpip.obj
 0001:000936a0       ??1Dialog_TCPIP@@UAE@XZ    004946a0 f   mmui:dlg_tcpip.obj
 0001:000936b0       ?PreSetup@Dialog_TCPIP@@UAEXXZ 004946b0 f   mmui:dlg_tcpip.obj
 0001:000936c0       ?IPAddressCallback@Dialog_TCPIP@@QAEXXZ 004946c0 f   mmui:dlg_tcpip.obj
 0001:000936d0       ??_GDialog_TCPIP@@UAEPAXI@Z 004946d0 f i mmui:dlg_tcpip.obj
 0001:000936d0       ??_EDialog_TCPIP@@UAEPAXI@Z 004946d0 f i mmui:dlg_tcpip.obj
 0001:00093700       ??0CRSettings@@QAE@H@Z     00494700 f   mmui:cr_settings.obj
 0001:00094040       ??1CRSettings@@UAE@XZ      00495040 f   mmui:cr_settings.obj
 0001:000940c0       ?SettingsCB@CRSettings@@QAEXXZ 004950c0 f   mmui:cr_settings.obj
 0001:000940d0       ?SetTeam@CRSettings@@QAEXXZ 004950d0 f   mmui:cr_settings.obj
 0001:000940f0       ?SetTeamWidget@CRSettings@@QAEXXZ 004950f0 f   mmui:cr_settings.obj
 0001:00094100       ?SetHost@CRSettings@@QAEXH@Z 00495100 f   mmui:cr_settings.obj
 0001:00094200       ?InitPlayerRecord@CRSettings@@QAEXXZ 00495200 f   mmui:cr_settings.obj
 0001:000942d0       ?AddPlayerRecord@CRSettings@@QAEHPADHH0@Z 004952d0 f   mmui:cr_settings.obj
 0001:00094410       ?SetPlayerScore@CRSettings@@QAEXHH@Z 00495410 f   mmui:cr_settings.obj
 0001:00094450       ?ResetPlayerRecord@CRSettings@@QAEXXZ 00495450 f   mmui:cr_settings.obj
 0001:000944e0       ?SetLimitControl@CRSettings@@QAEXXZ 004954e0 f   mmui:cr_settings.obj
 0001:00094640       ?EncodeCRData@CRSettings@@QAEHXZ 00495640 f   mmui:cr_settings.obj
 0001:00094690       ?DecodeCRData@CRSettings@@QAEXH@Z 00495690 f   mmui:cr_settings.obj
 0001:00094700       ?GetLimit@CRSettings@@QAEXAAH0@Z 00495700 f   mmui:cr_settings.obj
 0001:00094750       ?SetLimit@CRSettings@@QAEXAAH0@Z 00495750 f   mmui:cr_settings.obj
 0001:000947d0       ?SetGoldMass@CRSettings@@QAEXH@Z 004957d0 f   mmui:cr_settings.obj
 0001:00094800       ?GetGoldMass@CRSettings@@QAEHXZ 00495800 f   mmui:cr_settings.obj
 0001:00094810       ?GetLimitVal@CRSettings@@QAEHAAH@Z 00495810 f   mmui:cr_settings.obj
 0001:00094860       ?GetGoldMassVal@CRSettings@@QAEHXZ 00495860 f   mmui:cr_settings.obj
 0001:00094870       ?SetGameClassCallback@CRSettings@@QAEXXZ 00495870 f   mmui:cr_settings.obj
 0001:00094890       ?SetTeamWidgets@CRSettings@@QAEXXZ 00495890 f   mmui:cr_settings.obj
 0001:00094910       ??_GCRSettings@@UAEPAXI@Z  00495910 f i mmui:cr_settings.obj
 0001:00094910       ??_ECRSettings@@UAEPAXI@Z  00495910 f i mmui:cr_settings.obj
 0001:00094940       ??0NetArena@@QAE@H@Z       00495940 f   mmui:netarena.obj
 0001:00094f30       ??1NetArena@@UAE@XZ        00495f30 f   mmui:netarena.obj
 0001:00094ff0       ?PreSetup@NetArena@@UAEXXZ 00495ff0 f   mmui:netarena.obj
 0001:00095000       ?EnablePlayButton@NetArena@@QAEXXZ 00496000 f   mmui:netarena.obj
 0001:00095010       ?DisablePlayButton@NetArena@@QAEXXZ 00496010 f   mmui:netarena.obj
 0001:00095020       ?ResetGameChat@NetArena@@QAEXXZ 00496020 f   mmui:netarena.obj
 0001:000950e0       ?AddGameChatLine@NetArena@@QAEXPAD@Z 004960e0 f   mmui:netarena.obj
 0001:00095190       ?PostChatMessages@NetArena@@QAEXXZ 00496190 f   mmui:netarena.obj
 0001:00095260       ?ChatEntry@NetArena@@QAEXXZ 00496260 f   mmui:netarena.obj
 0001:00095320       ?RetrieveChatLine@NetArena@@QAEHPAD@Z 00496320 f   mmui:netarena.obj
 0001:00095370       ?FindRosterName@NetArena@@QAEHPAD@Z 00496370 f   mmui:netarena.obj
 0001:000953e0       ?AddRosterName@NetArena@@QAEXPAD@Z 004963e0 f   mmui:netarena.obj
 0001:00095400       ?AddRosterName@NetArena@@QAEXPAULocString@@00K@Z 00496400 f   mmui:netarena.obj
 0001:000955a0       ?RemoveRosterEntry@NetArena@@QAEXH@Z 004965a0 f   mmui:netarena.obj
 0001:00095670       ?ResetRoster@NetArena@@QAEXXZ 00496670 f   mmui:netarena.obj
 0001:00095790       ?RemoveRosterName@NetArena@@QAEXPAD@Z 00496790 f   mmui:netarena.obj
 0001:000957d0       ?SetReady@NetArena@@QAEXKH@Z 004967d0 f   mmui:netarena.obj
 0001:00095820       ?GetRaceName@NetArena@@QAEPADXZ 00496820 f   mmui:netarena.obj
 0001:00095a30       ?PostHostSettings@NetArena@@QAEXXZ 00496a30 f   mmui:netarena.obj
 0001:00095bf0       ?PostPlayerInfo@NetArena@@QAEXPAULocString@@00@Z 00496bf0 f   mmui:netarena.obj
 0001:00095ca0       ?SetHost@NetArena@@QAEXH@Z 00496ca0 f   mmui:netarena.obj
 0001:00095ce0       ??_GNetArena@@UAEPAXI@Z    00496ce0 f i mmui:netarena.obj
 0001:00095ce0       ??_ENetArena@@UAEPAXI@Z    00496ce0 f i mmui:netarena.obj
 0001:00095d10       ??0HostRaceMenu@@QAE@H@Z   00496d10 f   mmui:racehost.obj
 0001:00095de0       ??1HostRaceMenu@@UAE@XZ    00496de0 f   mmui:racehost.obj
 0001:00095df0       ?EnableStart@HostRaceMenu@@QAEXXZ 00496df0 f   mmui:racehost.obj
 0001:00095e00       ?DisableStart@HostRaceMenu@@QAEXXZ 00496e00 f   mmui:racehost.obj
 0001:00095e10       ?UsesLobby@HostRaceMenu@@UAEXH@Z 00496e10 f   mmui:racehost.obj
 0001:00095e20       ??_EHostRaceMenu@@UAEPAXI@Z 00496e20 f i mmui:racehost.obj
 0001:00095e20       ??_GHostRaceMenu@@UAEPAXI@Z 00496e20 f i mmui:racehost.obj
 0001:00095e50       ??0ControlSetup@@QAE@H@Z   00496e50 f   mmui:control.obj
 0001:00096040       ??1ControlSetup@@UAE@XZ    00497040 f   mmui:control.obj
 0001:000960a0       ?CreateDeviceOptions@ControlSetup@@QAEXXZ 004970a0 f   mmui:control.obj
 0001:00096360       ?DeactivateAllDeviceOptions@ControlSetup@@QAEXXZ 00497360 f   mmui:control.obj
 0001:000963c0       ?ActivateDeviceOptions@ControlSetup@@QAEXXZ 004973c0 f   mmui:control.obj
 0001:000966a0       ?SetControlPosition@ControlSetup@@QAEMPAVuiWidget@@MM@Z 004976a0 f   mmui:control.obj
 0001:000966c0       ?POVCB@ControlSetup@@QAEXXZ 004976c0 f   mmui:control.obj
 0001:000966d0       ?SetSensitivityCB@ControlSetup@@QAEXXZ 004976d0 f   mmui:control.obj
 0001:000966e0       ?ControlSelect@ControlSetup@@QAEXXZ 004976e0 f   mmui:control.obj
 0001:00096730       ?PreSetup@ControlSetup@@UAEXXZ 00497730 f   mmui:control.obj
 0001:00096760       ?SetFFPermissions@ControlSetup@@QAEXXZ 00497760 f   mmui:control.obj
 0001:000967a0       ?InitCustomControls@ControlSetup@@QAEXXZ 004977a0 f   mmui:control.obj
 0001:00096830       ?Update@ControlSetup@@UAEXXZ 00497830 f   mmui:control.obj
 0001:00096850       ?StoreCurrentSetup@ControlSetup@@UAEXXZ 00497850 f   mmui:control.obj
 0001:00096860       ?ResetDefaultAction@ControlSetup@@UAEXXZ 00497860 f   mmui:control.obj
 0001:000968a0       ?LaunchJoyCpl@ControlSetup@@QAEXXZ 004978a0 f   mmui:control.obj
 0001:00096a30       ?CancelAction@ControlSetup@@UAEXXZ 00497a30 f   mmui:control.obj
 0001:00096a40       ?DoneAction@ControlSetup@@UAEXXZ 00497a40 f   mmui:control.obj
 0001:00096a50       ?BadAssignCB@ControlSetup@@QAEXXZ 00497a50 f   mmui:control.obj
 0001:00096a80       ?ClearBadAssignment@ControlSetup@@QAEXXZ 00497a80 f   mmui:control.obj
 0001:00096a90       ?CancelBadAssignment@ControlSetup@@QAEXXZ 00497a90 f   mmui:control.obj
 0001:00096ab0       ?VerifyBadAssignment@ControlSetup@@QAEXXZ 00497ab0 f   mmui:control.obj
 0001:00096ad0       ??_GControlSetup@@UAEPAXI@Z 00497ad0 f i mmui:control.obj
 0001:00096ad0       ??_EControlSetup@@UAEPAXI@Z 00497ad0 f i mmui:control.obj
 0001:00096b00       ??0OptionsMenu@@QAE@H@Z    00497b00 f   mmui:options.obj
 0001:00096cc0       ??1OptionsMenu@@UAE@XZ     00497cc0 f   mmui:options.obj
 0001:00096cd0       ?PreSetup@OptionsMenu@@UAEXXZ 00497cd0 f   mmui:options.obj
 0001:00096d00       ?PostSetup@OptionsMenu@@UAEXXZ 00497d00 f   mmui:options.obj
 0001:00096d20       ??_EOptionsMenu@@UAEPAXI@Z 00497d20 f i mmui:options.obj
 0001:00096d20       ??_GOptionsMenu@@UAEPAXI@Z 00497d20 f i mmui:options.obj
 0001:00096d50       ??0NetSelectMenu@@QAE@H@Z  00497d50 f   mmui:netselect.obj
 0001:000974a0       ??1NetSelectMenu@@UAE@XZ   004984a0 f   mmui:netselect.obj
 0001:00097510       ?PreSetup@NetSelectMenu@@UAEXXZ 00498510 f   mmui:netselect.obj
 0001:00097580       ?PostSetup@NetSelectMenu@@UAEXXZ 00498580 f   mmui:netselect.obj
 0001:000975a0       ?HostCB@NetSelectMenu@@QAEXXZ 004985a0 f   mmui:netselect.obj
 0001:000975b0       ?JoinCB@NetSelectMenu@@QAEXXZ 004985b0 f   mmui:netselect.obj
 0001:000975c0       ?GetHostJoin@NetSelectMenu@@QAEHXZ 004985c0 f   mmui:netselect.obj
 0001:000975d0       ?FocusDescription@NetSelectMenu@@QAEXH@Z 004985d0 f   mmui:netselect.obj
 0001:00097650       ?SetDescription@NetSelectMenu@@QAEXPAULocString@@@Z 00498650 f   mmui:netselect.obj
 0001:00097660       ?JoinCallback@NetSelectMenu@@QAEXXZ 00498660 f   mmui:netselect.obj
 0001:00097670       ?ShowTCPIPNetSessions@NetSelectMenu@@QAEXXZ 00498670 f   mmui:netselect.obj
 0001:00097680       ?DisableSessions@NetSelectMenu@@QAEXXZ 00498680 f   mmui:netselect.obj
 0001:00097690       ?ProtocolBack@NetSelectMenu@@QAEXXZ 00498690 f   mmui:netselect.obj
 0001:000976b0       ?SetNetname@NetSelectMenu@@QAEXPAD@Z 004986b0 f   mmui:netselect.obj
 0001:000976f0       ?SetPhoneNumber@NetSelectMenu@@QAEXPAD@Z 004986f0 f   mmui:netselect.obj
 0001:00097710       ?SetIPAddress@NetSelectMenu@@QAEXPAD@Z 00498710 f   mmui:netselect.obj
 0001:00097730       ?BuildAllTheModemWidgets@NetSelectMenu@@QAEXMMMMPAD@Z 00498730 f   mmui:netselect.obj
 0001:00097840       ?BuildAllTheIPXWidgets@NetSelectMenu@@QAEXMMMM@Z 00498840 f   mmui:netselect.obj
 0001:00097850       ?BuildAllTheTCPWidgets@NetSelectMenu@@QAEXMMMM@Z 00498850 f   mmui:netselect.obj
 0001:00097860       ?GetSessions@NetSelectMenu@@QAEPAVUITextScroll@@XZ 00498860 f   mmui:netselect.obj
 0001:00097870       ?GetSessionID@NetSelectMenu@@QAEHXZ 00498870 f   mmui:netselect.obj
 0001:00097880       ?SetSession@NetSelectMenu@@QAEXPADH@Z 00498880 f   mmui:netselect.obj
 0001:000978b0       ?IPAddressCallback@NetSelectMenu@@QAEXXZ 004988b0 f   mmui:netselect.obj
 0001:000978d0       ?BuildComs@NetSelectMenu@@QAEXXZ 004988d0 f   mmui:netselect.obj
 0001:000979d0       ?SetComs@NetSelectMenu@@QAEXXZ 004989d0 f   mmui:netselect.obj
 0001:00097ae0       ?ReparentWidgets@NetSelectMenu@@QAEXH@Z 00498ae0 f   mmui:netselect.obj
 0001:00097af0       ?WidgetSwitch@NetSelectMenu@@QAEXHH@Z 00498af0 f   mmui:netselect.obj
 0001:00097b00       ?AddWidgetToList@NetSelectMenu@@QAEXHPAVuiWidget@@@Z 00498b00 f   mmui:netselect.obj
 0001:00097b10       ?AddModem@NetSelectMenu@@QAEXPADH@Z 00498b10 f   mmui:netselect.obj
 0001:00097c10       ?ClearProtocol@NetSelectMenu@@QAEXXZ 00498c10 f   mmui:netselect.obj
 0001:00097c20       ?SetIPXButton@NetSelectMenu@@QAEXH@Z 00498c20 f   mmui:netselect.obj
 0001:00097c50       ?SetTCPLocalButton@NetSelectMenu@@QAEXH@Z 00498c50 f   mmui:netselect.obj
 0001:00097c60       ?SetTCPNetButton@NetSelectMenu@@QAEXH@Z 00498c60 f   mmui:netselect.obj
 0001:00097c90       ?SetModemButton@NetSelectMenu@@QAEXH@Z 00498c90 f   mmui:netselect.obj
 0001:00097cc0       ?SetSerialButton@NetSelectMenu@@QAEXH@Z 00498cc0 f   mmui:netselect.obj
 0001:00097cf0       ?GetCommPack@NetSelectMenu@@QAEPAUNETCOMMPACK@@XZ 00498cf0 f   mmui:netselect.obj
 0001:00097d20       ?NetNameCB@NetSelectMenu@@QAEXXZ 00498d20 f   mmui:netselect.obj
 0001:00097d50       ??0string@@QAE@PBD@Z       00498d50 f i mmui:netselect.obj
 0001:00097db0       ??_ENetSelectMenu@@UAEPAXI@Z 00498db0 f i mmui:netselect.obj
 0001:00097db0       ??_GNetSelectMenu@@UAEPAXI@Z 00498db0 f i mmui:netselect.obj
 0001:00097de0       ??0RaceMenu@@QAE@H@Z       00498de0 f   mmui:race.obj
 0001:00097ea0       ??1RaceMenu@@UAE@XZ        00498ea0 f   mmui:race.obj
 0001:00097eb0       ?GetRaceID@RaceMenu@@QAEHXZ 00498eb0 f   mmui:race.obj
 0001:00097f40       ?SetProgressMask@RaceMenu@@QAEXH@Z 00498f40 f   mmui:race.obj
 0001:00097f60       ?SetBlitzMask@RaceMenu@@QAEXH@Z 00498f60 f   mmui:race.obj
 0001:00097f80       ?SetCheckpointMask@RaceMenu@@QAEXH@Z 00498f80 f   mmui:race.obj
 0001:00097fa0       ?SetCircuitMask@RaceMenu@@QAEXH@Z 00498fa0 f   mmui:race.obj
 0001:00097fc0       ?GetRaceName@RaceMenu@@QAEPADW4mmGameMode@@H@Z 00498fc0 f   mmui:race.obj
 0001:000980e0       ??_ERaceMenu@@UAEPAXI@Z    004990e0 f i mmui:race.obj
 0001:000980e0       ??_GRaceMenu@@UAEPAXI@Z    004990e0 f i mmui:race.obj
 0001:00098110       ?UsesLobby@RaceMenuBase@@UAEXH@Z 00499110 f i mmui:race.obj
 0001:00098120       ??0VehShowcase@@QAE@H@Z    00499120 f   mmui:vshow.obj
 0001:00098270       ??1VehShowcase@@UAE@XZ     00499270 f   mmui:vshow.obj
 0001:000982d0       ?PreSetup@VehShowcase@@UAEXXZ 004992d0 f   mmui:vshow.obj
 0001:00098340       ?PostSetup@VehShowcase@@UAEXXZ 00499340 f   mmui:vshow.obj
 0001:00098350       ??_GVehShowcase@@UAEPAXI@Z 00499350 f i mmui:vshow.obj
 0001:00098350       ??_EVehShowcase@@UAEPAXI@Z 00499350 f i mmui:vshow.obj
 0001:00098380       ??0Vehicle@@QAE@H@Z        00499380 f   mmui:vehicle.obj
 0001:00098460       ??1Vehicle@@UAE@XZ         00499460 f   mmui:vehicle.obj
 0001:00098470       ?SetSubMenu@Vehicle@@QAEXH@Z 00499470 f   mmui:vehicle.obj
 0001:00098490       ?SetSubMenuButtons@Vehicle@@QAEXXZ 00499490 f   mmui:vehicle.obj
 0001:000984b0       ?PreSetup@Vehicle@@UAEXXZ  004994b0 f   mmui:vehicle.obj
 0001:000984c0       ?PostSetup@Vehicle@@UAEXXZ 004994c0 f   mmui:vehicle.obj
 0001:000984d0       ??_EVehicle@@UAEPAXI@Z     004994d0 f i mmui:vehicle.obj
 0001:000984d0       ??_GVehicle@@UAEPAXI@Z     004994d0 f i mmui:vehicle.obj
 0001:00098500       ??0DriverMenu@@QAE@H@Z     00499500 f   mmui:driver.obj
 0001:000985e0       ?PreSetup@DriverMenu@@UAEXXZ 004995e0 f   mmui:driver.obj
 0001:00098610       ?InitPlayerSelection@DriverMenu@@QAEXXZ 00499610 f   mmui:driver.obj
 0001:00098a00       ??1DriverMenu@@UAE@XZ      00499a00 f   mmui:driver.obj
 0001:00098a70       ?RemovePlayer@DriverMenu@@QAEXPAD@Z 00499a70 f   mmui:driver.obj
 0001:00098cb0       ?SetPlayerPick@DriverMenu@@QAEXH@Z 00499cb0 f   mmui:driver.obj
 0001:00098cc0       ?DecPlayer@DriverMenu@@QAEXXZ 00499cc0 f   mmui:driver.obj
 0001:00098cf0       ?IncPlayer@DriverMenu@@QAEXXZ 00499cf0 f   mmui:driver.obj
 0001:00098d20       ?RemoveAllPlayers@DriverMenu@@QAEXXZ 00499d20 f   mmui:driver.obj
 0001:00098d30       ?AddPlayer@DriverMenu@@QAEXPAD@Z 00499d30 f   mmui:driver.obj
 0001:00098e40       ?TDPickCB@DriverMenu@@QAEXXZ 00499e40 f   mmui:driver.obj
 0001:00098e50       ?DeleteCB@DriverMenu@@QAEXXZ 00499e50 f   mmui:driver.obj
 0001:00098e60       ?NewPlayer@DriverMenu@@QAEXXZ 00499e60 f   mmui:driver.obj
 0001:00098e70       ?GetNewDriverName@DriverMenu@@QAEPADXZ 00499e70 f   mmui:driver.obj
 0001:00098e80       ?EnterNewPlayer@DriverMenu@@QAEXXZ 00499e80 f   mmui:driver.obj
 0001:00098e90       ?DisplayDriverInfo@DriverMenu@@QAEXPAD0000H@Z 00499e90 f   mmui:driver.obj
 0001:00098f50       ?SetController@DriverMenu@@QAEXPAD@Z 00499f50 f   mmui:driver.obj
 0001:00098f70       ?SetNetName@DriverMenu@@QAEXPAD@Z 00499f70 f   mmui:driver.obj
 0001:00098fb0       ??_EDriverMenu@@UAEPAXI@Z  00499fb0 f i mmui:driver.obj
 0001:00098fb0       ??_GDriverMenu@@UAEPAXI@Z  00499fb0 f i mmui:driver.obj
 0001:00098fe0       ??0AboutMenu@@QAE@H@Z      00499fe0 f   mmui:about.obj
 0001:00099200       ??1AboutMenu@@UAE@XZ       0049a200 f   mmui:about.obj
 0001:00099210       ?PreSetup@AboutMenu@@UAEXXZ 0049a210 f   mmui:about.obj
 0001:00099230       ?Update@AboutMenu@@UAEXXZ  0049a230 f   mmui:about.obj
 0001:000992b0       ?Cull@AboutMenu@@UAEXXZ    0049a2b0 f   mmui:about.obj
 0001:00099370       ??_GAboutMenu@@UAEPAXI@Z   0049a370 f i mmui:about.obj
 0001:00099370       ??_EAboutMenu@@UAEPAXI@Z   0049a370 f i mmui:about.obj
 0001:000993a0       ??0MainMenu@@QAE@H@Z       0049a3a0 f   mmui:main.obj
 0001:00099520       ??1MainMenu@@UAE@XZ        0049a520 f   mmui:main.obj
 0001:00099530       ?PreSetup@MainMenu@@UAEXXZ 0049a530 f   mmui:main.obj
 0001:00099540       ??_EMainMenu@@UAEPAXI@Z    0049a540 f i mmui:main.obj
 0001:00099540       ??_GMainMenu@@UAEPAXI@Z    0049a540 f i mmui:main.obj
 0001:00099570       ??0RaceMenuBase@@QAE@H@Z   0049a570 f   mmui:racebase.obj
 0001:000996b0       ?Init@RaceMenuBase@@QAEXH@Z 0049a6b0 f   mmui:racebase.obj
 0001:0009a470       ??1RaceMenuBase@@UAE@XZ    0049b470 f   mmui:racebase.obj
 0001:0009a4f0       ?FocusDescription@RaceMenuBase@@QAEXH@Z 0049b4f0 f   mmui:racebase.obj
 0001:0009a520       ?WidgetOnOff@RaceMenuBase@@QAEXHPAVuiWidget@@@Z 0049b520 f   mmui:racebase.obj
 0001:0009a550       ?SetRW@RaceMenuBase@@QAEXXZ 0049b550 f   mmui:racebase.obj
 0001:0009a820       ?IsEnvEnabled@RaceMenuBase@@QAEHXZ 0049b820 f   mmui:racebase.obj
 0001:0009a840       ?CheatCallback@RaceMenuBase@@QAEXXZ 0049b840 f   mmui:racebase.obj
 0001:0009a850       ?SyncRaceState@RaceMenuBase@@QAEXXZ 0049b850 f   mmui:racebase.obj
 0001:0009a900       ?CityChange@RaceMenuBase@@QAEXXZ 0049b900 f   mmui:racebase.obj
 0001:0009aa80       ?GameCallback@RaceMenuBase@@QAEXXZ 0049ba80 f   mmui:racebase.obj
 0001:0009ab00       ?LapsCallback@RaceMenuBase@@QAEXXZ 0049bb00 f   mmui:racebase.obj
 0001:0009ab10       ?WPCallback@RaceMenuBase@@QAEXXZ 0049bb10 f   mmui:racebase.obj
 0001:0009ab60       ?AICallback@RaceMenuBase@@QAEXXZ 0049bb60 f   mmui:racebase.obj
 0001:0009abb0       ?WeatherCallback@RaceMenuBase@@QAEXXZ 0049bbb0 f   mmui:racebase.obj
 0001:0009abc0       ?TimeCallback@RaceMenuBase@@QAEXXZ 0049bbc0 f   mmui:racebase.obj
 0001:0009abd0       ?ChangeLocalVals@RaceMenuBase@@QAEXXZ 0049bbd0 f   mmui:racebase.obj
 0001:0009ae60       ?SetStateRace@RaceMenuBase@@QAEXXZ 0049be60 f   mmui:racebase.obj
 0001:0009b200       ??_ERaceMenuBase@@UAEPAXI@Z 0049c200 f i mmui:racebase.obj
 0001:0009b200       ??_GRaceMenuBase@@UAEPAXI@Z 0049c200 f i mmui:racebase.obj
 0001:0009b230       ??0PUResults@@QAE@HMMMMPAD@Z 0049c230 f   mmui:pu_results.obj
 0001:0009b360       ?Init320@PUResults@@QAEXXZ 0049c360 f   mmui:pu_results.obj
 0001:0009b740       ?Init640@PUResults@@QAEXXZ 0049c740 f   mmui:pu_results.obj
 0001:0009bb70       ??1PUResults@@UAE@XZ       0049cb70 f   mmui:pu_results.obj
 0001:0009bb80       ?AddTitle@PUResults@@QAEXPAULocString@@0@Z 0049cb80 f   mmui:pu_results.obj
 0001:0009bbb0       ?Reset@PUResults@@UAEXXZ   0049cbb0 f   mmui:pu_results.obj
 0001:0009bbc0       ?RosterRO@PUResults@@QAEXH@Z 0049cbc0 f   mmui:pu_results.obj
 0001:0009bbe0       ?RestartRO@PUResults@@QAEXH@Z 0049cbe0 f   mmui:pu_results.obj
 0001:0009bc00       ?AddName@PUResults@@QAEXHPADM@Z 0049cc00 f   mmui:pu_results.obj
 0001:0009bcb0       ?AddName@PUResults@@QAEXHPADH@Z 0049ccb0 f   mmui:pu_results.obj
 0001:0009bd70       ?ClearNames@PUResults@@QAEXXZ 0049cd70 f   mmui:pu_results.obj
 0001:0009bde0       ?DisableNextRace@PUResults@@QAEXXZ 0049cde0 f   mmui:pu_results.obj
 0001:0009bdf0       ?EnableNextRace@PUResults@@QAEXXZ 0049cdf0 f   mmui:pu_results.obj
 0001:0009be00       ?SetMessage@PUResults@@QAEXPAULocString@@@Z 0049ce00 f   mmui:pu_results.obj
 0001:0009be20       ??_GPUResults@@UAEPAXI@Z   0049ce20 f i mmui:pu_results.obj
 0001:0009be20       ??_EPUResults@@UAEPAXI@Z   0049ce20 f i mmui:pu_results.obj
 0001:0009be50       ??0PURoster@@QAE@HMMMM@Z   0049ce50 f   mmui:pu_roster.obj
 0001:0009bfc0       ??1PURoster@@UAE@XZ        0049cfc0 f   mmui:pu_roster.obj
 0001:0009bfd0       ?Reset@PURoster@@UAEXXZ    0049cfd0 f   mmui:pu_roster.obj
 0001:0009bfe0       ?BootButtonCB@PURoster@@QAEXXZ 0049cfe0 f   mmui:pu_roster.obj
 0001:0009c040       ?SetHost@PURoster@@QAEXH@Z 0049d040 f   mmui:pu_roster.obj
 0001:0009c0b0       ?AddName@PURoster@@QAEXPADKH@Z 0049d0b0 f   mmui:pu_roster.obj
 0001:0009c180       ?RemoveName@PURoster@@QAEXPADK@Z 0049d180 f   mmui:pu_roster.obj
 0001:0009c2c0       ?RemoveName@PURoster@@QAEXK@Z 0049d2c0 f   mmui:pu_roster.obj
 0001:0009c3f0       ?ClearNames@PURoster@@QAEXXZ 0049d3f0 f   mmui:pu_roster.obj
 0001:0009c450       ?PostNames@PURoster@@QAEXXZ 0049d450 f   mmui:pu_roster.obj
 0001:0009c480       ?SetBootCB@PURoster@@QAEXVCallback@@@Z 0049d480 f   mmui:pu_roster.obj
 0001:0009c4a0       ?FindRosterName@PURoster@@QAEHPAD@Z 0049d4a0 f   mmui:pu_roster.obj
 0001:0009c510       ?FindRosterName@PURoster@@QAEHK@Z 0049d510 f   mmui:pu_roster.obj
 0001:0009c540       ??_EPURoster@@UAEPAXI@Z    0049d540 f i mmui:pu_roster.obj
 0001:0009c540       ??_GPURoster@@UAEPAXI@Z    0049d540 f i mmui:pu_roster.obj
 0001:0009c570       ??0PUKey@@QAE@HMMMM@Z      0049d570 f   mmui:pu_key.obj
 0001:0009c610       ??1PUKey@@UAE@XZ           0049d610 f   mmui:pu_key.obj
 0001:0009c620       ?PreSetup@PUKey@@EAEXXZ    0049d620 f   mmui:pu_key.obj
 0001:0009c8c0       ?PostSetup@PUKey@@EAEXXZ   0049d8c0 f   mmui:pu_key.obj
 0001:0009c900       ??_GPUKey@@UAEPAXI@Z       0049d900 f i mmui:pu_key.obj
 0001:0009c900       ??_EPUKey@@UAEPAXI@Z       0049d900 f i mmui:pu_key.obj
 0001:0009c930       ??0PUChat@@QAE@HMMMMPAD@Z  0049d930 f   mmui:pu_chat.obj
 0001:0009ca30       ??1PUChat@@UAE@XZ          0049da30 f   mmui:pu_chat.obj
 0001:0009ca40       ?ClearChat@PUChat@@QAEXXZ  0049da40 f   mmui:pu_chat.obj
 0001:0009ca80       ?ChatEntry@PUChat@@QAEXXZ  0049da80 f   mmui:pu_chat.obj
 0001:0009cae0       ??_EPUChat@@UAEPAXI@Z      0049dae0 f i mmui:pu_chat.obj
 0001:0009cae0       ??_GPUChat@@UAEPAXI@Z      0049dae0 f i mmui:pu_chat.obj
 0001:0009cb10       ??0PUGraphics@@QAE@HMMMM@Z 0049db10 f   mmui:pu_graphics.obj
 0001:0009d090       ??1PUGraphics@@UAE@XZ      0049e090 f   mmui:pu_graphics.obj
 0001:0009d0a0       ?PreSetup@PUGraphics@@UAEXXZ 0049e0a0 f   mmui:pu_graphics.obj
 0001:0009d0b0       ?CancelAction@PUGraphics@@QAEXXZ 0049e0b0 f   mmui:pu_graphics.obj
 0001:0009d0c0       ??_GPUGraphics@@UAEPAXI@Z  0049e0c0 f i mmui:pu_graphics.obj
 0001:0009d0c0       ??_EPUGraphics@@UAEPAXI@Z  0049e0c0 f i mmui:pu_graphics.obj
 0001:0009d0f0       ?GetInstance@mmCullCity@@SAPAV1@XZ 0049e0f0 f i mmui:pu_graphics.obj
 0001:0009d100       ??0PUControl@@QAE@HMMMM@Z  0049e100 f   mmui:pu_control.obj
 0001:0009d400       ??1PUControl@@UAE@XZ       0049e400 f   mmui:pu_control.obj
 0001:0009d460       ?PreSetup@PUControl@@UAEXXZ 0049e460 f   mmui:pu_control.obj
 0001:0009d480       ?CancelAction@PUControl@@QAEXXZ 0049e480 f   mmui:pu_control.obj
 0001:0009d4a0       ?SetRWStates@PUControl@@QAEXXZ 0049e4a0 f   mmui:pu_control.obj
 0001:0009d530       ?ControlSelect@PUControl@@QAEXXZ 0049e530 f   mmui:pu_control.obj
 0001:0009d560       ?SetSensitivityCB@PUControl@@QAEXXZ 0049e560 f   mmui:pu_control.obj
 0001:0009d570       ??_EPUControl@@UAEPAXI@Z   0049e570 f i mmui:pu_control.obj
 0001:0009d570       ??_GPUControl@@UAEPAXI@Z   0049e570 f i mmui:pu_control.obj
 0001:0009d5a0       ??0PUDebug@@QAE@HMMMM@Z    0049e5a0 f   mmui:pu_debug.obj
 0001:0009d740       ??1PUDebug@@UAE@XZ         0049e740 f   mmui:pu_debug.obj
 0001:0009d750       ?RecordCB@PUDebug@@QAEXXZ  0049e750 f   mmui:pu_debug.obj
 0001:0009d760       ??_GPUDebug@@UAEPAXI@Z     0049e760 f i mmui:pu_debug.obj
 0001:0009d760       ??_EPUDebug@@UAEPAXI@Z     0049e760 f i mmui:pu_debug.obj
 0001:0009d790       ??0PUOptions@@QAE@HMMMM@Z  0049e790 f   mmui:pu_options.obj
 0001:0009d900       ??1PUOptions@@UAE@XZ       0049e900 f   mmui:pu_options.obj
 0001:0009d910       ??_GPUOptions@@UAEPAXI@Z   0049e910 f i mmui:pu_options.obj
 0001:0009d910       ??_EPUOptions@@UAEPAXI@Z   0049e910 f i mmui:pu_options.obj
 0001:0009d940       ??0PUAudioOptions@@QAE@HMMMM@Z 0049e940 f   mmui:pu_audio.obj
 0001:0009db80       ??1PUAudioOptions@@UAE@XZ  0049eb80 f   mmui:pu_audio.obj
 0001:0009db90       ?SetWaveVolume@PUAudioOptions@@QAEXXZ 0049eb90 f   mmui:pu_audio.obj
 0001:0009dbb0       ?SetCDVolume@PUAudioOptions@@QAEXXZ 0049ebb0 f   mmui:pu_audio.obj
 0001:0009dbd0       ?SetBalance@PUAudioOptions@@QAEXXZ 0049ebd0 f   mmui:pu_audio.obj
 0001:0009dc00       ?PreSetup@PUAudioOptions@@UAEXXZ 0049ec00 f   mmui:pu_audio.obj
 0001:0009dc10       ?CancelAction@PUAudioOptions@@QAEXXZ 0049ec10 f   mmui:pu_audio.obj
 0001:0009dc20       ??_GPUAudioOptions@@UAEPAXI@Z 0049ec20 f i mmui:pu_audio.obj
 0001:0009dc20       ??_EPUAudioOptions@@UAEPAXI@Z 0049ec20 f i mmui:pu_audio.obj
 0001:0009dc50       ??0PUExit@@QAE@HMMMMPAD@Z  0049ec50 f   mmui:pu_exit.obj
 0001:0009dd90       ??1PUExit@@UAE@XZ          0049ed90 f   mmui:pu_exit.obj
 0001:0009dda0       ??_GPUExit@@UAEPAXI@Z      0049eda0 f i mmui:pu_exit.obj
 0001:0009dda0       ??_EPUExit@@UAEPAXI@Z      0049eda0 f i mmui:pu_exit.obj
 0001:0009ddd0       ??0PUQuit@@QAE@HMMMMPAD@Z  0049edd0 f   mmui:pu_quit.obj
 0001:0009df10       ??1PUQuit@@UAE@XZ          0049ef10 f   mmui:pu_quit.obj
 0001:0009df20       ??_GPUQuit@@UAEPAXI@Z      0049ef20 f i mmui:pu_quit.obj
 0001:0009df20       ??_EPUQuit@@UAEPAXI@Z      0049ef20 f i mmui:pu_quit.obj
 0001:0009df50       ??0PUMain@@QAE@HMMMMPAD@Z  0049ef50 f   mmui:pu_main.obj
 0001:0009e150       ??1PUMain@@UAE@XZ          0049f150 f   mmui:pu_main.obj
 0001:0009e160       ??_EPUMain@@UAEPAXI@Z      0049f160 f i mmui:pu_main.obj
 0001:0009e160       ??_GPUMain@@UAEPAXI@Z      0049f160 f i mmui:pu_main.obj
 0001:0009e190       ??0PUMenuBase@@QAE@HMMMMPAD@Z 0049f190 f   mmui:pu_menu.obj
 0001:0009e360       ??1PUMenuBase@@UAE@XZ      0049f360 f   mmui:pu_menu.obj
 0001:0009e3c0       ?CreateDummyBitmap@PUMenuBase@@QAEPAVagiBitmap@@XZ 0049f3c0 f   mmui:pu_menu.obj
 0001:0009e420       ?CreateTitle@PUMenuBase@@QAEMXZ 0049f420 f   mmui:pu_menu.obj
 0001:0009e430       ?AddPrevious@PUMenuBase@@QAEMMMMM@Z 0049f430 f   mmui:pu_menu.obj
 0001:0009e4a0       ?AddOKCancel@PUMenuBase@@QAEXVCallback@@0@Z 0049f4a0 f   mmui:pu_menu.obj
 0001:0009e540       ?AddExit@PUMenuBase@@QAEMMMMM@Z 0049f540 f   mmui:pu_menu.obj
 0001:0009e5b0       ?Update@PUMenuBase@@UAEXXZ 0049f5b0 f   mmui:pu_menu.obj
 0001:0009e5e0       ?Cull@PUMenuBase@@UAEXXZ   0049f5e0 f   mmui:pu_menu.obj
 0001:0009e620       ?DisableExit@PUMenuBase@@QAEXXZ 0049f620 f   mmui:pu_menu.obj
 0001:0009e630       ?EnableExit@PUMenuBase@@QAEXXZ 0049f630 f   mmui:pu_menu.obj
 0001:0009e640       ??_EPUMenuBase@@UAEPAXI@Z  0049f640 f i mmui:pu_menu.obj
 0001:0009e640       ??_GPUMenuBase@@UAEPAXI@Z  0049f640 f i mmui:pu_menu.obj
 0001:0009e670       ??0OptionsBase@@QAE@H@Z    0049f670 f   mmui:optionsbase.obj
 0001:0009e7d0       ?CreateTitle@OptionsBase@@QAEXPAULocString@@@Z 0049f7d0 f   mmui:optionsbase.obj
 0001:0009e800       ??1OptionsBase@@UAE@XZ     0049f800 f   mmui:optionsbase.obj
 0001:0009e850       ??_GOptionsBase@@UAEPAXI@Z 0049f850 f i mmui:optionsbase.obj
 0001:0009e850       ??_EOptionsBase@@UAEPAXI@Z 0049f850 f i mmui:optionsbase.obj
 0001:0009e880       ??_9@$BEE@AE               0049f880 f i mmui:optionsbase.obj
 0001:0009e890       ??_9@$BEI@AE               0049f890 f i mmui:optionsbase.obj
 0001:0009e8a0       ?ResetDefaultAction@OptionsBase@@UAEXXZ 0049f8a0 f i mmui:optionsbase.obj
 0001:0009e8b0       ??0ControlBase@@QAE@XZ     0049f8b0 f   mmui:controlbase.obj
 0001:0009e8c0       ??1ControlBase@@QAE@XZ     0049f8c0 f   mmui:controlbase.obj
 0001:0009e8d0       ?InitSensitivity@ControlBase@@QAEXXZ 0049f8d0 f   mmui:controlbase.obj
 0001:0009e930       ?SetSensitivity@ControlBase@@QAEXXZ 0049f930 f   mmui:controlbase.obj
 0001:0009e960       ??0MArray@@QAE@XZ          0049f960 f   mmwidget:mstore.obj
 0001:0009e970       ??1MArray@@QAE@XZ          0049f970 f   mmwidget:mstore.obj
 0001:0009e980       ?Init@MArray@@QAEXH@Z      0049f980 f   mmwidget:mstore.obj
 0001:0009e9c0       ?Write@MArray@@QAEXPAD@Z   0049f9c0 f   mmwidget:mstore.obj
 0001:0009ecd0       ?Flush@MArray@@QAEXXZ      0049fcd0 f   mmwidget:mstore.obj
 0001:0009ece0       ?Read@MArray@@QAEXPAD@Z    0049fce0 f   mmwidget:mstore.obj
 0001:0009eea0       ?AddMenuData@MArray@@QAEXHAAVVector4@@PAD@Z 0049fea0 f   mmwidget:mstore.obj
 0001:0009ef10       ?RetrieveMenuData@MArray@@QAEHHAAM000@Z 0049ff10 f   mmwidget:mstore.obj
 0001:0009eff0       ??0WArray@@QAE@XZ          0049fff0 f   mmwidget:wstore.obj
 0001:0009f000       ??1WArray@@QAE@XZ          004a0000 f   mmwidget:wstore.obj
 0001:0009f010       ?Init@WArray@@QAEXH@Z      004a0010 f   mmwidget:wstore.obj
 0001:0009f050       ?Write@WArray@@QAEXPAD@Z   004a0050 f   mmwidget:wstore.obj
 0001:0009f270       ?DumpMenu@WArray@@QAEXPAVStream@@PAVUIMenu@@@Z 004a0270 f   mmwidget:wstore.obj
 0001:0009f4d0       ?Flush@WArray@@QAEXXZ      004a04d0 f   mmwidget:wstore.obj
 0001:0009f4e0       ?Read@WArray@@QAEXPAD@Z    004a04e0 f   mmwidget:wstore.obj
 0001:0009f6c0       ?AddWidgetData@WArray@@QAEXHHAAVVector4@@PAD@Z 004a06c0 f   mmwidget:wstore.obj
 0001:0009f740       ?RetrieveWidgetData@WArray@@QAEHHHAAM000@Z 004a0740 f   mmwidget:wstore.obj
 0001:0009f9a0       ??0UIMenu@@QAE@H@Z         004a09a0 f   mmwidget:menu.obj
 0001:0009faa0       ??1UIMenu@@UAE@XZ          004a0aa0 f   mmwidget:menu.obj
 0001:0009fb40       ?AssignName@UIMenu@@QAEXPAULocString@@@Z 004a0b40 f   mmwidget:menu.obj
 0001:0009fb90       ?AssignBackground@UIMenu@@QAEXPAD@Z 004a0b90 f   mmwidget:menu.obj
 0001:0009fbe0       ?Enable@UIMenu@@QAEXXZ     004a0be0 f   mmwidget:menu.obj
 0001:0009fc50       ?Disable@UIMenu@@QAEXXZ    004a0c50 f   mmwidget:menu.obj
 0001:0009fc70       ?PreSetup@UIMenu@@UAEXXZ   004a0c70 f   mmwidget:menu.obj
 0001:0009fca0       ?PostSetup@UIMenu@@UAEXXZ  004a0ca0 f   mmwidget:menu.obj
 0001:0009fcb0       ?Update@UIMenu@@UAEXXZ     004a0cb0 f   mmwidget:menu.obj
 0001:0009fcc0       ?SetAction@UIMenu@@QAEXW4eSource@1@@Z 004a0cc0 f   mmwidget:menu.obj
 0001:0009fce0       ?ForceWidgetAction@UIMenu@@QAEXH@Z 004a0ce0 f   mmwidget:menu.obj
 0001:0009fd00       ?ClearAction@UIMenu@@QAEXXZ 004a0d00 f   mmwidget:menu.obj
 0001:0009fd10       ?ClearToolTip@UIMenu@@QAEXXZ 004a0d10 f   mmwidget:menu.obj
 0001:0009fd40       ?BackUp@UIMenu@@UAEXXZ     004a0d40 f   mmwidget:menu.obj
 0001:0009fd50       ?SetBstate@UIMenu@@QAEXH@Z 004a0d50 f   mmwidget:menu.obj
 0001:0009fd80       ?SetFocusWidget@UIMenu@@QAEXH@Z 004a0d80 f   mmwidget:menu.obj
 0001:0009fdc0       ?GetWidgetID@UIMenu@@QAEHXZ 004a0dc0 f   mmwidget:menu.obj
 0001:0009fdd0       ?GetBstate@UIMenu@@QAEHXZ  004a0dd0 f   mmwidget:menu.obj
 0001:0009fde0       ?GetDimensions@UIMenu@@QAEXAAM000@Z 004a0de0 f   mmwidget:menu.obj
 0001:0009fe10       ?DisableIME@UIMenu@@QAEXXZ 004a0e10 f   mmwidget:menu.obj
 0001:0009fe30       ?FindTheFirstFocusWidget@UIMenu@@QAEHXZ 004a0e30 f   mmwidget:menu.obj
 0001:0009fe70       ?Increment@UIMenu@@QAEHXZ  004a0e70 f   mmwidget:menu.obj
 0001:0009ff30       ?Decrement@UIMenu@@QAEHXZ  004a0f30 f   mmwidget:menu.obj
 0001:0009ffe0       ?ScanInput@UIMenu@@QAEHPATeqEvent@@@Z 004a0fe0 f   mmwidget:menu.obj
 0001:000a0020       ?CheckInput@UIMenu@@UAEXXZ 004a1020 f   mmwidget:menu.obj
 0001:000a00b0       ?ScaleWidget@UIMenu@@QAEXAAM000@Z 004a10b0 f   mmwidget:menu.obj
 0001:000a00f0       ?AddHotSpot@UIMenu@@QAEPAVuiWidget@@HPADMMMMVCallback@@@Z 004a10f0 f   mmwidget:menu.obj
 0001:000a01d0       ?AddTextDropdown@UIMenu@@QAEPAVUITextDropdown@@HPAULocString@@PAHMMMMVstring@@HHHVCallback@@PAD@Z 004a11d0 f   mmwidget:menu.obj
 0001:000a0350       ?AddTextRoller@UIMenu@@QAEPAVUITextRoller@@HPAULocString@@PAHMMMMVstring@@HHHHVCallback@@@Z 004a1350 f   mmwidget:menu.obj
 0001:000a04a0       ?AddTextRoller2@UIMenu@@QAEPAVUITextRoller2@@HPAULocString@@PAHMMMMVstring@@HHHHVCallback@@@Z 004a14a0 f   mmwidget:menu.obj
 0001:000a0620       ?AddTextScroll@UIMenu@@QAEPAVUITextScroll@@HPAXMMMMVstring@@HPAHVCallback@@@Z 004a1620 f   mmwidget:menu.obj
 0001:000a07c0       ?AddCompScroll@UIMenu@@QAEPAVUICompositeScroll@@HMMMMMHPAHHHVCallback@@@Z 004a17c0 f   mmwidget:menu.obj
 0001:000a0940       ?AddTextField@UIMenu@@QAEPAVUITextField@@HPAULocString@@PADMMMMHHHHHVCallback@@@Z 004a1940 f   mmwidget:menu.obj
 0001:000a0ab0       ?AddUIControl@UIMenu@@QAEPAVUIControlWidget@@HMMMMMPAVmmIO@@VCallback@@@Z 004a1ab0 f   mmwidget:menu.obj
 0001:000a0b80       ?AddSlider@UIMenu@@QAEPAVUISlider@@HPAULocString@@PAMMMMMMMHHHHVCallback@@@Z 004a1b80 f   mmwidget:menu.obj
 0001:000a0cc0       ?AddButton@UIMenu@@QAEPAVUIButton@@HPAULocString@@MMMMHHVCallback@@@Z 004a1cc0 f   mmwidget:menu.obj
 0001:000a0de0       ?AddLabel@UIMenu@@QAEPAVUILabel@@HPAULocString@@MMMMHH@Z 004a1de0 f   mmwidget:menu.obj
 0001:000a0ef0       ?AddBMLabel@UIMenu@@QAEPAVUIBMLabel@@HPADPAVstring@@MMPAH@Z 004a1ef0 f   mmwidget:menu.obj
 0001:000a1000       ?AddIcon@UIMenu@@QAEPAVUIIcon@@HPADMM@Z 004a2000 f   mmwidget:menu.obj
 0001:000a1110       ?AddIconW@UIMenu@@QAEPAVUIIconW@@HPAULocString@@PADMMMMVCallback@@@Z 004a2110 f   mmwidget:menu.obj
 0001:000a1220       ?AddToggle@UIMenu@@QAEPAVUIToggleButton@@HPAULocString@@PAHMMMMHHVCallback@@@Z 004a2220 f   mmwidget:menu.obj
 0001:000a1340       ?AddToggle2@UIMenu@@QAEPAVUIToggleButton2@@HPAULocString@@PAHMMMMHHVCallback@@@Z 004a2340 f   mmwidget:menu.obj
 0001:000a1460       ?AddMex@UIMenu@@QAEPAVUIMexButton@@HPAULocString@@PAHHMMMMHHVCallback@@@Z 004a2460 f   mmwidget:menu.obj
 0001:000a1580       ?AddBMButton@UIMenu@@QAEPAVUIBMButton@@HPADMMHVCallback@@PAHHH1@Z 004a2580 f   mmwidget:menu.obj
 0001:000a1710       ?AddCWArray@UIMenu@@QAEPAVUICWArray@@HMMMMHVCallback@@@Z 004a2710 f   mmwidget:menu.obj
 0001:000a1850       ?AddVScrollBar@UIMenu@@QAEPAVUIVScrollBar@@HPAHMMMMMMHHVCallback@@@Z 004a2850 f   mmwidget:menu.obj
 0001:000a19a0       ?MouseAction@UIMenu@@QAEXTeqEvent@@@Z 004a29a0 f   mmwidget:menu.obj
 0001:000a1a10       ?KeyboardAction@UIMenu@@QAEXTeqEvent@@@Z 004a2a10 f   mmwidget:menu.obj
 0001:000a1aa0       ?MouseHitCheck@UIMenu@@QAEPAVuiWidget@@HMM@Z 004a2aa0 f   mmwidget:menu.obj
 0001:000a1bd0       ?SetSelected@UIMenu@@QAEXXZ 004a2bd0 f   mmwidget:menu.obj
 0001:000a1c00       ?ClearSelected@UIMenu@@QAEXXZ 004a2c00 f   mmwidget:menu.obj
 0001:000a1c30       ?ClearWidgets@UIMenu@@QAEXXZ 004a2c30 f   mmwidget:menu.obj
 0001:000a1c60       ?CheckMouseHits@UIMenu@@QAEXXZ 004a2c60 f   mmwidget:menu.obj
 0001:000a1dd0       ?AddWidget@UIMenu@@QAEXPAVuiWidget@@PADMMMMH1@Z 004a2dd0 f   mmwidget:menu.obj
 0001:000a1ec0       ??_EUIMenu@@UAEPAXI@Z      004a2ec0 f i mmwidget:menu.obj
 0001:000a1ec0       ??_GUIMenu@@UAEPAXI@Z      004a2ec0 f i mmwidget:menu.obj
 0001:000a1ef0       ??0MenuManager@@QAE@XZ     004a2ef0 f   mmwidget:manager.obj
 0001:000a20b0       ??1MenuManager@@UAE@XZ     004a30b0 f   mmwidget:manager.obj
 0001:000a22d0       ?GetScale@MenuManager@@QAEXAAM000@Z 004a32d0 f   mmwidget:manager.obj
 0001:000a2340       ?MouseAction@MenuManager@@QAEPAVuiWidget@@HMM@Z 004a3340 f   mmwidget:manager.obj
 0001:000a23c0       ?ClearAllWidgets@MenuManager@@QAEXXZ 004a33c0 f   mmwidget:manager.obj
 0001:000a2400       ?Init@MenuManager@@QAEXHHPAD@Z 004a3400 f   mmwidget:manager.obj
 0001:000a2790       ?Init@MenuManager@@QAEXPAVasCamera@@HHMMMM@Z 004a3790 f   mmwidget:manager.obj
 0001:000a2a00       ?InitCommonStuff@MenuManager@@QAEXHH@Z 004a3a00 f   mmwidget:manager.obj
 0001:000a2ce0       ?AddPointer@MenuManager@@QAEXXZ 004a3ce0 f   mmwidget:manager.obj
 0001:000a2cf0       ?InitGlobalStrings@MenuManager@@QAEXXZ 004a3cf0 f   mmwidget:manager.obj
 0001:000a3460       ?LoadRaceNames@MenuManager@@QAEXXZ 004a4460 f   mmwidget:manager.obj
 0001:000a3750       ?GetControllerName@MenuManager@@QAEPADH@Z 004a4750 f   mmwidget:manager.obj
 0001:000a37f0       ?GetFont@MenuManager@@QAEPAXH@Z 004a47f0 f   mmwidget:manager.obj
 0001:000a38c0       ?GetFGColor@MenuManager@@QAEAAVVector4@@H@Z 004a48c0 f   mmwidget:manager.obj
 0001:000a3a60       ?CheckBG@MenuManager@@QAEXPAVUIMenu@@@Z 004a4a60 f   mmwidget:manager.obj
 0001:000a3a80       ?SetDefaultBackgroundImage@MenuManager@@QAEXPAD@Z 004a4a80 f   mmwidget:manager.obj
 0001:000a3ae0       ?SetBackgroundImage@MenuManager@@QAEXPAD@Z 004a4ae0 f   mmwidget:manager.obj
 0001:000a3b30       ?TogglePU@MenuManager@@QAEXXZ 004a4b30 f   mmwidget:manager.obj
 0001:000a3b50       ?EnablePU@MenuManager@@QAEXXZ 004a4b50 f   mmwidget:manager.obj
 0001:000a3bd0       ?AdjustPopupCard@MenuManager@@QAEXPAVUIMenu@@@Z 004a4bd0 f   mmwidget:manager.obj
 0001:000a3c20       ?DisablePU@MenuManager@@QAEXXZ 004a4c20 f   mmwidget:manager.obj
 0001:000a3c60       ?OpenDialog@MenuManager@@QAEXH@Z 004a4c60 f   mmwidget:manager.obj
 0001:000a3ce0       ?CloseDialog@MenuManager@@QAEXXZ 004a4ce0 f   mmwidget:manager.obj
 0001:000a3d10       ?Enable@MenuManager@@QAEXH@Z 004a4d10 f   mmwidget:manager.obj
 0001:000a3d80       ?Disable@MenuManager@@QAEXH@Z 004a4d80 f   mmwidget:manager.obj
 0001:000a3dc0       ?EnableNavBar@MenuManager@@QAEXXZ 004a4dc0 f   mmwidget:manager.obj
 0001:000a3de0       ?DisableNavBar@MenuManager@@QAEXXZ 004a4de0 f   mmwidget:manager.obj
 0001:000a3df0       ?Kill@MenuManager@@QAEXXZ  004a4df0 f   mmwidget:manager.obj
 0001:000a3e90       ?PlaySound@MenuManager@@QAEXH@Z 004a4e90 f   mmwidget:manager.obj
 0001:000a3f40       ?DeclareLastDrawn@MenuManager@@QAEXPAVasNode@@@Z 004a4f40 f   mmwidget:manager.obj
 0001:000a3f50       ?ResChange@MenuManager@@UAEXHH@Z 004a4f50 f   mmwidget:manager.obj
 0001:000a3f80       ?Update@MenuManager@@UAEXXZ 004a4f80 f   mmwidget:manager.obj
 0001:000a3fb0       ?Flush@MenuManager@@QAEXXZ 004a4fb0 f   mmwidget:manager.obj
 0001:000a3fe0       ?CheckInput@MenuManager@@QAEXXZ 004a4fe0 f   mmwidget:manager.obj
 0001:000a4060       ?ToggleFocus@MenuManager@@QAEXH@Z 004a5060 f   mmwidget:manager.obj
 0001:000a40e0       ?RegisterWidgetFocus@MenuManager@@QAEXHMMMMPAVuiWidget@@@Z 004a50e0 f   mmwidget:manager.obj
 0001:000a4140       ?ScanGlobalKeys@MenuManager@@QAEHH@Z 004a5140 f   mmwidget:manager.obj
 0001:000a4350       ?SwitchFocus@MenuManager@@QAEXPAVUIMenu@@@Z 004a5350 f   mmwidget:manager.obj
 0001:000a43a0       ?NotifyMouseSelect@MenuManager@@QAEXPAVUIMenu@@@Z 004a53a0 f   mmwidget:manager.obj
 0001:000a43e0       ?AddWidgets@MenuManager@@QAEXPAVBank@@@Z 004a53e0 f   mmwidget:manager.obj
 0001:000a43f0       ?GetCurrentMenu@MenuManager@@QAEPAVUIMenu@@XZ 004a53f0 f   mmwidget:manager.obj
 0001:000a4420       ?FindMenu@MenuManager@@QAEHH@Z 004a5420 f   mmwidget:manager.obj
 0001:000a4460       ?CurrentMenuSelected@MenuManager@@QAEHXZ 004a5460 f   mmwidget:manager.obj
 0001:000a4480       ?MenuState@MenuManager@@QAEHH@Z 004a5480 f   mmwidget:manager.obj
 0001:000a44c0       ?ActionID@MenuManager@@QAEHH@Z 004a54c0 f   mmwidget:manager.obj
 0001:000a4500       ?ForceCurrentFocus@MenuManager@@QAEXXZ 004a5500 f   mmwidget:manager.obj
 0001:000a4530       ?SetFocus@MenuManager@@QAEXPAVUIMenu@@@Z 004a5530 f   mmwidget:manager.obj
 0001:000a4540       ?Switch@MenuManager@@QAEHH@Z 004a5540 f   mmwidget:manager.obj
 0001:000a4600       ?SetPreviousMenu@MenuManager@@QAEXH@Z 004a5600 f   mmwidget:manager.obj
 0001:000a4630       ?GetPreviousMenu@MenuManager@@QAEHXZ 004a5630 f   mmwidget:manager.obj
 0001:000a4650       ?AddMenu2@MenuManager@@QAEHPAVUIMenu@@@Z 004a5650 f   mmwidget:manager.obj
 0001:000a46b0       ?DeleteMenu@MenuManager@@QAEXPAVUIMenu@@@Z 004a56b0 f   mmwidget:manager.obj
 0001:000a4710       ?PlayMenuSwitchSound@MenuManager@@AAEXXZ 004a5710 f   mmwidget:manager.obj
 0001:000a47b0       ?AllocateMenuSwitchAudio@MenuManager@@QAEXXZ 004a57b0 f   mmwidget:manager.obj
 0001:000a4930       ?PlayRecordsSound@MenuManager@@QAEXXZ 004a5930 f   mmwidget:manager.obj
 0001:000a4960       ?AddBrackets@MenuManager@@QAEXPAVUIIcon@@0PAVuiWidget@@MM@Z 004a5960 f   mmwidget:manager.obj
 0001:000a4a40       ?Help@MenuManager@@QAEXXZ  004a5a40 f   mmwidget:manager.obj
 0001:000a4bf0       ??_EMenuManager@@UAEPAXI@Z 004a5bf0 f i mmwidget:manager.obj
 0001:000a4bf0       ??_GMenuManager@@UAEPAXI@Z 004a5bf0 f i mmwidget:manager.obj
 0001:000a4c20       ??_EasLamp@@UAEPAXI@Z      004a5c20 f i mmwidget:manager.obj
 0001:000a4c80       ??_EasLinearCS@@UAEPAXI@Z  004a5c80 f i mmwidget:manager.obj
 0001:000a4ce0       ??0uiNavBar@@QAE@H@Z       004a5ce0 f   mmwidget:navbar.obj
 0001:000a4ef0       ?Help@uiNavBar@@QAEXXZ     004a5ef0 f   mmwidget:navbar.obj
 0001:000a4f00       ?Minimize@uiNavBar@@QAEXXZ 004a5f00 f   mmwidget:navbar.obj
 0001:000a4f50       ??1uiNavBar@@UAE@XZ        004a5f50 f   mmwidget:navbar.obj
 0001:000a4f60       ?ResetState@uiNavBar@@QAEXXZ 004a5f60 f   mmwidget:navbar.obj
 0001:000a4f70       ?OptionActive@uiNavBar@@QAEXXZ 004a5f70 f   mmwidget:navbar.obj
 0001:000a4f90       ?OptionInActive@uiNavBar@@QAEXXZ 004a5f90 f   mmwidget:navbar.obj
 0001:000a4fb0       ?Update@uiNavBar@@UAEXXZ   004a5fb0 f   mmwidget:navbar.obj
 0001:000a5050       ?SetPrevPos@uiNavBar@@QAEXMM@Z 004a6050 f   mmwidget:navbar.obj
 0001:000a50a0       ?TurnOnPrev@uiNavBar@@QAEXXZ 004a60a0 f   mmwidget:navbar.obj
 0001:000a50c0       ?TurnOffPrev@uiNavBar@@QAEXXZ 004a60c0 f   mmwidget:navbar.obj
 0001:000a50e0       ?SetPrevBitmap@uiNavBar@@QAEXPAD@Z 004a60e0 f   mmwidget:navbar.obj
 0001:000a5100       ??_GuiNavBar@@UAEPAXI@Z    004a6100 f i mmwidget:navbar.obj
 0001:000a5100       ??_EuiNavBar@@UAEPAXI@Z    004a6100 f i mmwidget:navbar.obj
 0001:000a5130       ?BackUp@uiNavBar@@UAEXXZ   004a6130 f i mmwidget:navbar.obj
 0001:000a5140       ??0UITextField@@QAE@XZ     004a6140 f   mmwidget:textfield.obj
 0001:000a5250       ??1UITextField@@UAE@XZ     004a6250 f   mmwidget:textfield.obj
 0001:000a52c0       ?Init@UITextField@@QAEXPAULocString@@PADMMMMHHHHHVCallback@@PAVUIMenu@@@Z 004a62c0 f   mmwidget:textfield.obj
 0001:000a55c0       ?SetText@UITextField@@QAEXPAULocString@@@Z 004a65c0 f   mmwidget:textfield.obj
 0001:000a55e0       ?SetField@UITextField@@QAEXPAD@Z 004a65e0 f   mmwidget:textfield.obj
 0001:000a5640       ?CaptureAction@UITextField@@UAEXTeqEvent@@@Z 004a6640 f   mmwidget:textfield.obj
 0001:000a5650       ?Action@UITextField@@UAEXTeqEvent@@@Z 004a6650 f   mmwidget:textfield.obj
 0001:000a56a0       ?ClearField@UITextField@@QAEXXZ 004a66a0 f   mmwidget:textfield.obj
 0001:000a5700       ?SetTextField@UITextField@@QAEXXZ 004a6700 f   mmwidget:textfield.obj
 0001:000a5750       ?ToggleField@UITextField@@QAEXH@Z 004a6750 f   mmwidget:textfield.obj
 0001:000a58b0       ?Switch@UITextField@@UAEXH@Z 004a68b0 f   mmwidget:textfield.obj
 0001:000a5950       ?IsValidChar@UITextField@@QAEHG@Z 004a6950 f   mmwidget:textfield.obj
 0001:000a59e0       ?WmCharHandler@UITextField@@QAEXE@Z 004a69e0 f   mmwidget:textfield.obj
 0001:000a5b50       ?KeyAction@UITextField@@QAEXPATeqEvent@@@Z 004a6b50 f   mmwidget:textfield.obj
 0001:000a5c60       ?SetCompositionWindow@UITextField@@QAEXXZ 004a6c60 f   mmwidget:textfield.obj
 0001:000a5d50       ??_GUITextField@@UAEPAXI@Z 004a6d50 f i mmwidget:textfield.obj
 0001:000a5d50       ??_EUITextField@@UAEPAXI@Z 004a6d50 f i mmwidget:textfield.obj
 0001:000a5d80       ??1uiWidget@@UAE@XZ        004a6d80 f i mmwidget:textfield.obj
 0001:000a5d90       ?Disable@uiWidget@@UAEXXZ  004a6d90 f i mmwidget:textfield.obj
 0001:000a5da0       ?Enable@uiWidget@@UAEXXZ   004a6da0 f i mmwidget:textfield.obj
 0001:000a5db0       ?TurnOn@uiWidget@@UAEXXZ   004a6db0 f i mmwidget:textfield.obj
 0001:000a5dd0       ?TurnOff@uiWidget@@UAEXXZ  004a6dd0 f i mmwidget:textfield.obj
 0001:000a5de0       ?SetReadOnly@uiWidget@@UAEXH@Z 004a6de0 f i mmwidget:textfield.obj
 0001:000a5e00       ?Action@uiWidget@@UAEXTeqEvent@@@Z 004a6e00 f i mmwidget:textfield.obj
 0001:000a5e10       ?CaptureAction@uiWidget@@UAEXTeqEvent@@@Z 004a6e10 f i mmwidget:textfield.obj
 0001:000a5e20       ?EvalMouseX@uiWidget@@UAEXM@Z 004a6e20 f i mmwidget:textfield.obj
 0001:000a5e30       ?ReturnDescription@uiWidget@@UAEPADXZ 004a6e30 f i mmwidget:textfield.obj
 0001:000a5e40       ?SetPosition@uiWidget@@UAEXMM@Z 004a6e40 f i mmwidget:textfield.obj
 0001:000a5e50       ?GetScreenHeight@uiWidget@@UAEMXZ 004a6e50 f i mmwidget:textfield.obj
 0001:000a5e60       ??_EuiWidget@@UAEPAXI@Z    004a6e60 f i mmwidget:textfield.obj
 0001:000a5e60       ??_GuiWidget@@UAEPAXI@Z    004a6e60 f i mmwidget:textfield.obj
 0001:000a5e90       ?Update@UITextField@@UAEXXZ 004a6e90 f i mmwidget:textfield.obj
 0001:000a5ea0       ??0UITextDropdown@@QAE@XZ  004a6ea0 f   mmwidget:textdrop.obj
 0001:000a5f30       ??1UITextDropdown@@UAE@XZ  004a6f30 f   mmwidget:textdrop.obj
 0001:000a5fa0       ?Init@UITextDropdown@@QAEXPAULocString@@PAHMMMMVstring@@HHHVCallback@@PAD@Z 004a6fa0 f   mmwidget:textdrop.obj
 0001:000a6360       ?GetScreenHeight@UITextDropdown@@UAEMXZ 004a7360 f   mmwidget:textdrop.obj
 0001:000a6370       ?SetPos@UITextDropdown@@QAEXMM@Z 004a7370 f   mmwidget:textdrop.obj
 0001:000a6380       ?AssignString@UITextDropdown@@QAEXVstring@@@Z 004a7380 f   mmwidget:textdrop.obj
 0001:000a6430       ?SetData@UITextDropdown@@QAEXPAH@Z 004a7430 f   mmwidget:textdrop.obj
 0001:000a6460       ?Update@UITextDropdown@@UAEXXZ 004a7460 f   mmwidget:textdrop.obj
 0001:000a64d0       ?SetText@UITextDropdown@@QAEXPAULocString@@@Z 004a74d0 f   mmwidget:textdrop.obj
 0001:000a64e0       ?CaptureAction@UITextDropdown@@UAEXTeqEvent@@@Z 004a74e0 f   mmwidget:textdrop.obj
 0001:000a6650       ?Action@UITextDropdown@@UAEXTeqEvent@@@Z 004a7650 f   mmwidget:textdrop.obj
 0001:000a6780       ?Switch@UITextDropdown@@UAEXH@Z 004a7780 f   mmwidget:textdrop.obj
 0001:000a6800       ?SetSliderFocus@UITextDropdown@@QAEXH@Z 004a7800 f   mmwidget:textdrop.obj
 0001:000a6880       ?GetValue@UITextDropdown@@QAEHXZ 004a7880 f   mmwidget:textdrop.obj
 0001:000a6890       ?SetValue@UITextDropdown@@QAEHH@Z 004a7890 f   mmwidget:textdrop.obj
 0001:000a68c0       ?SetDisabledMask@UITextDropdown@@QAEXJ@Z 004a78c0 f   mmwidget:textdrop.obj
 0001:000a68e0       ?AnyEnabled@UITextDropdown@@QAEHXZ 004a78e0 f   mmwidget:textdrop.obj
 0001:000a68f0       ?Cull@UITextDropdown@@UAEXXZ 004a78f0 f   mmwidget:textdrop.obj
 0001:000a6950       ??_GUITextDropdown@@UAEPAXI@Z 004a7950 f i mmwidget:textdrop.obj
 0001:000a6950       ??_EUITextDropdown@@UAEPAXI@Z 004a7950 f i mmwidget:textdrop.obj
 0001:000a6980       ??0UISlider@@QAE@XZ        004a7980 f   mmwidget:slider.obj
 0001:000a6a10       ??1UISlider@@UAE@XZ        004a7a10 f   mmwidget:slider.obj
 0001:000a6a80       ?Init@UISlider@@QAEXPAULocString@@PAMMMMMMMHHHHVCallback@@PAVUIMenu@@@Z 004a7a80 f   mmwidget:slider.obj
 0001:000a6c90       ?SetPosition@UISlider@@UAEXMM@Z 004a7c90 f   mmwidget:slider.obj
 0001:000a6de0       ?SetText@UISlider@@QAEXPAULocString@@@Z 004a7de0 f   mmwidget:slider.obj
 0001:000a6df0       ?Update@UISlider@@UAEXXZ   004a7df0 f   mmwidget:slider.obj
 0001:000a6e50       ?Action@UISlider@@UAEXTeqEvent@@@Z 004a7e50 f   mmwidget:slider.obj
 0001:000a6f10       ?Switch@UISlider@@UAEXH@Z  004a7f10 f   mmwidget:slider.obj
 0001:000a6f80       ?TestHit@UISlider@@QAEHMM@Z 004a7f80 f   mmwidget:slider.obj
 0001:000a6f90       ?SetReadWrite@UISlider@@QAEXH@Z 004a7f90 f   mmwidget:slider.obj
 0001:000a6fd0       ?IsReadWrite@UISlider@@QAEHXZ 004a7fd0 f   mmwidget:slider.obj
 0001:000a6fe0       ?GetValue@UISlider@@QAEMXZ 004a7fe0 f   mmwidget:slider.obj
 0001:000a6ff0       ?SetValue@UISlider@@QAEMM@Z 004a7ff0 f   mmwidget:slider.obj
 0001:000a7020       ?SetMouseParams@UISlider@@QAEXM@Z 004a8020 f   mmwidget:slider.obj
 0001:000a7070       ?EvalMouseXY@UISlider@@QAEXMM@Z 004a8070 f   mmwidget:slider.obj
 0001:000a7190       ?SetData@UISlider@@QAEXM@Z 004a8190 f   mmwidget:slider.obj
 0001:000a71b0       ?GetFudgeWidth@UISlider@@QAEMXZ 004a81b0 f   mmwidget:slider.obj
 0001:000a71c0       ??_GUISlider@@UAEPAXI@Z    004a81c0 f i mmwidget:slider.obj
 0001:000a71c0       ??_EUISlider@@UAEPAXI@Z    004a81c0 f i mmwidget:slider.obj
 0001:000a71f0       ?GetScreenHeight@UISlider@@UAEMXZ 004a81f0 f i mmwidget:slider.obj
 0001:000a7200       ??0UIBMLabel@@QAE@XZ       004a8200 f   mmwidget:bm_label.obj
 0001:000a7270       ??1UIBMLabel@@UAE@XZ       004a8270 f   mmwidget:bm_label.obj
 0001:000a72e0       ?Init@UIBMLabel@@QAEXPAVstring@@MMPAH@Z 004a82e0 f   mmwidget:bm_label.obj
 0001:000a73c0       ?SetBitmapName@UIBMLabel@@QAEXPAVstring@@@Z 004a83c0 f   mmwidget:bm_label.obj
 0001:000a7460       ?LoadBitmap@UIBMLabel@@AAEXXZ 004a8460 f   mmwidget:bm_label.obj
 0001:000a7540       ?CreateDummyBitmap@UIBMLabel@@QAEPAVagiBitmap@@XZ 004a8540 f   mmwidget:bm_label.obj
 0001:000a7590       ?Update@UIBMLabel@@UAEXXZ  004a8590 f   mmwidget:bm_label.obj
 0001:000a75c0       ?Cull@UIBMLabel@@UAEXXZ    004a85c0 f   mmwidget:bm_label.obj
 0001:000a75f0       ?DeclareFields@UIBMLabel@@SAXXZ 004a85f0 f   mmwidget:bm_label.obj
 0001:000a7760       ?GetClass@UIBMLabel@@UAEPAVMetaClass@@XZ 004a8760 f   mmwidget:bm_label.obj
 0001:000a7770       ??_EUIBMLabel@@UAEPAXI@Z   004a8770 f i mmwidget:bm_label.obj
 0001:000a77d0       ??0uiWidget@@QAE@XZ        004a87d0 f   mmwidget:widget.obj
 0001:000a7800       ?AddToolTip@uiWidget@@QAEXPAVUIMenu@@PAULocString@@@Z 004a8800 f   mmwidget:widget.obj
 0001:000a7810       ?Switch@uiWidget@@UAEXH@Z  004a8810 f   mmwidget:widget.obj
 0001:000a7830       ?ResetToolTip@uiWidget@@QAEXXZ 004a8830 f   mmwidget:widget.obj
 0001:000a7840       ?SetToolTipText@uiWidget@@QAEXPAULocString@@@Z 004a8840 f   mmwidget:widget.obj
 0001:000a7860       ??0mmCompRaceRecord@@QAE@XZ 004a8860 f   mmwidget:comprrec.obj
 0001:000a78a0       ??1mmCompRaceRecord@@UAE@XZ 004a88a0 f   mmwidget:comprrec.obj
 0001:000a7940       ?Init@mmCompRaceRecord@@QAEXHPAD0000HH@Z 004a8940 f   mmwidget:comprrec.obj
 0001:000a79d0       ?InitTitle@mmCompRaceRecord@@QAEXMMMMPAULocString@@00000H@Z 004a89d0 f   mmwidget:comprrec.obj
 0001:000a7a40       ?LoadBitmap@mmCompRaceRecord@@QAEXPAD@Z 004a8a40 f   mmwidget:comprrec.obj
 0001:000a7a90       ?Reset@mmCompRaceRecord@@UAEXXZ 004a8a90 f   mmwidget:comprrec.obj
 0001:000a7aa0       ?Update@mmCompRaceRecord@@UAEXXZ 004a8aa0 f   mmwidget:comprrec.obj
 0001:000a7ab0       ?SetSubwidgetGeometry@mmCompRaceRecord@@QAEXXZ 004a8ab0 f   mmwidget:comprrec.obj
 0001:000a7bd0       ?SetGeometry@mmCompRaceRecord@@UAEXMMMM@Z 004a8bd0 f   mmwidget:comprrec.obj
 0001:000a7c00       ?SelectIfRaceType@mmCompRaceRecord@@QAEXHH@Z 004a8c00 f   mmwidget:comprrec.obj
 0001:000a7c40       ?SetPosition@mmCompRaceRecord@@UAEXPAVmmTextNode@@HM@Z 004a8c40 f   mmwidget:comprrec.obj
 0001:000a7ce0       ?Cull@mmCompRaceRecord@@UAEXXZ 004a8ce0 f   mmwidget:comprrec.obj
 0001:000a7d20       ??_GmmCompRaceRecord@@UAEPAXI@Z 004a8d20 f i mmwidget:comprrec.obj
 0001:000a7d20       ??_EmmCompRaceRecord@@UAEPAXI@Z 004a8d20 f i mmwidget:comprrec.obj
 0001:000a7d50       ??1mmCompBase@@UAE@XZ      004a8d50 f i mmwidget:comprrec.obj
 0001:000a7d60       ?DisableBlt@mmCompBase@@UAEXXZ 004a8d60 f i mmwidget:comprrec.obj
 0001:000a7d70       ?SetBltXY@mmCompBase@@UAEXMM@Z 004a8d70 f i mmwidget:comprrec.obj
 0001:000a7da0       ?Action@mmCompBase@@UAEXTeqEvent@@@Z 004a8da0 f i mmwidget:comprrec.obj
 0001:000a7db0       ?CaptureAction@mmCompBase@@UAEXTeqEvent@@@Z 004a8db0 f i mmwidget:comprrec.obj
 0001:000a7dc0       ?Switch@mmCompBase@@UAEXH@Z 004a8dc0 f i mmwidget:comprrec.obj
 0001:000a7dd0       ?Action@mmCompBase@@UAEXTeqEvent@@MMH@Z 004a8dd0 f i mmwidget:comprrec.obj
 0001:000a7de0       ?EvalMouseXY@mmCompBase@@UAEXMM@Z 004a8de0 f i mmwidget:comprrec.obj
 0001:000a7df0       ?Highlight@mmCompBase@@UAEXPAVmmTextNode@@H@Z 004a8df0 f i mmwidget:comprrec.obj
 0001:000a7e00       ?SetGeometry@mmCompBase@@UAEXMMMM@Z 004a8e00 f i mmwidget:comprrec.obj
 0001:000a7e20       ??_GmmCompBase@@UAEPAXI@Z  004a8e20 f i mmwidget:comprrec.obj
 0001:000a7e20       ??_EmmCompBase@@UAEPAXI@Z  004a8e20 f i mmwidget:comprrec.obj
 0001:000a7e50       ??0UICompositeScroll@@QAE@XZ 004a8e50 f   mmwidget:compscroll.obj
 0001:000a7f30       ??1UICompositeScroll@@UAE@XZ 004a8f30 f   mmwidget:compscroll.obj
 0001:000a7fb0       ?Init@UICompositeScroll@@QAEXMMMMMHPAHHHVCallback@@@Z 004a8fb0 f   mmwidget:compscroll.obj
 0001:000a81f0       ?InitVScroll@UICompositeScroll@@QAEXMMM@Z 004a91f0 f   mmwidget:compscroll.obj
 0001:000a8270       ?RemoveAllComponentChildren@UICompositeScroll@@QAEXXZ 004a9270 f   mmwidget:compscroll.obj
 0001:000a82c0       ?AddComponent@UICompositeScroll@@QAEXPAVmmCompBase@@@Z 004a92c0 f   mmwidget:compscroll.obj
 0001:000a8390       ?AddTitle@UICompositeScroll@@QAEXPAVmmCompBase@@@Z 004a9390 f   mmwidget:compscroll.obj
 0001:000a83b0       ?GetSelectedCount@UICompositeScroll@@QAEHXZ 004a93b0 f   mmwidget:compscroll.obj
 0001:000a8400       ?Redraw@UICompositeScroll@@QAEXXZ 004a9400 f   mmwidget:compscroll.obj
 0001:000a8550       ?VScrollCB@UICompositeScroll@@QAEXXZ 004a9550 f   mmwidget:compscroll.obj
 0001:000a85c0       ?SetVScrollVals@UICompositeScroll@@QAEXXZ 004a95c0 f   mmwidget:compscroll.obj
 0001:000a8610       ?SetVScrollPos@UICompositeScroll@@QAEXXZ 004a9610 f   mmwidget:compscroll.obj
 0001:000a8640       ?Reset@UICompositeScroll@@UAEXXZ 004a9640 f   mmwidget:compscroll.obj
 0001:000a8660       ?Update@UICompositeScroll@@UAEXXZ 004a9660 f   mmwidget:compscroll.obj
 0001:000a8670       ?GetHit@UICompositeScroll@@QAEHMM@Z 004a9670 f   mmwidget:compscroll.obj
 0001:000a86f0       ?Action@UICompositeScroll@@UAEXTeqEvent@@@Z 004a96f0 f   mmwidget:compscroll.obj
 0001:000a8860       ?CaptureAction@UICompositeScroll@@UAEXTeqEvent@@@Z 004a9860 f   mmwidget:compscroll.obj
 0001:000a88d0       ?Switch@UICompositeScroll@@UAEXH@Z 004a98d0 f   mmwidget:compscroll.obj
 0001:000a8910       ?Clear@UICompositeScroll@@QAEXXZ 004a9910 f   mmwidget:compscroll.obj
 0001:000a8920       ?SetHightlight@UICompositeScroll@@QAEXXZ 004a9920 f   mmwidget:compscroll.obj
 0001:000a8930       ?GetHeight@UICompositeScroll@@QAEMXZ 004a9930 f   mmwidget:compscroll.obj
 0001:000a8950       ?SetPosition@UICompositeScroll@@QAEXH@Z 004a9950 f   mmwidget:compscroll.obj
 0001:000a8990       ??_GUICompositeScroll@@UAEPAXI@Z 004a9990 f i mmwidget:compscroll.obj
 0001:000a8990       ??_EUICompositeScroll@@UAEPAXI@Z 004a9990 f i mmwidget:compscroll.obj
 0001:000a89c0       ??0mmCompDRecord@@QAE@XZ   004a99c0 f   mmwidget:compdrec.obj
 0001:000a8a00       ??1mmCompDRecord@@UAE@XZ   004a9a00 f   mmwidget:compdrec.obj
 0001:000a8ab0       ?Init@mmCompDRecord@@QAEXHPADM0HHH@Z 004a9ab0 f   mmwidget:compdrec.obj
 0001:000a8b90       ?InitTitle@mmCompDRecord@@QAEXMMMMPAULocString@@0000H@Z 004a9b90 f   mmwidget:compdrec.obj
 0001:000a8c00       ?LoadBitmap@mmCompDRecord@@QAEXPAD@Z 004a9c00 f   mmwidget:compdrec.obj
 0001:000a8c70       ?Reset@mmCompDRecord@@UAEXXZ 004a9c70 f   mmwidget:compdrec.obj
 0001:000a8c80       ?Update@mmCompDRecord@@UAEXXZ 004a9c80 f   mmwidget:compdrec.obj
 0001:000a8cb0       ?SetSubwidgetGeometry@mmCompDRecord@@QAEXXZ 004a9cb0 f   mmwidget:compdrec.obj
 0001:000a8dd0       ?SetPosition@mmCompDRecord@@UAEXPAVmmTextNode@@HM@Z 004a9dd0 f   mmwidget:compdrec.obj
 0001:000a8e70       ?SetGeometry@mmCompDRecord@@UAEXMMMM@Z 004a9e70 f   mmwidget:compdrec.obj
 0001:000a8ea0       ?SetBltXY@mmCompDRecord@@UAEXMM@Z 004a9ea0 f   mmwidget:compdrec.obj
 0001:000a8ef0       ?Cull@mmCompDRecord@@UAEXXZ 004a9ef0 f   mmwidget:compdrec.obj
 0001:000a8f90       ??_GmmCompDRecord@@UAEPAXI@Z 004a9f90 f i mmwidget:compdrec.obj
 0001:000a8f90       ??_EmmCompDRecord@@UAEPAXI@Z 004a9f90 f i mmwidget:compdrec.obj
 0001:000a8fc0       ?DisableBlt@mmCompDRecord@@UAEXXZ 004a9fc0 f i mmwidget:compdrec.obj
 0001:000a8fd0       ??0UIBMButton@@QAE@XZ      004a9fd0 f   mmwidget:bm_button.obj
 0001:000a9070       ??1UIBMButton@@UAE@XZ      004aa070 f   mmwidget:bm_button.obj
 0001:000a90f0       ?Init@UIBMButton@@QAEXPADMMHHPAHHHPAULocString@@VCallback@@3@Z 004aa0f0 f   mmwidget:bm_button.obj
 0001:000a9380       ?LoadBitmap@UIBMButton@@QAEXPAD@Z 004aa380 f   mmwidget:bm_button.obj
 0001:000a93f0       ?GetDiv@UIBMButton@@QAEHXZ 004aa3f0 f   mmwidget:bm_button.obj
 0001:000a9420       ?CreateDummyBitmap@UIBMButton@@QAEPAVagiBitmap@@XZ 004aa420 f   mmwidget:bm_button.obj
 0001:000a9480       ?GetSize@UIBMButton@@AAEXXZ 004aa480 f   mmwidget:bm_button.obj
 0001:000a94b0       ?SetPosition@UIBMButton@@UAEXMM@Z 004aa4b0 f   mmwidget:bm_button.obj
 0001:000a9620       ?GetHitArea@UIBMButton@@QAEXAAM0@Z 004aa620 f   mmwidget:bm_button.obj
 0001:000a9680       ?DoToggle@UIBMButton@@QAEXXZ 004aa680 f   mmwidget:bm_button.obj
 0001:000a9740       ?Kill@UIBMButton@@QAEXXZ   004aa740 f   mmwidget:bm_button.obj
 0001:000a9760       ?Unkill@UIBMButton@@QAEXXZ 004aa760 f   mmwidget:bm_button.obj
 0001:000a97a0       ?Switch@UIBMButton@@UAEXH@Z 004aa7a0 f   mmwidget:bm_button.obj
 0001:000a98d0       ?Action@UIBMButton@@UAEXTeqEvent@@@Z 004aa8d0 f   mmwidget:bm_button.obj
 0001:000a9980       ?MexOff@UIBMButton@@QAEXXZ 004aa980 f   mmwidget:bm_button.obj
 0001:000a9990       ?MexOn@UIBMButton@@QAEXXZ  004aa990 f   mmwidget:bm_button.obj
 0001:000a99d0       ?MexToggle@UIBMButton@@QAEXXZ 004aa9d0 f   mmwidget:bm_button.obj
 0001:000a9a00       ?Update@UIBMButton@@UAEXXZ 004aaa00 f   mmwidget:bm_button.obj
 0001:000a9b90       ?ReturnDescription@UIBMButton@@UAEPADXZ 004aab90 f   mmwidget:bm_button.obj
 0001:000a9c40       ?GetScreenHeight@UIBMButton@@UAEMXZ 004aac40 f   mmwidget:bm_button.obj
 0001:000a9c50       ?Cull@UIBMButton@@UAEXXZ   004aac50 f   mmwidget:bm_button.obj
 0001:000a9e00       ?AllocateSounds@UIBMButton@@CAXXZ 004aae00 f   mmwidget:bm_button.obj
 0001:000a9ff0       ?PlaySound@UIBMButton@@AAEXXZ 004aaff0 f   mmwidget:bm_button.obj
 0001:000aa020       ?DeclareFields@UIBMButton@@SAXXZ 004ab020 f   mmwidget:bm_button.obj
 0001:000aa190       ?GetClass@UIBMButton@@UAEPAVMetaClass@@XZ 004ab190 f   mmwidget:bm_button.obj
 0001:000aa1a0       ?Enable@UIBMButton@@UAEXXZ 004ab1a0 f i mmwidget:bm_button.obj
 0001:000aa1c0       ?Disable@UIBMButton@@UAEXXZ 004ab1c0 f i mmwidget:bm_button.obj
 0001:000aa1e0       ??_EUIBMButton@@UAEPAXI@Z  004ab1e0 f i mmwidget:bm_button.obj
 0001:000aa240       ??0mmCompCRPlayer@@QAE@XZ  004ab240 f   mmwidget:compcr.obj
 0001:000aa270       ??1mmCompCRPlayer@@UAE@XZ  004ab270 f   mmwidget:compcr.obj
 0001:000aa300       ?Init@mmCompCRPlayer@@QAEXPADH0HH@Z 004ab300 f   mmwidget:compcr.obj
 0001:000aa430       ?InitTitle@mmCompCRPlayer@@QAEXMMMMPAULocString@@000H@Z 004ab430 f   mmwidget:compcr.obj
 0001:000aa440       ?LoadBitmap@mmCompCRPlayer@@QAEXPAD@Z 004ab440 f   mmwidget:compcr.obj
 0001:000aa4a0       ?Reset@mmCompCRPlayer@@UAEXXZ 004ab4a0 f   mmwidget:compcr.obj
 0001:000aa4b0       ?Update@mmCompCRPlayer@@UAEXXZ 004ab4b0 f   mmwidget:compcr.obj
 0001:000aa4c0       ?SetPoints@mmCompCRPlayer@@QAEXH@Z 004ab4c0 f   mmwidget:compcr.obj
 0001:000aa4e0       ?SetSubwidgetGeometry@mmCompCRPlayer@@QAEXXZ 004ab4e0 f   mmwidget:compcr.obj
 0001:000aa5e0       ?SetPosition@mmCompCRPlayer@@UAEXPAVmmTextNode@@HM@Z 004ab5e0 f   mmwidget:compcr.obj
 0001:000aa670       ?SetGeometry@mmCompCRPlayer@@UAEXMMMM@Z 004ab670 f   mmwidget:compcr.obj
 0001:000aa6a0       ?Cull@mmCompCRPlayer@@UAEXXZ 004ab6a0 f   mmwidget:compcr.obj
 0001:000aa740       ??_GmmCompCRPlayer@@UAEPAXI@Z 004ab740 f i mmwidget:compcr.obj
 0001:000aa740       ??_EmmCompCRPlayer@@UAEPAXI@Z 004ab740 f i mmwidget:compcr.obj
 0001:000aa770       ??0mmCompRoster@@QAE@XZ    004ab770 f   mmwidget:comproster.obj
 0001:000aa7e0       ??1mmCompRoster@@UAE@XZ    004ab7e0 f   mmwidget:comproster.obj
 0001:000aa870       ?Init@mmCompRoster@@QAEXPAD00K@Z 004ab870 f   mmwidget:comproster.obj
 0001:000aa8f0       ?InitTitle@mmCompRoster@@QAEXMMMMPAULocString@@000H@Z 004ab8f0 f   mmwidget:comproster.obj
 0001:000aa900       ?LoadBitmap@mmCompRoster@@QAEXPAD@Z 004ab900 f   mmwidget:comproster.obj
 0001:000aa950       ?Reset@mmCompRoster@@UAEXXZ 004ab950 f   mmwidget:comproster.obj
 0001:000aa960       ?Update@mmCompRoster@@UAEXXZ 004ab960 f   mmwidget:comproster.obj
 0001:000aa990       ?SetReady@mmCompRoster@@QAEXH@Z 004ab990 f   mmwidget:comproster.obj
 0001:000aa9b0       ?SetSubwidgetGeometry@mmCompRoster@@QAEXXZ 004ab9b0 f   mmwidget:comproster.obj
 0001:000aaa50       ?SetPosition@mmCompRoster@@UAEXPAVmmTextNode@@HM@Z 004aba50 f   mmwidget:comproster.obj
 0001:000aaad0       ?SetGeometry@mmCompRoster@@UAEXMMMM@Z 004abad0 f   mmwidget:comproster.obj
 0001:000aab00       ?SetBltXY@mmCompRoster@@UAEXMM@Z 004abb00 f   mmwidget:comproster.obj
 0001:000aab40       ?Cull@mmCompRoster@@UAEXXZ 004abb40 f   mmwidget:comproster.obj
 0001:000aab70       ??_GmmCompRoster@@UAEPAXI@Z 004abb70 f i mmwidget:comproster.obj
 0001:000aab70       ??_EmmCompRoster@@UAEPAXI@Z 004abb70 f i mmwidget:comproster.obj
 0001:000aaba0       ??0UICWArray@@QAE@XZ       004abba0 f   mmwidget:cwarray.obj
 0001:000aac60       ??1UICWArray@@UAE@XZ       004abc60 f   mmwidget:cwarray.obj
 0001:000aac70       ?Reset@UICWArray@@UAEXXZ   004abc70 f   mmwidget:cwarray.obj
 0001:000aac80       ?Init@UICWArray@@QAEXMMMMHVCallback@@@Z 004abc80 f   mmwidget:cwarray.obj
 0001:000aaed0       ?VScrollCB@UICWArray@@QAEXXZ 004abed0 f   mmwidget:cwarray.obj
 0001:000aaf40       ?SetVScrollVals@UICWArray@@QAEXXZ 004abf40 f   mmwidget:cwarray.obj
 0001:000aafb0       ?SetVScrollPos@UICWArray@@QAEXXZ 004abfb0 f   mmwidget:cwarray.obj
 0001:000aafe0       ?SetStartOffset@UICWArray@@QAEXH@Z 004abfe0 f   mmwidget:cwarray.obj
 0001:000ab020       ?Redraw@UICWArray@@QAEXXZ  004ac020 f   mmwidget:cwarray.obj
 0001:000ab180       ?Switch@UICWArray@@UAEXH@Z 004ac180 f   mmwidget:cwarray.obj
 0001:000ab1c0       ?Action@UICWArray@@UAEXTeqEvent@@@Z 004ac1c0 f   mmwidget:cwarray.obj
 0001:000ab2f0       ?CaptureAction@UICWArray@@UAEXTeqEvent@@@Z 004ac2f0 f   mmwidget:cwarray.obj
 0001:000ab360       ?Update@UICWArray@@UAEXXZ  004ac360 f   mmwidget:cwarray.obj
 0001:000ab3e0       ?EnterCapture@UICWArray@@QAEXH@Z 004ac3e0 f   mmwidget:cwarray.obj
 0001:000ab450       ?ForceCapture@UICWArray@@QAEXXZ 004ac450 f   mmwidget:cwarray.obj
 0001:000ab480       ?AcceptCapture@UICWArray@@QAEXXZ 004ac480 f   mmwidget:cwarray.obj
 0001:000ab4d0       ?ResetCapture@UICWArray@@QAEXXZ 004ac4d0 f   mmwidget:cwarray.obj
 0001:000ab500       ?CheckCapture@UICWArray@@QAEXXZ 004ac500 f   mmwidget:cwarray.obj
 0001:000ab5b0       ?SaveCFG@UICWArray@@QAEXXZ 004ac5b0 f   mmwidget:cwarray.obj
 0001:000ab5f0       ?LoadCFG@UICWArray@@QAEXXZ 004ac5f0 f   mmwidget:cwarray.obj
 0001:000ab640       ?DefaultCFG@UICWArray@@QAEXXZ 004ac640 f   mmwidget:cwarray.obj
 0001:000ab660       ?DebugForceSetting@UICWArray@@QAEXXZ 004ac660 f   mmwidget:cwarray.obj
 0001:000ab680       ??_GUICWArray@@UAEPAXI@Z   004ac680 f i mmwidget:cwarray.obj
 0001:000ab680       ??_EUICWArray@@UAEPAXI@Z   004ac680 f i mmwidget:cwarray.obj
 0001:000ab6b0       ??_EUIControlWidget@@UAEPAXI@Z 004ac6b0 f i mmwidget:cwarray.obj
 0001:000ab710       ??0UITextScroll@@QAE@XZ    004ac710 f   mmwidget:tscroll.obj
 0001:000ab820       ??1UITextScroll@@UAE@XZ    004ac820 f   mmwidget:tscroll.obj
 0001:000ab8a0       ?Init@UITextScroll@@QAEXPAXMMMMVstring@@HPAHVCallback@@@Z 004ac8a0 f   mmwidget:tscroll.obj
 0001:000abc10       ?InitVScroll@UITextScroll@@QAEXMMM@Z 004acc10 f   mmwidget:tscroll.obj
 0001:000abc20       ?VScrollCB@UITextScroll@@QAEXXZ 004acc20 f   mmwidget:tscroll.obj
 0001:000abc60       ?SetVScrollVals@UITextScroll@@QAEXXZ 004acc60 f   mmwidget:tscroll.obj
 0001:000abc80       ?SetVScrollPos@UITextScroll@@QAEXXZ 004acc80 f   mmwidget:tscroll.obj
 0001:000abcb0       ?Recalc@UITextScroll@@QAEXVstring@@@Z 004accb0 f   mmwidget:tscroll.obj
 0001:000abe20       ?FillScroll@UITextScroll@@AAEXXZ 004ace20 f   mmwidget:tscroll.obj
 0001:000abf00       ?GetCurrentString@UITextScroll@@QAEXPADH@Z 004acf00 f   mmwidget:tscroll.obj
 0001:000abf50       ?SetHighlight@UITextScroll@@QAEXH@Z 004acf50 f   mmwidget:tscroll.obj
 0001:000abfa0       ?GetHit@UITextScroll@@QAEHMM@Z 004acfa0 f   mmwidget:tscroll.obj
 0001:000ac020       ?KeyAction@UITextScroll@@AAEXXZ 004ad020 f   mmwidget:tscroll.obj
 0001:000ac080       ?Action@UITextScroll@@UAEXTeqEvent@@@Z 004ad080 f   mmwidget:tscroll.obj
 0001:000ac130       ?Switch@UITextScroll@@UAEXH@Z 004ad130 f   mmwidget:tscroll.obj
 0001:000ac170       ?SetTextColor@UITextScroll@@AAEXXZ 004ad170 f   mmwidget:tscroll.obj
 0001:000ac1d0       ?SetText@UITextScroll@@QAEXHPAULocString@@@Z 004ad1d0 f   mmwidget:tscroll.obj
 0001:000ac210       ?ResetTextScroll@UITextScroll@@AAEXXZ 004ad210 f   mmwidget:tscroll.obj
 0001:000ac290       ?InitTextScroll@UITextScroll@@AAEXVstring@@@Z 004ad290 f   mmwidget:tscroll.obj
 0001:000ac3c0       ?AddTextScrollLine@UITextScroll@@AAEXPADH@Z 004ad3c0 f   mmwidget:tscroll.obj
 0001:000ac450       ?AddTextScrollLine@UITextScroll@@AAEXPAD@Z 004ad450 f   mmwidget:tscroll.obj
 0001:000ac4f0       ??_GUITextScroll@@UAEPAXI@Z 004ad4f0 f i mmwidget:tscroll.obj
 0001:000ac4f0       ??_EUITextScroll@@UAEPAXI@Z 004ad4f0 f i mmwidget:tscroll.obj
 0001:000ac520       ??0UILabel@@QAE@XZ         004ad520 f   mmwidget:label.obj
 0001:000ac5b0       ??1UILabel@@UAE@XZ         004ad5b0 f   mmwidget:label.obj
 0001:000ac610       ?Init@UILabel@@QAEXPAULocString@@HMMMMH@Z 004ad610 f   mmwidget:label.obj
 0001:000ac6d0       ?SetText@UILabel@@QAEXPAULocString@@@Z 004ad6d0 f   mmwidget:label.obj
 0001:000ac6f0       ?Update@UILabel@@UAEXXZ    004ad6f0 f   mmwidget:label.obj
 0001:000ac740       ?SetBlink@UILabel@@QAEXH@Z 004ad740 f   mmwidget:label.obj
 0001:000ac770       ?Switch@UILabel@@UAEXH@Z   004ad770 f   mmwidget:label.obj
 0001:000ac780       ?SwitchState@UILabel@@QAEXH@Z 004ad780 f   mmwidget:label.obj
 0001:000ac7d0       ??_GUILabel@@UAEPAXI@Z     004ad7d0 f i mmwidget:label.obj
 0001:000ac7d0       ??_EUILabel@@UAEPAXI@Z     004ad7d0 f i mmwidget:label.obj
 0001:000ac800       ?Action@UILabel@@UAEXTeqEvent@@@Z 004ad800 f i mmwidget:label.obj
 0001:000ac810       ??0UIIcon@@QAE@XZ          004ad810 f   mmwidget:icon.obj
 0001:000ac860       ??1UIIcon@@UAE@XZ          004ad860 f   mmwidget:icon.obj
 0001:000ac870       ?Init@UIIcon@@QAEXPADMM@Z  004ad870 f   mmwidget:icon.obj
 0001:000ac8b0       ?LoadBitmap@UIIcon@@QAEXPAD@Z 004ad8b0 f   mmwidget:icon.obj
 0001:000ac920       ?CreateDummyBitmap@UIIcon@@QAEPAVagiBitmap@@XZ 004ad920 f   mmwidget:icon.obj
 0001:000ac970       ?GetHitArea@UIIcon@@QAEXAAM0@Z 004ad970 f   mmwidget:icon.obj
 0001:000ac9a0       ?Switch@UIIcon@@UAEXH@Z    004ad9a0 f   mmwidget:icon.obj
 0001:000ac9e0       ?Update@UIIcon@@UAEXXZ     004ad9e0 f   mmwidget:icon.obj
 0001:000aca00       ?Cull@UIIcon@@UAEXXZ       004ada00 f   mmwidget:icon.obj
 0001:000aca30       ??_GUIIcon@@UAEPAXI@Z      004ada30 f i mmwidget:icon.obj
 0001:000aca30       ??_EUIIcon@@UAEPAXI@Z      004ada30 f i mmwidget:icon.obj
 0001:000aca60       ??0UIButton@@QAE@XZ        004ada60 f   mmwidget:button.obj
 0001:000acaf0       ??1UIButton@@UAE@XZ        004adaf0 f   mmwidget:button.obj
 0001:000acb60       ?Init@UIButton@@QAEXPAULocString@@HMMMMHVCallback@@@Z 004adb60 f   mmwidget:button.obj
 0001:000acc30       ?Update@UIButton@@UAEXXZ   004adc30 f   mmwidget:button.obj
 0001:000acc40       ?SetString@UIButton@@QAEXPAULocString@@@Z 004adc40 f   mmwidget:button.obj
 0001:000acc60       ?DrawOff@UIButton@@AAEXXZ  004adc60 f   mmwidget:button.obj
 0001:000acc90       ?DrawOn@UIButton@@AAEXXZ   004adc90 f   mmwidget:button.obj
 0001:000accc0       ?Action@UIButton@@UAEXTeqEvent@@@Z 004adcc0 f   mmwidget:button.obj
 0001:000acd10       ?SetReadOnly@UIButton@@UAEXH@Z 004add10 f   mmwidget:button.obj
 0001:000acd60       ?Switch@UIButton@@UAEXH@Z  004add60 f   mmwidget:button.obj
 0001:000acde0       ?SetType@UIButton@@QAEXH@Z 004adde0 f   mmwidget:button.obj
 0001:000ace30       ?TestHit@UIButton@@QAEHMM@Z 004ade30 f   mmwidget:button.obj
 0001:000ace40       ??_EUIButton@@UAEPAXI@Z    004ade40 f i mmwidget:button.obj
 0001:000ace40       ??_GUIButton@@UAEPAXI@Z    004ade40 f i mmwidget:button.obj
 0001:000ace70       ?Enable@UIButton@@UAEXXZ   004ade70 f i mmwidget:button.obj
 0001:000ace90       ?Disable@UIButton@@UAEXXZ  004ade90 f i mmwidget:button.obj
 0001:000acea0       ??0UITextRoller@@QAE@XZ    004adea0 f   mmwidget:textroller.obj
 0001:000acf70       ??1UITextRoller@@UAE@XZ    004adf70 f   mmwidget:textroller.obj
 0001:000acfe0       ?Init@UITextRoller@@QAEXPAULocString@@PAHMMMMVstring@@HHHHVCallback@@PAVUIMenu@@@Z 004adfe0 f   mmwidget:textroller.obj
 0001:000ad4a0       ?Update@UITextRoller@@UAEXXZ 004ae4a0 f   mmwidget:textroller.obj
 0001:000ad500       ?Switch@UITextRoller@@UAEXH@Z 004ae500 f   mmwidget:textroller.obj
 0001:000ad530       ?Action@UITextRoller@@UAEXTeqEvent@@@Z 004ae530 f   mmwidget:textroller.obj
 0001:000ad610       ?EvalMouseXY@UITextRoller@@QAEXMM@Z 004ae610 f   mmwidget:textroller.obj
 0001:000ad7a0       ?SetValue@UITextRoller@@QAEHH@Z 004ae7a0 f   mmwidget:textroller.obj
 0001:000ad840       ?SetString@UITextRoller@@QAEXVstring@@@Z 004ae840 f   mmwidget:textroller.obj
 0001:000ad910       ?SetText@UITextRoller@@QAEXXZ 004ae910 f   mmwidget:textroller.obj
 0001:000ad980       ?Inc@UITextRoller@@QAEHXZ  004ae980 f   mmwidget:textroller.obj
 0001:000ad9a0       ?Dec@UITextRoller@@QAEHXZ  004ae9a0 f   mmwidget:textroller.obj
 0001:000ad9c0       ?Cull@UITextRoller@@UAEXXZ 004ae9c0 f   mmwidget:textroller.obj
 0001:000ada70       ??_GUITextRoller@@UAEPAXI@Z 004aea70 f i mmwidget:textroller.obj
 0001:000ada70       ??_EUITextRoller@@UAEPAXI@Z 004aea70 f i mmwidget:textroller.obj
 0001:000adaa0       ??0UITextRoller2@@QAE@XZ   004aeaa0 f   mmwidget:textroller2.obj
 0001:000adb50       ??1UITextRoller2@@UAE@XZ   004aeb50 f   mmwidget:textroller2.obj
 0001:000adbc0       ?Init@UITextRoller2@@QAEXPAULocString@@PAHMMMMVstring@@HHHHVCallback@@PAVUIMenu@@@Z 004aebc0 f   mmwidget:textroller2.obj
 0001:000ae2a0       ?Update@UITextRoller2@@UAEXXZ 004af2a0 f   mmwidget:textroller2.obj
 0001:000ae300       ?Switch@UITextRoller2@@UAEXH@Z 004af300 f   mmwidget:textroller2.obj
 0001:000ae390       ?Action@UITextRoller2@@UAEXTeqEvent@@@Z 004af390 f   mmwidget:textroller2.obj
 0001:000ae470       ?EvalMouseXY@UITextRoller2@@QAEXMM@Z 004af470 f   mmwidget:textroller2.obj
 0001:000ae5e0       ?SetValue@UITextRoller2@@QAEHH@Z 004af5e0 f   mmwidget:textroller2.obj
 0001:000ae690       ?SetString@UITextRoller2@@QAEXVstring@@@Z 004af690 f   mmwidget:textroller2.obj
 0001:000ae760       ?SetData@UITextRoller2@@QAEXPAH@Z 004af760 f   mmwidget:textroller2.obj
 0001:000ae780       ?SetText@UITextRoller2@@QAEXXZ 004af780 f   mmwidget:textroller2.obj
 0001:000ae7f0       ?Inc@UITextRoller2@@QAEHXZ 004af7f0 f   mmwidget:textroller2.obj
 0001:000ae820       ?Dec@UITextRoller2@@QAEHXZ 004af820 f   mmwidget:textroller2.obj
 0001:000ae850       ?Cull@UITextRoller2@@UAEXXZ 004af850 f   mmwidget:textroller2.obj
 0001:000ae920       ??_EUITextRoller2@@UAEPAXI@Z 004af920 f i mmwidget:textroller2.obj
 0001:000ae920       ??_GUITextRoller2@@UAEPAXI@Z 004af920 f i mmwidget:textroller2.obj
 0001:000ae950       ??0UIControlWidget@@QAE@XZ 004af950 f   mmwidget:controlwidget.obj
 0001:000aea60       ??1UIControlWidget@@UAE@XZ 004afa60 f   mmwidget:controlwidget.obj
 0001:000aeb00       ?Init@UIControlWidget@@QAEXMMMMMPAVmmIO@@VCallback@@@Z 004afb00 f   mmwidget:controlwidget.obj
 0001:000aecb0       ?SetPosition@UIControlWidget@@QAEXMMMM@Z 004afcb0 f   mmwidget:controlwidget.obj
 0001:000aed70       ?Update@UIControlWidget@@UAEXXZ 004afd70 f   mmwidget:controlwidget.obj
 0001:000aed90       ?UpdateField@UIControlWidget@@QAEXXZ 004afd90 f   mmwidget:controlwidget.obj
 0001:000aedc0       ?Action@UIControlWidget@@UAEXTeqEvent@@@Z 004afdc0 f   mmwidget:controlwidget.obj
 0001:000aee10       ?Switch@UIControlWidget@@UAEXH@Z 004afe10 f   mmwidget:controlwidget.obj
 0001:000aee90       ?EnableField@UIControlWidget@@QAEXXZ 004afe90 f   mmwidget:controlwidget.obj
 0001:000aef00       ?DisableField@UIControlWidget@@QAEXXZ 004aff00 f   mmwidget:controlwidget.obj
 0001:000aef50       ??_GUIControlWidget@@UAEPAXI@Z 004aff50 f i mmwidget:controlwidget.obj
 0001:000aef80       ?TurnOn@UIControlWidget@@UAEXXZ 004aff80 f i mmwidget:controlwidget.obj
 0001:000aef90       ?TurnOff@UIControlWidget@@UAEXXZ 004aff90 f i mmwidget:controlwidget.obj
 0001:000aefa0       ??0UIIconW@@QAE@XZ         004affa0 f   mmwidget:iconwidget.obj
 0001:000af060       ??1UIIconW@@UAE@XZ         004b0060 f   mmwidget:iconwidget.obj
 0001:000af0d0       ?Init@UIIconW@@QAEXPAULocString@@PADMMMMVCallback@@@Z 004b00d0 f   mmwidget:iconwidget.obj
 0001:000af1b0       ?Action@UIIconW@@UAEXTeqEvent@@@Z 004b01b0 f   mmwidget:iconwidget.obj
 0001:000af210       ?Update@UIIconW@@UAEXXZ    004b0210 f   mmwidget:iconwidget.obj
 0001:000af290       ?Switch@UIIconW@@UAEXH@Z   004b0290 f   mmwidget:iconwidget.obj
 0001:000af310       ??_EUIIconW@@UAEPAXI@Z     004b0310 f i mmwidget:iconwidget.obj
 0001:000af310       ??_GUIIconW@@UAEPAXI@Z     004b0310 f i mmwidget:iconwidget.obj
 0001:000af340       ??0UIToggleButton@@QAE@XZ  004b0340 f   mmwidget:togglebutton.obj
 0001:000af3c0       ??1UIToggleButton@@UAE@XZ  004b03c0 f   mmwidget:togglebutton.obj
 0001:000af430       ?Init@UIToggleButton@@QAEXPAULocString@@PAHMMMMHHVCallback@@@Z 004b0430 f   mmwidget:togglebutton.obj
 0001:000af4d0       ?DrawOff@UIToggleButton@@MAEXXZ 004b04d0 f   mmwidget:togglebutton.obj
 0001:000af4f0       ?DrawOn@UIToggleButton@@MAEXXZ 004b04f0 f   mmwidget:togglebutton.obj
 0001:000af510       ?DoToggle@UIToggleButton@@UAEXXZ 004b0510 f   mmwidget:togglebutton.obj
 0001:000af530       ?Action@UIToggleButton@@UAEXTeqEvent@@@Z 004b0530 f   mmwidget:togglebutton.obj
 0001:000af5a0       ??_GUIToggleButton@@UAEPAXI@Z 004b05a0 f i mmwidget:togglebutton.obj
 0001:000af5a0       ??_EUIToggleButton@@UAEPAXI@Z 004b05a0 f i mmwidget:togglebutton.obj
 0001:000af5d0       ?Update@UIToggleButton@@UAEXXZ 004b05d0 f i mmwidget:togglebutton.obj
 0001:000af5e0       ??0UIToggleButton2@@QAE@XZ 004b05e0 f   mmwidget:togglebutton2.obj
 0001:000af660       ??1UIToggleButton2@@UAE@XZ 004b0660 f   mmwidget:togglebutton2.obj
 0001:000af670       ?Init@UIToggleButton2@@QAEXPAULocString@@PAHMMMMHHVCallback@@@Z 004b0670 f   mmwidget:togglebutton2.obj
 0001:000af740       ?DrawOff@UIToggleButton2@@MAEXXZ 004b0740 f   mmwidget:togglebutton2.obj
 0001:000af780       ?DrawOn@UIToggleButton2@@MAEXXZ 004b0780 f   mmwidget:togglebutton2.obj
 0001:000af7c0       ?Unkill@UIToggleButton2@@QAEXXZ 004b07c0 f   mmwidget:togglebutton2.obj
 0001:000af7f0       ?DoToggle@UIToggleButton2@@UAEXXZ 004b07f0 f   mmwidget:togglebutton2.obj
 0001:000af810       ?Action@UIToggleButton2@@UAEXTeqEvent@@@Z 004b0810 f   mmwidget:togglebutton2.obj
 0001:000af890       ?Switch@UIToggleButton2@@UAEXH@Z 004b0890 f   mmwidget:togglebutton2.obj
 0001:000af900       ??_GUIToggleButton2@@UAEPAXI@Z 004b0900 f i mmwidget:togglebutton2.obj
 0001:000af900       ??_EUIToggleButton2@@UAEPAXI@Z 004b0900 f i mmwidget:togglebutton2.obj
 0001:000af930       ?Update@UIToggleButton2@@UAEXXZ 004b0930 f i mmwidget:togglebutton2.obj
 0001:000af940       ?Enable@UIToggleButton2@@UAEXXZ 004b0940 f i mmwidget:togglebutton2.obj
 0001:000af950       ?Disable@UIToggleButton2@@UAEXXZ 004b0950 f i mmwidget:togglebutton2.obj
 0001:000af960       ??0UIMexButton@@QAE@XZ     004b0960 f   mmwidget:mexbutton.obj
 0001:000af9e0       ??1UIMexButton@@UAE@XZ     004b09e0 f   mmwidget:mexbutton.obj
 0001:000af9f0       ?Init@UIMexButton@@QAEXPAULocString@@PAHHMMMMHHVCallback@@@Z 004b09f0 f   mmwidget:mexbutton.obj
 0001:000afac0       ?Update@UIMexButton@@UAEXXZ 004b0ac0 f   mmwidget:mexbutton.obj
 0001:000afb10       ?DrawOff@UIMexButton@@EAEXXZ 004b0b10 f   mmwidget:mexbutton.obj
 0001:000afb20       ?DrawOn@UIMexButton@@EAEXXZ 004b0b20 f   mmwidget:mexbutton.obj
 0001:000afb50       ?DoToggle@UIMexButton@@UAEXXZ 004b0b50 f   mmwidget:mexbutton.obj
 0001:000afb70       ?Action@UIMexButton@@UAEXTeqEvent@@@Z 004b0b70 f   mmwidget:mexbutton.obj
 0001:000afbe0       ??_GUIMexButton@@UAEPAXI@Z 004b0be0 f i mmwidget:mexbutton.obj
 0001:000afbe0       ??_EUIMexButton@@UAEPAXI@Z 004b0be0 f i mmwidget:mexbutton.obj
 0001:000afc10       ??0UIVScrollBar@@QAE@XZ    004b0c10 f   mmwidget:vscrollbar.obj
 0001:000afcb0       ??1UIVScrollBar@@UAE@XZ    004b0cb0 f   mmwidget:vscrollbar.obj
 0001:000afd30       ?Init@UIVScrollBar@@QAEXMMMMHMMPAHVCallback@@H@Z 004b0d30 f   mmwidget:vscrollbar.obj
 0001:000afda0       ?LoadBitmap@UIVScrollBar@@QAEXXZ 004b0da0 f   mmwidget:vscrollbar.obj
 0001:000afed0       ?SetHotSpots@UIVScrollBar@@QAEXXZ 004b0ed0 f   mmwidget:vscrollbar.obj
 0001:000aff90       ?Inc@UIVScrollBar@@QAEMXZ  004b0f90 f   mmwidget:vscrollbar.obj
 0001:000afff0       ?Dec@UIVScrollBar@@QAEMXZ  004b0ff0 f   mmwidget:vscrollbar.obj
 0001:000b0050       ?SetStep@UIVScrollBar@@QAEXHM@Z 004b1050 f   mmwidget:vscrollbar.obj
 0001:000b00b0       ?SetRange@UIVScrollBar@@QAEXMM@Z 004b10b0 f   mmwidget:vscrollbar.obj
 0001:000b0120       ?SetTrough@UIVScrollBar@@QAEXMM@Z 004b1120 f   mmwidget:vscrollbar.obj
 0001:000b01a0       ?Update@UIVScrollBar@@UAEXXZ 004b11a0 f   mmwidget:vscrollbar.obj
 0001:000b01c0       ?Switch@UIVScrollBar@@UAEXH@Z 004b11c0 f   mmwidget:vscrollbar.obj
 0001:000b0210       ?Action@UIVScrollBar@@UAEXTeqEvent@@@Z 004b1210 f   mmwidget:vscrollbar.obj
 0001:000b02d0       ?EvalMouseXY@UIVScrollBar@@QAEXMM@Z 004b12d0 f   mmwidget:vscrollbar.obj
 0001:000b0450       ?Cull@UIVScrollBar@@UAEXXZ 004b1450 f   mmwidget:vscrollbar.obj
 0001:000b05c0       ?DeclareFields@UIVScrollBar@@SAXXZ 004b15c0 f   mmwidget:vscrollbar.obj
 0001:000b0730       ?GetClass@UIVScrollBar@@UAEPAVMetaClass@@XZ 004b1730 f   mmwidget:vscrollbar.obj
 0001:000b0740       ??_EUIVScrollBar@@UAEPAXI@Z 004b1740 f i mmwidget:vscrollbar.obj
 0001:000b07a0       ?SetPosition@UIVScrollBar@@UAEXMM@Z 004b17a0 f i mmwidget:vscrollbar.obj
 0001:000b07c0       ?Enable@UIVScrollBar@@UAEXXZ 004b17c0 f i mmwidget:vscrollbar.obj
 0001:000b07e0       ?Disable@UIVScrollBar@@UAEXXZ 004b17e0 f i mmwidget:vscrollbar.obj
 0001:000b0800       ??0sfPointer@@QAE@XZ       004b1800 f   mmwidget:pointer.obj
 0001:000b0830       ??1sfPointer@@UAE@XZ       004b1830 f   mmwidget:pointer.obj
 0001:000b0890       ?Init@sfPointer@@QAEXXZ    004b1890 f   mmwidget:pointer.obj
 0001:000b08b0       ?ResChange@sfPointer@@UAEXHH@Z 004b18b0 f   mmwidget:pointer.obj
 0001:000b0910       ?GetPointerHeight@sfPointer@@QAEMXZ 004b1910 f   mmwidget:pointer.obj
 0001:000b0920       ?Update@sfPointer@@UAEXXZ  004b1920 f   mmwidget:pointer.obj
 0001:000b0ba0       ?UpdateAttached@sfPointer@@AAEXXZ 004b1ba0 f   mmwidget:pointer.obj
 0001:000b0bb0       ?WaitForRelease@sfPointer@@QAEXXZ 004b1bb0 f   mmwidget:pointer.obj
 0001:000b0bc0       ?Cull@sfPointer@@UAEXXZ    004b1bc0 f   mmwidget:pointer.obj
 0001:000b0c40       ?DeclareFields@sfPointer@@SAXXZ 004b1c40 f   mmwidget:pointer.obj
 0001:000b0da0       ?GetClass@sfPointer@@UAEPAVMetaClass@@XZ 004b1da0 f   mmwidget:pointer.obj
 0001:000b0db0       ??_EsfPointer@@UAEPAXI@Z   004b1db0 f i mmwidget:pointer.obj
 0001:000b0e10       ??0TextDropWidget@@QAE@XZ  004b1e10 f   mmwidget:tdwidget.obj
 0001:000b0ec0       ??1TextDropWidget@@UAE@XZ  004b1ec0 f   mmwidget:tdwidget.obj
 0001:000b0f30       ?Init@TextDropWidget@@QAEXPAVasCamera@@PAXMMMMMVstring@@H@Z 004b1f30 f   mmwidget:tdwidget.obj
 0001:000b1020       ?GetCount@TextDropWidget@@QAEHXZ 004b2020 f   mmwidget:tdwidget.obj
 0001:000b1030       ?SetString@TextDropWidget@@QAEXVstring@@@Z 004b2030 f   mmwidget:tdwidget.obj
 0001:000b10f0       ?SetValue@TextDropWidget@@QAEHH@Z 004b20f0 f   mmwidget:tdwidget.obj
 0001:000b1190       ?SetHighlight@TextDropWidget@@QAEHH@Z 004b2190 f   mmwidget:tdwidget.obj
 0001:000b1200       ?Inc@TextDropWidget@@QAEHXZ 004b2200 f   mmwidget:tdwidget.obj
 0001:000b1210       ?Dec@TextDropWidget@@QAEHXZ 004b2210 f   mmwidget:tdwidget.obj
 0001:000b1220       ?IncDrop@TextDropWidget@@QAEHXZ 004b2220 f   mmwidget:tdwidget.obj
 0001:000b1250       ?DecDrop@TextDropWidget@@QAEHXZ 004b2250 f   mmwidget:tdwidget.obj
 0001:000b1280       ?Capture@TextDropWidget@@QAEHMM@Z 004b2280 f   mmwidget:tdwidget.obj
 0001:000b12c0       ?Switch@TextDropWidget@@QAEXHAAVVector4@@@Z 004b22c0 f   mmwidget:tdwidget.obj
 0001:000b12e0       ?Update@TextDropWidget@@UAEXXZ 004b22e0 f   mmwidget:tdwidget.obj
 0001:000b12f0       ?IsActive@TextDropWidget@@QAEHXZ 004b22f0 f   mmwidget:tdwidget.obj
 0001:000b1300       ?SetActive@TextDropWidget@@QAEXH@Z 004b2300 f   mmwidget:tdwidget.obj
 0001:000b1310       ?SetDisabledMask@TextDropWidget@@QAEXJ@Z 004b2310 f   mmwidget:tdwidget.obj
 0001:000b1330       ?GetDisabledMask@TextDropWidget@@QAEJXZ 004b2330 f   mmwidget:tdwidget.obj
 0001:000b1340       ?DeclareFields@TextDropWidget@@SAXXZ 004b2340 f   mmwidget:tdwidget.obj
 0001:000b14a0       ?GetClass@TextDropWidget@@UAEPAVMetaClass@@XZ 004b24a0 f   mmwidget:tdwidget.obj
 0001:000b14b0       ??_ETextDropWidget@@UAEPAXI@Z 004b24b0 f i mmwidget:tdwidget.obj
 0001:000b1510       ??0mmSlider@@QAE@XZ        004b2510 f   mmwidget:sliderbar.obj
 0001:000b15a0       ??1mmSlider@@UAE@XZ        004b25a0 f   mmwidget:sliderbar.obj
 0001:000b1640       ?Init@mmSlider@@QAEXPADPAVuiWidget@@MMMMHMMHH@Z 004b2640 f   mmwidget:sliderbar.obj
 0001:000b16a0       ?LoadBitmap@mmSlider@@QAEXPAD@Z 004b26a0 f   mmwidget:sliderbar.obj
 0001:000b1850       ?SetReadWrite@mmSlider@@QAEXH@Z 004b2850 f   mmwidget:sliderbar.obj
 0001:000b1870       ?IsReadWrite@mmSlider@@QAEHXZ 004b2870 f   mmwidget:sliderbar.obj
 0001:000b1880       ?SetValue@mmSlider@@QAEMM@Z 004b2880 f   mmwidget:sliderbar.obj
 0001:000b18e0       ?GetScreenHeight@mmSlider@@QAEMXZ 004b28e0 f   mmwidget:sliderbar.obj
 0001:000b1910       ?FudgeWidth@mmSlider@@QAEMXZ 004b2910 f   mmwidget:sliderbar.obj
 0001:000b1940       ?SetPosition@mmSlider@@QAEXMM@Z 004b2940 f   mmwidget:sliderbar.obj
 0001:000b1960       ?GetSliderHotSpots@mmSlider@@QAEXAAM00000@Z 004b2960 f   mmwidget:sliderbar.obj
 0001:000b1a30       ?UpdatePosition@mmSlider@@QAEXXZ 004b2a30 f   mmwidget:sliderbar.obj
 0001:000b1a60       ?Inc@mmSlider@@QAEMXZ      004b2a60 f   mmwidget:sliderbar.obj
 0001:000b1a80       ?Dec@mmSlider@@QAEMXZ      004b2a80 f   mmwidget:sliderbar.obj
 0001:000b1aa0       ?SetStep@mmSlider@@QAEXM@Z 004b2aa0 f   mmwidget:sliderbar.obj
 0001:000b1b20       ?SetRange@mmSlider@@QAEXMM@Z 004b2b20 f   mmwidget:sliderbar.obj
 0001:000b1b90       ?Update@mmSlider@@UAEXXZ   004b2b90 f   mmwidget:sliderbar.obj
 0001:000b1bb0       ?Cull@mmSlider@@UAEXXZ     004b2bb0 f   mmwidget:sliderbar.obj
 0001:000b1d70       ?DeclareFields@mmSlider@@SAXXZ 004b2d70 f   mmwidget:sliderbar.obj
 0001:000b1ee0       ?GetClass@mmSlider@@UAEPAVMetaClass@@XZ 004b2ee0 f   mmwidget:sliderbar.obj
 0001:000b1ef0       ??_EmmSlider@@UAEPAXI@Z    004b2ef0 f i mmwidget:sliderbar.obj
 0001:000b1f50       ??0mmToolTip@@QAE@XZ       004b2f50 f   mmwidget:ttip.obj
 0001:000b1fc0       ??1mmToolTip@@UAE@XZ       004b2fc0 f   mmwidget:ttip.obj
 0001:000b2020       ?Init@mmToolTip@@QAEXPAVUIMenu@@PAULocString@@@Z 004b3020 f   mmwidget:ttip.obj
 0001:000b20d0       ?SetText@mmToolTip@@QAEXPAULocString@@@Z 004b30d0 f   mmwidget:ttip.obj
 0001:000b20f0       ?Switch@mmToolTip@@QAEXH@Z 004b30f0 f   mmwidget:ttip.obj
 0001:000b2100       ?Update@mmToolTip@@UAEXXZ  004b3100 f   mmwidget:ttip.obj
 0001:000b2110       ??_EmmToolTip@@UAEPAXI@Z   004b3110 f i mmwidget:ttip.obj
 0001:000b2110       ??_GmmToolTip@@UAEPAXI@Z   004b3110 f i mmwidget:ttip.obj
 0001:000b2140       ?Reset@mmCompBase@@UAEXXZ  004b3140 f   mmwidget:compbase.obj
 0001:000b2150       ?Update@mmCompBase@@UAEXXZ 004b3150 f   mmwidget:compbase.obj
 0001:000b2160       ??0VSWidget@@QAE@XZ        004b3160 f   mmwidget:vswidget.obj
 0001:000b21e0       ??1VSWidget@@UAE@XZ        004b31e0 f   mmwidget:vswidget.obj
 0001:000b2260       ?Init@VSWidget@@QAEXMMMMPAHVCallback@@H@Z 004b3260 f   mmwidget:vswidget.obj
 0001:000b22c0       ?LoadBitmap@VSWidget@@QAEXXZ 004b32c0 f   mmwidget:vswidget.obj
 0001:000b2410       ?CalcTroughRatio@VSWidget@@QAEXM@Z 004b3410 f   mmwidget:vswidget.obj
 0001:000b2490       ?SetHotSpots@VSWidget@@QAEXXZ 004b3490 f   mmwidget:vswidget.obj
 0001:000b2540       ?SyncData@VSWidget@@QAEXXZ 004b3540 f   mmwidget:vswidget.obj
 0001:000b2580       ?Inc@VSWidget@@QAEMXZ      004b3580 f   mmwidget:vswidget.obj
 0001:000b25e0       ?Dec@VSWidget@@QAEMXZ      004b35e0 f   mmwidget:vswidget.obj
 0001:000b2640       ?SetStep@VSWidget@@QAEXHM@Z 004b3640 f   mmwidget:vswidget.obj
 0001:000b26b0       ?SetTrough@VSWidget@@QAEXM@Z 004b36b0 f   mmwidget:vswidget.obj
 0001:000b2740       ?Update@VSWidget@@UAEXXZ   004b3740 f   mmwidget:vswidget.obj
 0001:000b2770       ?Switch@VSWidget@@QAEXHMM@Z 004b3770 f   mmwidget:vswidget.obj
 0001:000b27c0       ?Action@VSWidget@@QAEHTeqEvent@@MMH@Z 004b37c0 f   mmwidget:vswidget.obj
 0001:000b2870       ?EvalMouseXY@VSWidget@@QAEXMMH@Z 004b3870 f   mmwidget:vswidget.obj
 0001:000b2a20       ?Cull@VSWidget@@UAEXXZ     004b3a20 f   mmwidget:vswidget.obj
 0001:000b2ba0       ?DeclareFields@VSWidget@@SAXXZ 004b3ba0 f   mmwidget:vswidget.obj
 0001:000b2d10       ?GetClass@VSWidget@@UAEPAVMetaClass@@XZ 004b3d10 f   mmwidget:vswidget.obj
 0001:000b2d20       ??_EVSWidget@@UAEPAXI@Z    004b3d20 f i mmwidget:vswidget.obj
 0001:000b2d80       ??0mmToggle2@@QAE@XZ       004b3d80 f   mmwidget:toggle2.obj
 0001:000b2da0       ??1mmToggle2@@UAE@XZ       004b3da0 f   mmwidget:toggle2.obj
 0001:000b2e00       ?Init@mmToggle2@@QAEXPADMMPAH@Z 004b3e00 f   mmwidget:toggle2.obj
 0001:000b2e30       ?LoadBitmap@mmToggle2@@AAEXPAD@Z 004b3e30 f   mmwidget:toggle2.obj
 0001:000b2e90       ?SetPosition@mmToggle2@@QAEXMM@Z 004b3e90 f   mmwidget:toggle2.obj
 0001:000b2f30       ?Update@mmToggle2@@UAEXXZ  004b3f30 f   mmwidget:toggle2.obj
 0001:000b2f50       ?Cull@mmToggle2@@UAEXXZ    004b3f50 f   mmwidget:toggle2.obj
 0001:000b3010       ?DeclareFields@mmToggle2@@SAXXZ 004b4010 f   mmwidget:toggle2.obj
 0001:000b3170       ?GetClass@mmToggle2@@UAEPAVMetaClass@@XZ 004b4170 f   mmwidget:toggle2.obj
 0001:000b3180       ??_EmmToggle2@@UAEPAXI@Z   004b4180 f i mmwidget:toggle2.obj
 0001:000b31e0       ??0mmToggle@@QAE@XZ        004b41e0 f   mmwidget:toggle.obj
 0001:000b3200       ??1mmToggle@@UAE@XZ        004b4200 f   mmwidget:toggle.obj
 0001:000b3260       ?Init@mmToggle@@QAEXPADMMMM@Z 004b4260 f   mmwidget:toggle.obj
 0001:000b3300       ?LoadBitmap@mmToggle@@AAEXPAD@Z 004b4300 f   mmwidget:toggle.obj
 0001:000b3350       ?SetSize@mmToggle@@AAEXMM@Z 004b4350 f   mmwidget:toggle.obj
 0001:000b3400       ?Update@mmToggle@@UAEXXZ   004b4400 f   mmwidget:toggle.obj
 0001:000b3420       ?Cull@mmToggle@@UAEXXZ     004b4420 f   mmwidget:toggle.obj
 0001:000b34a0       ?DeclareFields@mmToggle@@SAXXZ 004b44a0 f   mmwidget:toggle.obj
 0001:000b3600       ?GetClass@mmToggle@@UAEPAVMetaClass@@XZ 004b4600 f   mmwidget:toggle.obj
 0001:000b3610       ??_EmmToggle@@UAEPAXI@Z    004b4610 f i mmwidget:toggle.obj
 0001:000b3670       ??0mmDropDown@@QAE@XZ      004b4670 f   mmwidget:dropdown.obj
 0001:000b36d0       ??1mmDropDown@@UAE@XZ      004b46d0 f   mmwidget:dropdown.obj
 0001:000b3750       ?Init@mmDropDown@@QAEXPAVasCamera@@PAXMMMMVstring@@H@Z 004b4750 f   mmwidget:dropdown.obj
 0001:000b3850       ?InitString@mmDropDown@@QAEXVstring@@@Z 004b4850 f   mmwidget:dropdown.obj
 0001:000b3ac0       ?SetString@mmDropDown@@AAEXVstring@@@Z 004b4ac0 f   mmwidget:dropdown.obj
 0001:000b3bb0       ?GetCurrentString@mmDropDown@@QAEXPADH@Z 004b4bb0 f   mmwidget:dropdown.obj
 0001:000b3c00       ?SetDisabledColors@mmDropDown@@QAEXXZ 004b4c00 f   mmwidget:dropdown.obj
 0001:000b3c80       ?FindFirstEnabled@mmDropDown@@QAEHXZ 004b4c80 f   mmwidget:dropdown.obj
 0001:000b3cb0       ?SetHighlight@mmDropDown@@QAEXH@Z 004b4cb0 f   mmwidget:dropdown.obj
 0001:000b3d10       ?GetHit@mmDropDown@@QAEHMM@Z 004b4d10 f   mmwidget:dropdown.obj
 0001:000b3d70       ?Update@mmDropDown@@UAEXXZ 004b4d70 f   mmwidget:dropdown.obj
 0001:000b3d80       ?DeclareFields@mmDropDown@@SAXXZ 004b4d80 f   mmwidget:dropdown.obj
 0001:000b3ef0       ?GetClass@mmDropDown@@UAEPAVMetaClass@@XZ 004b4ef0 f   mmwidget:dropdown.obj
 0001:000b3f00       ??_EmmDropDown@@UAEPAXI@Z  004b4f00 f i mmwidget:dropdown.obj
 0001:000b3f60       ??0mmAnimMgr@@QAE@XZ       004b4f60 f   mmanim:AnimMgr.obj
 0001:000b3fe0       ??1mmAnimMgr@@UAE@XZ       004b4fe0 f   mmanim:AnimMgr.obj
 0001:000b4040       ?Init@mmAnimMgr@@QAEHPADPAVmmInstance@@PAPAV2@H@Z 004b5040 f   mmanim:AnimMgr.obj
 0001:000b41f0       ?Update@mmAnimMgr@@UAEXXZ  004b51f0 f   mmanim:AnimMgr.obj
 0001:000b4200       ?TestDOFAct@mmAnimMgr@@QAEXH@Z 004b5200 f   mmanim:AnimMgr.obj
 0001:000b4210       ?AirlinerSwap@mmAnimMgr@@QAEXXZ 004b5210 f   mmanim:AnimMgr.obj
 0001:000b4250       ?UFOSwap@mmAnimMgr@@QAEXXZ 004b5250 f   mmanim:AnimMgr.obj
 0001:000b4290       ?DeclareFields@mmAnimMgr@@SAXXZ 004b5290 f   mmanim:AnimMgr.obj
 0001:000b4400       ?GetClass@mmAnimMgr@@UAEPAVMetaClass@@XZ 004b5400 f   mmanim:AnimMgr.obj
 0001:000b4410       ??_EmmAnimSpline@@UAEPAXI@Z 004b5410 f i mmanim:AnimMgr.obj
 0001:000b4470       ??_EmmAnimMgr@@UAEPAXI@Z   004b5470 f i mmanim:AnimMgr.obj
 0001:000b4500       ??0mmBridgeMgr@@QAE@XZ     004b5500 f   mmanim:bridge.obj
 0001:000b4610       ??1mmBridgeMgr@@UAE@XZ     004b5610 f   mmanim:bridge.obj
 0001:000b46a0       ?ToggleDrawLabels@mmBridgeMgr@@QAEXXZ 004b56a0 f   mmanim:bridge.obj
 0001:000b46b0       ?Cull@mmBridgeMgr@@UAEXXZ  004b56b0 f   mmanim:bridge.obj
 0001:000b46f0       ?Init@mmBridgeMgr@@QAEXPADPAVmmInstance@@PAPAV2@H@Z 004b56f0 f   mmanim:bridge.obj
 0001:000b4b10       ?Save@mmBridgeMgr@@UAEXXZ  004b5b10 f   mmanim:bridge.obj
 0001:000b4b20       ??0mmBridgeSet@@QAE@XZ     004b5b20 f   mmanim:bridge.obj
 0001:000b4c30       ??1mmBridgeSet@@UAE@XZ     004b5c30 f   mmanim:bridge.obj
 0001:000b4ca0       ?Reset@mmBridgeSet@@UAEXXZ 004b5ca0 f   mmanim:bridge.obj
 0001:000b4d70       ?ReadEntry@mmBridgeSet@@QAEHPAVStream@@H@Z 004b5d70 f   mmanim:bridge.obj
 0001:000b4eb0       ?InitTrigger@mmBridgeSet@@QAEXXZ 004b5eb0 f   mmanim:bridge.obj
 0001:000b4ee0       ?Init@mmBridgeSet@@QAEHPADPAVStream@@@Z 004b5ee0 f   mmanim:bridge.obj
 0001:000b4fa0       ?Update@mmBridgeSet@@UAEXXZ 004b5fa0 f   mmanim:bridge.obj
 0001:000b5350       ?Cull@mmBridgeSet@@UAEXXZ  004b6350 f   mmanim:bridge.obj
 0001:000b5360       ?DeclareFields@mmBridgeSet@@SAXXZ 004b6360 f   mmanim:bridge.obj
 0001:000b5400       ?UpdateAudio@mmBridgeSet@@QAEXXZ 004b6400 f   mmanim:bridge.obj
 0001:000b5660       ?CalculateDistToPlayer2@mmBridgeSet@@AAEXXZ 004b6660 f   mmanim:bridge.obj
 0001:000b5740       ?CalculateAudioPanning@mmBridgeSet@@AAEXXZ 004b6740 f   mmanim:bridge.obj
 0001:000b5790       ?CalculateDoppler@mmBridgeSet@@AAEMM@Z 004b6790 f   mmanim:bridge.obj
 0001:000b57c0       ?UnAssignSounds@mmBridgeSet@@QAEXXZ 004b67c0 f   mmanim:bridge.obj
 0001:000b57e0       ?SetSoundPtrs@mmBridgeSet@@QAEXPAVAudSound@@0@Z 004b67e0 f   mmanim:bridge.obj
 0001:000b5840       ?RampDownBridgeVolume@mmBridgeSet@@AAEXXZ 004b6840 f   mmanim:bridge.obj
 0001:000b5a20       ?GetClass@mmBridgeSet@@UAEPAVMetaClass@@XZ 004b6a20 f   mmanim:bridge.obj
 0001:000b5a30       ?DeclareFields@mmBridgeMgr@@SAXXZ 004b6a30 f   mmanim:bridge.obj
 0001:000b5cb0       ?GetClass@mmBridgeMgr@@UAEPAVMetaClass@@XZ 004b6cb0 f   mmanim:bridge.obj
 0001:000b5de0       ??_EmmBridgeSet@@UAEPAXI@Z 004b6de0 f i mmanim:bridge.obj
 0001:000b5e40       ??_EmmBridgeMgr@@UAEPAXI@Z 004b6e40 f i mmanim:bridge.obj
 0001:000b5ea0       ??0mmAnimExcel@@QAE@XZ     004b6ea0 f   mmanim:Excel.obj
 0001:000b5ec0       ??1mmAnimExcel@@UAE@XZ     004b6ec0 f   mmanim:Excel.obj
 0001:000b5f00       ?Init@mmAnimExcel@@QAEHPAD0@Z 004b6f00 f   mmanim:Excel.obj
 0001:000b5f90       ?GetNextName@mmAnimExcel@@QAEPADXZ 004b6f90 f   mmanim:Excel.obj
 0001:000b5fd0       ?AddFile@mmAnimExcel@@QAEXPAD0@Z 004b6fd0 f   mmanim:Excel.obj
 0001:000b6110       ?GetPriorName@mmAnimExcel@@QAEPADXZ 004b7110 f   mmanim:Excel.obj
 0001:000b6140       ?GetName@mmAnimExcel@@QAEPADH@Z 004b7140 f   mmanim:Excel.obj
 0001:000b6170       ??_GmmAnimExcel@@UAEPAXI@Z 004b7170 f i mmanim:Excel.obj
 0001:000b6170       ??_EmmAnimExcel@@UAEPAXI@Z 004b7170 f i mmanim:Excel.obj
 0001:000b61a0       ??0mmAnimSpline@@QAE@XZ    004b71a0 f   mmanim:AnimSpline.obj
 0001:000b61c0       ??1mmAnimSpline@@UAE@XZ    004b71c0 f   mmanim:AnimSpline.obj
 0001:000b6220       ?Init@mmAnimSpline@@QAEHPADH@Z 004b7220 f   mmanim:AnimSpline.obj
 0001:000b62c0       ?LoadFile@mmAnimSpline@@QAEHPAD@Z 004b72c0 f   mmanim:AnimSpline.obj
 0001:000b63a0       ?ClearVectors@mmAnimSpline@@QAEXXZ 004b73a0 f   mmanim:AnimSpline.obj
 0001:000b63c0       ?AddVector@mmAnimSpline@@QAEXAAVVector3@@@Z 004b73c0 f   mmanim:AnimSpline.obj
 0001:000b6460       ?InitBoat@mmAnimSpline@@QAEHXZ 004b7460 f   mmanim:AnimSpline.obj
 0001:000b6470       ?InitPlane@mmAnimSpline@@QAEHXZ 004b7470 f   mmanim:AnimSpline.obj
 0001:000b6510       ?InitTrain@mmAnimSpline@@QAEHXZ 004b7510 f   mmanim:AnimSpline.obj
 0001:000b6590       ?Update@mmAnimSpline@@UAEXXZ 004b7590 f   mmanim:AnimSpline.obj
 0001:000b65c0       ?Reset@mmAnimSpline@@UAEXXZ 004b75c0 f   mmanim:AnimSpline.obj
 0001:000b65e0       ?AirlinerSwap@mmAnimSpline@@QAEXXZ 004b75e0 f   mmanim:AnimSpline.obj
 0001:000b6690       ?UFOSwap@mmAnimSpline@@QAEXXZ 004b7690 f   mmanim:AnimSpline.obj
 0001:000b66b0       ??_GmmAnimSpline@@UAEPAXI@Z 004b76b0 f i mmanim:AnimSpline.obj
 0001:000b66e0       ??0mmBridgeAudMgr@@QAE@XZ  004b76e0 f   mmanim:mmbridgeaudmgr.obj
 0001:000b6890       ??1mmBridgeAudMgr@@UAE@XZ  004b7890 f   mmanim:mmbridgeaudmgr.obj
 0001:000b6950       ?Add@mmBridgeAudMgr@@QAEFPAVmmBridgeSet@@@Z 004b7950 f   mmanim:mmbridgeaudmgr.obj
 0001:000b69e0       ?Remove@mmBridgeAudMgr@@QAEXPAVmmBridgeSet@@F@Z 004b79e0 f   mmanim:mmbridgeaudmgr.obj
 0001:000b6a40       ?FindGreatestDistance@mmBridgeAudMgr@@QAEFPAVmmBridgeSet@@@Z 004b7a40 f   mmanim:mmbridgeaudmgr.obj
 0001:000b6ae0       ?FindUnusedSlot@mmBridgeAudMgr@@QAEFXZ 004b7ae0 f   mmanim:mmbridgeaudmgr.obj
 0001:000b6b20       ?Update@mmBridgeAudMgr@@UAEXXZ 004b7b20 f   mmanim:mmbridgeaudmgr.obj
 0001:000b6b50       ?AssignSounds@mmBridgeAudMgr@@QAEXF@Z 004b7b50 f   mmanim:mmbridgeaudmgr.obj
 0001:000b6b80       ??_EmmBridgeAudMgr@@UAEPAXI@Z 004b7b80 f i mmanim:mmbridgeaudmgr.obj
 0001:000b6b80       ??_GmmBridgeAudMgr@@UAEPAXI@Z 004b7b80 f i mmanim:mmbridgeaudmgr.obj
 0001:000b6bb0       ??0mmAnimTrigger@@QAE@XZ   004b7bb0 f   mmanim:AnimTrigger.obj
 0001:000b6bc0       ??1mmAnimTrigger@@QAE@XZ   004b7bc0 f   mmanim:AnimTrigger.obj
 0001:000b6bd0       ?Init@mmAnimTrigger@@QAEXPAVmmInstance@@H@Z 004b7bd0 f   mmanim:AnimTrigger.obj
 0001:000b6bf0       ?Init@mmAnimTrigger@@QAEXPAVVector3@@PAM@Z 004b7bf0 f   mmanim:AnimTrigger.obj
 0001:000b6c10       ?Init@mmAnimTrigger@@QAEXPAHM@Z 004b7c10 f   mmanim:AnimTrigger.obj
 0001:000b6c40       ?Init@mmAnimTrigger@@QAEXM@Z 004b7c40 f   mmanim:AnimTrigger.obj
 0001:000b6c60       ?CheckCondition@mmAnimTrigger@@QAEHXZ 004b7c60 f   mmanim:AnimTrigger.obj
 0001:000b6cd0       ?CheckObjectHit@mmAnimTrigger@@QAEHXZ 004b7cd0 f   mmanim:AnimTrigger.obj
 0001:000b6cf0       ?CheckTimeDelay@mmAnimTrigger@@QAEHXZ 004b7cf0 f   mmanim:AnimTrigger.obj
 0001:000b6d20       ?CheckStateStatus@mmAnimTrigger@@QAEHXZ 004b7d20 f   mmanim:AnimTrigger.obj
 0001:000b6d70       ?Reset@mmAnimTrigger@@QAEXXZ 004b7d70 f   mmanim:AnimTrigger.obj
 0001:000b6d80       ?CheckObjectDistance@mmAnimTrigger@@QAEHXZ 004b7d80 f   mmanim:AnimTrigger.obj
 0001:000b6e30       ?Draw@mmDrawbridgeInstance@@UAIXH@Z 004b7e30 f   mmanim:AnimDOF.obj
 0001:000b6ee0       ?InitBridge@mmDrawbridgeInstance@@QAEHPAD0HPAVMatrix34@@PAVVector3@@@Z 004b7ee0 f   mmanim:AnimDOF.obj
 0001:000b6f20       ??0mmAnimDOF@@QAE@XZ       004b7f20 f   mmanim:AnimDOF.obj
 0001:000b6f40       ??1mmAnimDOF@@QAE@XZ       004b7f40 f   mmanim:AnimDOF.obj
 0001:000b6f50       ?Init@mmAnimDOF@@QAEHPAVmmAnimTrigger@@PADAAVVector3@@2HPAH@Z 004b7f50 f   mmanim:AnimDOF.obj
 0001:000b72d0       ?Reset@mmAnimDOF@@QAEXXZ   004b82d0 f   mmanim:AnimDOF.obj
 0001:000b7310       ?Update@mmAnimDOF@@QAEXXZ  004b8310 f   mmanim:AnimDOF.obj
 0001:000b7530       ?SetSwitch@mmAnimDOF@@QAEXH@Z 004b8530 f   mmanim:AnimDOF.obj
 0001:000b7580       ?SetState@mmAnimDOF@@QAEXH@Z 004b8580 f   mmanim:AnimDOF.obj
 0001:000b75c0       ?DeclareFields@mmAnimDOF@@SAXXZ 004b85c0 f   mmanim:AnimDOF.obj
 0001:000b7750       ?GetClass@mmAnimDOF@@UAEPAVMetaClass@@XZ 004b8750 f   mmanim:AnimDOF.obj
 0001:000b7760       ??_GmmDrawbridgeInstance@@UAEPAXI@Z 004b8760 f i mmanim:AnimDOF.obj
 0001:000b7760       ??_EmmDrawbridgeInstance@@UAEPAXI@Z 004b8760 f i mmanim:AnimDOF.obj
 0001:000b7780       ??1mmDrawbridgeInstance@@UAE@XZ 004b8780 f i mmanim:AnimDOF.obj
 0001:000b7790       ??_EmmAnimDOF@@QAEPAXI@Z   004b8790 f i mmanim:AnimDOF.obj
 0001:000b77f0       ??0mmUnhitBangerInstance@@QAE@XZ 004b87f0 f i mmanim:AnimDOF.obj
 0001:000b7820       ?FromMatrix@mmDofBangerInstance@@UAIXABVMatrix34@@@Z 004b8820 f i mmanim:AnimDOF.obj
 0001:000b7830       ?ToMatrix@mmDofBangerInstance@@UAIAAVMatrix34@@AAV2@@Z 004b8830 f i mmanim:AnimDOF.obj
 0001:000b7860       ?GetPos@mmDofBangerInstance@@UAIAAVVector3@@XZ 004b8860 f i mmanim:AnimDOF.obj
 0001:000b7890       ??_GmmDofBangerInstance@@UAEPAXI@Z 004b8890 f i mmanim:AnimDOF.obj
 0001:000b7890       ??_EmmDofBangerInstance@@UAEPAXI@Z 004b8890 f i mmanim:AnimDOF.obj
 0001:000b78b0       ??1mmDofBangerInstance@@UAE@XZ 004b88b0 f i mmanim:AnimDOF.obj
 0001:000b78f0       ??0mmAnimPlane@@QAE@XZ     004b88f0 f   mmanim:plane.obj
 0001:000b79e0       ??1mmAnimPlane@@UAE@XZ     004b89e0 f   mmanim:plane.obj
 0001:000b7a90       ?Init@mmAnimPlane@@QAEXHPAD0PAVVector3@@HHPAM@Z 004b8a90 f   mmanim:plane.obj
 0001:000b7c90       ?Reset@mmAnimPlane@@UAEXXZ 004b8c90 f   mmanim:plane.obj
 0001:000b7d00       ?Activate@mmAnimPlane@@QAEXXZ 004b8d00 f   mmanim:plane.obj
 0001:000b7d10       ?Deactivate@mmAnimPlane@@QAEXXZ 004b8d10 f   mmanim:plane.obj
 0001:000b7d20       ?Update@mmAnimPlane@@QAEXXZ 004b8d20 f   mmanim:plane.obj
 0001:000b7d40       ?UpdatePathPosition@mmAnimPlane@@QAEXXZ 004b8d40 f   mmanim:plane.obj
 0001:000b7f00       ?SetPathSpeed@mmAnimPlane@@QAEXXZ 004b8f00 f   mmanim:plane.obj
 0001:000b7f10       ?ReverseCalcPathSpeed@mmAnimPlane@@QAEXXZ 004b8f10 f   mmanim:plane.obj
 0001:000b7f20       ?SolvePosition@mmAnimPlane@@QAEXAAVVector3@@AAM@Z 004b8f20 f   mmanim:plane.obj
 0001:000b7ff0       ?AdjustPhaseOffsets@mmAnimPlane@@QAEXXZ 004b8ff0 f   mmanim:plane.obj
 0001:000b8060       ?PreCalcCubics@mmAnimPlane@@QAEXXZ 004b9060 f   mmanim:plane.obj
 0001:000b8130       ?CalculateCubics@mmAnimPlane@@QAEXHAAVVector4@@00@Z 004b9130 f   mmanim:plane.obj
 0001:000b82b0       ?SolveVector@mmAnimPlane@@QAEXMAAVVector3@@0@Z 004b92b0 f   mmanim:plane.obj
 0001:000b8430       ?Draw@mmAnimPlane@@UAIXH@Z 004b9430 f   mmanim:plane.obj
 0001:000b8480       ?UpdateAudio@mmAnimPlane@@AAEXXZ 004b9480 f   mmanim:plane.obj
 0001:000b85e0       ?CalculateDistToPlayer2@mmAnimPlane@@AAEXXZ 004b95e0 f   mmanim:plane.obj
 0001:000b86b0       ?CalculateAudioPanning@mmAnimPlane@@AAEXXZ 004b96b0 f   mmanim:plane.obj
 0001:000b8700       ?CalculateDoppler@mmAnimPlane@@AAEMM@Z 004b9700 f   mmanim:plane.obj
 0001:000b8840       ??_EmmAnimPlane@@UAEPAXI@Z 004b9840 f i mmanim:plane.obj
 0001:000b8840       ??_GmmAnimPlane@@UAEPAXI@Z 004b9840 f i mmanim:plane.obj
 0001:000b88e0       ??0mmAnimTrain@@QAE@XZ     004b98e0 f   mmanim:train.obj
 0001:000b89d0       ??1mmAnimTrain@@QAE@XZ     004b99d0 f   mmanim:train.obj
 0001:000b8a40       ?Init@mmAnimTrain@@QAEXHPAD0PAVVector3@@HHPAM@Z 004b9a40 f   mmanim:train.obj
 0001:000b8d10       ?Reset@mmAnimTrain@@QAEXXZ 004b9d10 f   mmanim:train.obj
 0001:000b8d80       ?Update@mmAnimTrain@@QAEXXZ 004b9d80 f   mmanim:train.obj
 0001:000b8e20       ?UpdatePathPosition@mmAnimTrain@@QAEXXZ 004b9e20 f   mmanim:train.obj
 0001:000b8f70       ?SetPathSpeed@mmAnimTrain@@QAEXXZ 004b9f70 f   mmanim:train.obj
 0001:000b8f80       ?ReverseCalcPathSpeed@mmAnimTrain@@QAEXXZ 004b9f80 f   mmanim:train.obj
 0001:000b8f90       ?SolvePosition@mmAnimTrain@@QAEXAAVVector3@@AAM@Z 004b9f90 f   mmanim:train.obj
 0001:000b9090       ?AdjustPhaseOffsets@mmAnimTrain@@QAEXXZ 004ba090 f   mmanim:train.obj
 0001:000b9100       ?GetStart@mmAnimTrain@@QAEXMAAHAAM@Z 004ba100 f   mmanim:train.obj
 0001:000b9180       ?PreCalcCubics@mmAnimTrain@@QAEXXZ 004ba180 f   mmanim:train.obj
 0001:000b9250       ?CalculateCubics@mmAnimTrain@@QAEXHAAVVector4@@00@Z 004ba250 f   mmanim:train.obj
 0001:000b9450       ?ComputeXZCurve@mmAnimTrain@@QAEXAAVVector3@@000AAVVector4@@11@Z 004ba450 f   mmanim:train.obj
 0001:000b9530       ?SolveXZCurve@mmAnimTrain@@QAEXAAVVector3@@0M@Z 004ba530 f   mmanim:train.obj
 0001:000b9660       ?UpdateAudio@mmAnimTrain@@AAEXXZ 004ba660 f   mmanim:train.obj
 0001:000b97c0       ?CalculateDistToPlayer2@mmAnimTrain@@AAEXXZ 004ba7c0 f   mmanim:train.obj
 0001:000b9890       ?CalculateAudioPanning@mmAnimTrain@@AAEXXZ 004ba890 f   mmanim:train.obj
 0001:000b98e0       ?CalculateDoppler@mmAnimTrain@@AAEMM@Z 004ba8e0 f   mmanim:train.obj
 0001:000b9a20       ??_EmmAnimTrainCar@@UAEPAXI@Z 004baa20 f i mmanim:train.obj
 0001:000b9ae0       ??0mmBoat@@QAE@XZ          004baae0 f   mmanim:boat.obj
 0001:000b9bc0       ??1mmBoat@@UAE@XZ          004babc0 f   mmanim:boat.obj
 0001:000b9c30       ?Init@mmBoat@@QAEXHPAD0PAVVector3@@HHPAM@Z 004bac30 f   mmanim:boat.obj
 0001:000b9f30       ?Reset@mmBoat@@UAEXXZ      004baf30 f   mmanim:boat.obj
 0001:000b9f90       ?Update@mmBoat@@UAEXXZ     004baf90 f   mmanim:boat.obj
 0001:000b9fc0       ?UpdatePathPosition@mmBoat@@QAEXXZ 004bafc0 f   mmanim:boat.obj
 0001:000ba010       ?SetPathSpeed@mmBoat@@QAEXXZ 004bb010 f   mmanim:boat.obj
 0001:000ba030       ?SetRock@mmBoat@@QAEXMM@Z  004bb030 f   mmanim:boat.obj
 0001:000ba060       ?ReverseCalcPathSpeed@mmBoat@@QAEXXZ 004bb060 f   mmanim:boat.obj
 0001:000ba080       ?SolvePosition@mmBoat@@QAEXAAVVector3@@AAM@Z 004bb080 f   mmanim:boat.obj
 0001:000ba170       ?AdjustPhaseOffsets@mmBoat@@QAEXXZ 004bb170 f   mmanim:boat.obj
 0001:000ba1f0       ?AddWidgets@mmBoat@@QAEXPAVBank@@@Z 004bb1f0 f   mmanim:boat.obj
 0001:000ba200       ?CalculateCubics@mmBoat@@QAEXH@Z 004bb200 f   mmanim:boat.obj
 0001:000ba410       ?SolveVector@mmBoat@@QAEXMAAVVector3@@0@Z 004bb410 f   mmanim:boat.obj
 0001:000ba580       ?ComputeXZCurve@mmBoat@@QAEXAAVVector3@@000@Z 004bb580 f   mmanim:boat.obj
 0001:000ba670       ?SolveXZCurve@mmBoat@@QAEXAAVVector3@@0M@Z 004bb670 f   mmanim:boat.obj
 0001:000ba740       ?DeclareFields@mmBoat@@SAXXZ 004bb740 f   mmanim:boat.obj
 0001:000ba8b0       ?GetClass@mmBoat@@UAEPAVMetaClass@@XZ 004bb8b0 f   mmanim:boat.obj
 0001:000ba8c0       ??_EmmBoat@@UAEPAXI@Z      004bb8c0 f i mmanim:boat.obj
 0001:000ba920       ??0mmAnimTrainCar@@QAE@XZ  004bb920 f   mmanim:traincar.obj
 0001:000ba940       ??1mmAnimTrainCar@@UAE@XZ  004bb940 f   mmanim:traincar.obj
 0001:000ba950       ?Init@mmAnimTrainCar@@QAEXPAD0@Z 004bb950 f   mmanim:traincar.obj
 0001:000ba9d0       ?SetMatrix@mmAnimTrainCar@@QAEXAAVMatrix34@@@Z 004bb9d0 f   mmanim:traincar.obj
 0001:000ba9f0       ?Draw@mmAnimTrainCar@@UAIXH@Z 004bb9f0 f   mmanim:traincar.obj
 0001:000baa40       ?Reset@mmAnimTrainCar@@UAEXXZ 004bba40 f   mmanim:traincar.obj
 0001:000baa50       ?SetStart@mmAnimTrainCar@@QAEXMM@Z 004bba50 f   mmanim:traincar.obj
 0001:000baa80       ??_GmmAnimTrainCar@@UAEPAXI@Z 004bba80 f i mmanim:traincar.obj
 0001:000baaa0       ?LoadEntry@mmBangerData@@QAEHPAD@Z 004bbaa0 f   mmbangers:data.obj
 0001:000bac60       ?LaunchInstance@mmBangerData@@QAEXMPAVVector3@@@Z 004bbc60 f   mmbangers:data.obj
 0001:000baf30       ??0mmBangerDataManager@@QAE@XZ 004bbf30 f   mmbangers:data.obj
 0001:000bb050       ??1mmBangerDataManager@@UAE@XZ 004bc050 f   mmbangers:data.obj
 0001:000bb110       ?AddBangerDataEntry@mmBangerDataManager@@QAEHPAD0@Z 004bc110 f   mmbangers:data.obj
 0001:000bb360       ?Bootstrap@mmBangerData@@QAEHPAD0@Z 004bc360 f   mmbangers:data.obj
 0001:000bb3c0       ?BootstrapBreakablesOnly@mmBangerData@@QAEXPAD@Z 004bc3c0 f   mmbangers:data.obj
 0001:000bb400       ?InitBreakables@mmBangerData@@QAEXPAD@Z 004bc400 f   mmbangers:data.obj
 0001:000bb640       ?InitPhysics@mmBangerData@@QAEHPAD0@Z 004bc640 f   mmbangers:data.obj
 0001:000bb8c0       ?ComputeYRadius@mmBangerData@@QAEXPAD@Z 004bc8c0 f   mmbangers:data.obj
 0001:000bba00       ?Save@mmBangerDataManager@@UAEXXZ 004bca00 f   mmbangers:data.obj
 0001:000bba30       ?DeclareFields@mmBangerData@@SAXXZ 004bca30 f   mmbangers:data.obj
 0001:000bbdb0       ?GetClass@mmBangerData@@UAEPAVMetaClass@@XZ 004bcdb0 f   mmbangers:data.obj
 0001:000bbdc0       ?DeclareFields@mmBangerDataManager@@SAXXZ 004bcdc0 f   mmbangers:data.obj
 0001:000bbf30       ?GetClass@mmBangerDataManager@@UAEPAVMetaClass@@XZ 004bcf30 f   mmbangers:data.obj
 0001:000bbf40       ?RefTo@@YAPAUMetaType@@PAU1@HPAF@Z 004bcf40 f i mmbangers:data.obj
 0001:000bbf80       ??_EmmBangerData@@UAEPAXI@Z 004bcf80 f i mmbangers:data.obj
 0001:000bbfe0       ??_EmmBangerDataManager@@UAEPAXI@Z 004bcfe0 f i mmbangers:data.obj
 0001:000bc040       ??0mmBangerData@@QAE@XZ    004bd040 f i mmbangers:data.obj
 0001:000bc0d0       ??1mmBangerData@@UAE@XZ    004bd0d0 f i mmbangers:data.obj
 0001:000bc120       ?ComputeLod@mmBangerInstance@@UAEHMM@Z 004bd120 f   mmbangers:banger.obj
 0001:000bc140       ?Draw@mmBangerInstance@@UAIXH@Z 004bd140 f   mmbangers:banger.obj
 0001:000bc310       ?DrawGlow@mmBangerInstance@@UAIXXZ 004bd310 f   mmbangers:banger.obj
 0001:000bc3f0       ?Draw@mmHitBangerInstance@@UAIXH@Z 004bd3f0 f   mmbangers:banger.obj
 0001:000bc5b0       ?DrawShadow@mmBangerInstance@@UAIXXZ 004bd5b0 f   mmbangers:banger.obj
 0001:000bc8d0       ?GetData@mmBangerInstance@@QAEPAVmmBangerData@@XZ 004bd8d0 f   mmbangers:banger.obj
 0001:000bc8f0       ?GetEntity@mmBangerInstance@@UAEPAVmmPhysEntity@@XZ 004bd8f0 f   mmbangers:banger.obj
 0001:000bc900       ?AttachEntity@mmBangerInstance@@UAEPAVmmPhysEntity@@XZ 004bd900 f   mmbangers:banger.obj
 0001:000bc940       ?GetVelocity@mmBangerInstance@@UAE?AVVector3@@XZ 004bd940 f   mmbangers:banger.obj
 0001:000bc990       ?FromMatrix@mmHitBangerInstance@@UAIXABVMatrix34@@@Z 004bd990 f   mmbangers:banger.obj
 0001:000bc9b0       ?ToMatrix@mmHitBangerInstance@@UAIAAVMatrix34@@AAV2@@Z 004bd9b0 f   mmbangers:banger.obj
 0001:000bc9c0       ?GetPos@mmHitBangerInstance@@UAIAAVVector3@@XZ 004bd9c0 f   mmbangers:banger.obj
 0001:000bc9d0       ?InitBreakables@mmUnhitBangerInstance@@QAEXPAD0PAVmmBangerData@@@Z 004bd9d0 f   mmbangers:banger.obj
 0001:000bca60       ?Init@mmUnhitBangerInstance@@UAEHPADAAVVector3@@1H0@Z 004bda60 f   mmbangers:banger.obj
 0001:000bcc80       ?FromMatrix@mmUnhitBangerInstance@@UAIXABVMatrix34@@@Z 004bdc80 f   mmbangers:banger.obj
 0001:000bcca0       ?Reset@mmUnhitBangerInstance@@UAEXXZ 004bdca0 f   mmbangers:banger.obj
 0001:000bccf0       ?ToMatrix@mmUnhitBangerInstance@@UAIAAVMatrix34@@AAV2@@Z 004bdcf0 f   mmbangers:banger.obj
 0001:000bcd40       ?GetPos@mmUnhitBangerInstance@@UAIAAVVector3@@XZ 004bdd40 f   mmbangers:banger.obj
 0001:000bcd50       ?Impact@mmUnhitBangerInstance@@UAEXPAVmmInstance@@PAVVector3@@@Z 004bdd50 f   mmbangers:banger.obj
 0001:000bd0b0       ?Detach@mmHitBangerInstance@@UAEXXZ 004be0b0 f   mmbangers:banger.obj
 0001:000bd0e0       ?GetBanger@mmBangerManager@@QAEPAVmmHitBangerInstance@@XZ 004be0e0 f   mmbangers:banger.obj
 0001:000bd140       ?Init@mmBangerManager@@QAEXH@Z 004be140 f   mmbangers:banger.obj
 0001:000bd200       ?Reset@mmBangerManager@@UAEXXZ 004be200 f   mmbangers:banger.obj
 0001:000bd270       ??_EmmHitBangerInstance@@UAEPAXI@Z 004be270 f i mmbangers:banger.obj
 0001:000bd2d0       ??0mmHitBangerInstance@@QAE@XZ 004be2d0 f i mmbangers:banger.obj
 0001:000bd330       ?SizeOf@mmHitBangerInstance@@UAEIXZ 004be330 f i mmbangers:banger.obj
 0001:000bd340       ??1mmHitBangerInstance@@UAE@XZ 004be340 f i mmbangers:banger.obj
 0001:000bd350       ??0mmBangerActive@@QAE@XZ  004be350 f   mmbangers:active.obj
 0001:000bd430       ??1mmBangerActive@@UAE@XZ  004be430 f   mmbangers:active.obj
 0001:000bd4a0       ?Attach@mmBangerActive@@QAEXPAVmmBangerInstance@@@Z 004be4a0 f   mmbangers:active.obj
 0001:000bd690       ?Detach@mmBangerActive@@QAEXXZ 004be690 f   mmbangers:active.obj
 0001:000bd6f0       ?DetachMe@mmBangerActive@@UAEXXZ 004be6f0 f   mmbangers:active.obj
 0001:000bd710       ?Update@mmBangerActive@@UAEXXZ 004be710 f   mmbangers:active.obj
 0001:000bd7c0       ?PostUpdate@mmBangerActive@@UAEXXZ 004be7c0 f   mmbangers:active.obj
 0001:000bd850       ??0mmBangerActiveManager@@QAE@XZ 004be850 f   mmbangers:active.obj
 0001:000bd900       ??1mmBangerActiveManager@@UAE@XZ 004be900 f   mmbangers:active.obj
 0001:000bd960       ?GetActive@mmBangerActiveManager@@QAEPAVmmBangerActive@@PAVmmBangerInstance@@@Z 004be960 f   mmbangers:active.obj
 0001:000bd990       ?Attach@mmBangerActiveManager@@QAEPAVmmBangerActive@@PAVmmBangerInstance@@@Z 004be990 f   mmbangers:active.obj
 0001:000bda60       ?Detach@mmBangerActiveManager@@QAEXPAVmmBangerActive@@@Z 004bea60 f   mmbangers:active.obj
 0001:000bdab0       ?Update@mmBangerActiveManager@@UAEXXZ 004beab0 f   mmbangers:active.obj
 0001:000bdb90       ?Reset@mmBangerActiveManager@@UAEXXZ 004beb90 f   mmbangers:active.obj
 0001:000bdbc0       ??_EmmBangerActive@@UAEPAXI@Z 004bebc0 f i mmbangers:active.obj
 0001:000bdbc0       ??_GmmBangerActive@@UAEPAXI@Z 004bebc0 f i mmbangers:active.obj
 0001:000bdbf0       ??_GmmBangerActiveManager@@UAEPAXI@Z 004bebf0 f i mmbangers:active.obj
 0001:000bdbf0       ??_EmmBangerActiveManager@@UAEPAXI@Z 004bebf0 f i mmbangers:active.obj
 0001:000bdc20       ?GetBound@mmBangerActive@@UAEPAVasBound@@XZ 004bec20 f i mmbangers:active.obj
 0001:000bdc30       ?GetICS@mmBangerActive@@UAEPAVasInertialCS@@XZ 004bec30 f i mmbangers:active.obj
 0001:000bdc40       ?SizeOf@mmDofBangerInstance@@UAEIXZ 004bec40 f   mmbangers:dof.obj
 0001:000bdc50       ?Init@mmDofBangerInstance@@QAEHPAD0HPAVMatrix34@@PAVVector3@@@Z 004bec50 f   mmbangers:dof.obj
 0001:000bdd00       ?ToMatrix@mmFacadeBangerInstance@@UAIAAVMatrix34@@AAV2@@Z 004bed00 f   mmbangers:dof.obj
 0001:000bddb0       ?GetPos@mmFacadeBangerInstance@@UAIAAVVector3@@XZ 004bedb0 f   mmbangers:dof.obj
 0001:000bde30       ?Draw@mmGlassBangerInstance@@EAIXH@Z 004bee30 f   mmbangers:dof.obj
 0001:000bdf70       ??1mmPlayerData@@UAE@XZ    004bef70 f i mmcityinfo:state.obj
 0001:000be010       ??_GmmPlayerData@@UAEPAXI@Z 004bf010 f i mmcityinfo:state.obj
 0001:000be040       ??0mmCityList@@QAE@XZ      004bf040 f   mmcityinfo:citylist.obj
 0001:000be060       ??1mmCityList@@UAE@XZ      004bf060 f   mmcityinfo:citylist.obj
 0001:000be0c0       ?Init@mmCityList@@QAEXH@Z  004bf0c0 f   mmcityinfo:citylist.obj
 0001:000be0d0       ?GetCityInfo@mmCityList@@QAEPAVmmCityInfo@@H@Z 004bf0d0 f   mmcityinfo:citylist.obj
 0001:000be100       ?GetCityInfo@mmCityList@@QAEPAVmmCityInfo@@PAD@Z 004bf100 f   mmcityinfo:citylist.obj
 0001:000be180       ?GetCityID@mmCityList@@QAEHPAD@Z 004bf180 f   mmcityinfo:citylist.obj
 0001:000be200       ?SetCurrentCity@mmCityList@@QAEXPAD@Z 004bf200 f   mmcityinfo:citylist.obj
 0001:000be220       ?SetCurrentCity@mmCityList@@QAEXH@Z 004bf220 f   mmcityinfo:citylist.obj
 0001:000be250       ?GetCurrentCity@mmCityList@@QAEPAVmmCityInfo@@XZ 004bf250 f   mmcityinfo:citylist.obj
 0001:000be260       ?Load@mmCityList@@QAEXPAD@Z 004bf260 f   mmcityinfo:citylist.obj
 0001:000be390       ?Print@mmCityList@@QAEXXZ  004bf390 f   mmcityinfo:citylist.obj
 0001:000be3d0       ?LoadAll@mmCityList@@QAEXXZ 004bf3d0 f   mmcityinfo:citylist.obj
 0001:000be480       ??_GmmCityList@@UAEPAXI@Z  004bf480 f i mmcityinfo:citylist.obj
 0001:000be480       ??_EmmCityList@@UAEPAXI@Z  004bf480 f i mmcityinfo:citylist.obj
 0001:000be4b0       ??0mmVehList@@QAE@XZ       004bf4b0 f   mmcityinfo:vehlist.obj
 0001:000be4d0       ??1mmVehList@@UAE@XZ       004bf4d0 f   mmcityinfo:vehlist.obj
 0001:000be530       ?Init@mmVehList@@QAEXH@Z   004bf530 f   mmcityinfo:vehlist.obj
 0001:000be540       ?GetVehicleInfo@mmVehList@@QAEPAVmmVehInfo@@H@Z 004bf540 f   mmcityinfo:vehlist.obj
 0001:000be570       ?GetVehicleInfo@mmVehList@@QAEPAVmmVehInfo@@PAD@Z 004bf570 f   mmcityinfo:vehlist.obj
 0001:000be5f0       ?GetVehicleID@mmVehList@@QAEHPAD@Z 004bf5f0 f   mmcityinfo:vehlist.obj
 0001:000be670       ?Load@mmVehList@@QAEXPAD@Z 004bf670 f   mmcityinfo:vehlist.obj
 0001:000be7a0       ?Print@mmVehList@@QAEXXZ   004bf7a0 f   mmcityinfo:vehlist.obj
 0001:000be7f0       ?LoadAll@mmVehList@@QAEXXZ 004bf7f0 f   mmcityinfo:vehlist.obj
 0001:000be890       ??_GmmVehList@@UAEPAXI@Z   004bf890 f i mmcityinfo:vehlist.obj
 0001:000be890       ??_EmmVehList@@UAEPAXI@Z   004bf890 f i mmcityinfo:vehlist.obj
 0001:000be8c0       ??0mmMiscData@@QAE@XZ      004bf8c0 f   mmcityinfo:miscdata.obj
 0001:000be9d0       ??1mmMiscData@@UAE@XZ      004bf9d0 f   mmcityinfo:miscdata.obj
 0001:000bead0       ?Load@mmMiscData@@QAEHPAD@Z 004bfad0 f   mmcityinfo:miscdata.obj
 0001:000beb40       ?Save@mmMiscData@@QAEHPADH@Z 004bfb40 f   mmcityinfo:miscdata.obj
 0001:000bebd0       ?LoadBinary@mmMiscData@@QAEHPAD@Z 004bfbd0 f   mmcityinfo:miscdata.obj
 0001:000bed90       ?SaveBinary@mmMiscData@@QAEHPAD@Z 004bfd90 f   mmcityinfo:miscdata.obj
 0001:000bef10       ?GetBestRaceTime@mmMiscData@@QAE?AVmmRecord@@HH@Z 004bff10 f   mmcityinfo:miscdata.obj
 0001:000bf040       ?GetBestBlitzTime@mmMiscData@@QAE?AVmmRecord@@HH@Z 004c0040 f   mmcityinfo:miscdata.obj
 0001:000bf170       ?GetBestCircuitTime@mmMiscData@@QAE?AVmmRecord@@HH@Z 004c0170 f   mmcityinfo:miscdata.obj
 0001:000bf2a0       ?GetBestRaceScore@mmMiscData@@QAE?AVmmRecord@@HH@Z 004c02a0 f   mmcityinfo:miscdata.obj
 0001:000bf3d0       ?GetBestBlitzScore@mmMiscData@@QAE?AVmmRecord@@HH@Z 004c03d0 f   mmcityinfo:miscdata.obj
 0001:000bf500       ?GetBestCircuitScore@mmMiscData@@QAE?AVmmRecord@@HH@Z 004c0500 f   mmcityinfo:miscdata.obj
 0001:000bf630       ?CheckCheckpoint@mmMiscData@@QAEHPADMH0HH@Z 004c0630 f   mmcityinfo:miscdata.obj
 0001:000bf7d0       ?CheckCircuit@mmMiscData@@QAEHPADMH0HH@Z 004c07d0 f   mmcityinfo:miscdata.obj
 0001:000bf970       ?CheckBlitz@mmMiscData@@QAEHPADMH0HH@Z 004c0970 f   mmcityinfo:miscdata.obj
 0001:000bfb10       ?DeclareFields@mmMiscData@@SAXXZ 004c0b10 f   mmcityinfo:miscdata.obj
 0001:000bfd90       ?GetClass@mmMiscData@@UAEPAVMetaClass@@XZ 004c0d90 f   mmcityinfo:miscdata.obj
 0001:000bfda0       ??_GmmRecord@@UAEPAXI@Z    004c0da0 f i mmcityinfo:miscdata.obj
 0001:000bfdd0       ??_EmmMiscData@@UAEPAXI@Z  004c0dd0 f i mmcityinfo:miscdata.obj
 0001:000bfe30       ??0mmPlayerConfig@@QAE@XZ  004c0e30 f   mmcityinfo:playercfg.obj
 0001:000bfed0       ??1mmPlayerConfig@@UAE@XZ  004c0ed0 f   mmcityinfo:playercfg.obj
 0001:000bff40       ??4mmPlayerConfig@@QAEXAAV0@@Z 004c0f40 f   mmcityinfo:playercfg.obj
 0001:000c00c0       ?Load@mmPlayerConfig@@QAEHPAD@Z 004c10c0 f   mmcityinfo:playercfg.obj
 0001:000c0190       ?LoadBinary@mmPlayerConfig@@QAEHPAD@Z 004c1190 f   mmcityinfo:playercfg.obj
 0001:000c0410       ?SaveBinary@mmPlayerConfig@@QAEHPAD@Z 004c1410 f   mmcityinfo:playercfg.obj
 0001:000c0660       ?SetDefaults@mmPlayerConfig@@QAEXXZ 004c1660 f   mmcityinfo:playercfg.obj
 0001:000c0670       ?Save@mmPlayerConfig@@QAEHPADH@Z 004c1670 f   mmcityinfo:playercfg.obj
 0001:000c0710       ?SetAudio@mmPlayerConfig@@QAEXXZ 004c1710 f   mmcityinfo:playercfg.obj
 0001:000c0880       ?SetControls@mmPlayerConfig@@QAEXXZ 004c1880 f   mmcityinfo:playercfg.obj
 0001:000c0970       ?Get@mmGfxCFG@@QAEXXZ      004c1970 f   mmcityinfo:playercfg.obj
 0001:000c09e0       ?Set@mmGfxCFG@@QAEXXZ      004c19e0 f   mmcityinfo:playercfg.obj
 0001:000c0a60       ?GetGraphics@mmPlayerConfig@@QAEXXZ 004c1a60 f   mmcityinfo:playercfg.obj
 0001:000c0a70       ?SetGraphics@mmPlayerConfig@@QAEXXZ 004c1a70 f   mmcityinfo:playercfg.obj
 0001:000c0a80       ?GetAudio@mmPlayerConfig@@QAEXXZ 004c1a80 f   mmcityinfo:playercfg.obj
 0001:000c0af0       ?GetControls@mmPlayerConfig@@QAEXXZ 004c1af0 f   mmcityinfo:playercfg.obj
 0001:000c0bd0       ?GetViewSettings@mmPlayerConfig@@QAEXXZ 004c1bd0 f   mmcityinfo:playercfg.obj
 0001:000c0c00       ?SetViewSettings@mmPlayerConfig@@QAEXXZ 004c1c00 f   mmcityinfo:playercfg.obj
 0001:000c0c30       ?DefaultAudio@mmPlayerConfig@@QAEXXZ 004c1c30 f   mmcityinfo:playercfg.obj
 0001:000c0d40       ?DefaultControls@mmPlayerConfig@@QAEXXZ 004c1d40 f   mmcityinfo:playercfg.obj
 0001:000c0da0       ?DefaultViewSettings@mmPlayerConfig@@QAEXXZ 004c1da0 f   mmcityinfo:playercfg.obj
 0001:000c0de0       ?Reset@mmPlayerConfig@@QAEXXZ 004c1de0 f   mmcityinfo:playercfg.obj
 0001:000c0df0       ?DefaultGraphics@mmPlayerConfig@@QAEXXZ 004c1df0 f   mmcityinfo:playercfg.obj
 0001:000c0e10       ?DeclareFields@mmPlayerConfig@@SAXXZ 004c1e10 f   mmcityinfo:playercfg.obj
 0001:000c12a0       ?GetClass@mmPlayerConfig@@UAEPAVMetaClass@@XZ 004c22a0 f   mmcityinfo:playercfg.obj
 0001:000c12b0       ??1mmCtrlCFG@@QAE@XZ       004c22b0 f i mmcityinfo:playercfg.obj
 0001:000c12d0       ??_EmmPlayerConfig@@UAEPAXI@Z 004c22d0 f i mmcityinfo:playercfg.obj
 0001:000c1330       ??0mmPlayerDirectory@@QAE@XZ 004c2330 f   mmcityinfo:playerdir.obj
 0001:000c1370       ??1mmPlayerDirectory@@UAE@XZ 004c2370 f   mmcityinfo:playerdir.obj
 0001:000c13d0       ?NewDirectory@mmPlayerDirectory@@QAEXH@Z 004c23d0 f   mmcityinfo:playerdir.obj
 0001:000c1410       ?SetPlayer@mmPlayerDirectory@@QAEXHPAD0@Z 004c2410 f   mmcityinfo:playerdir.obj
 0001:000c1440       ?SetLastPlayer@mmPlayerDirectory@@QAEXPAD@Z 004c2440 f   mmcityinfo:playerdir.obj
 0001:000c1490       ?GetPlayer@mmPlayerDirectory@@QAEPADH@Z 004c2490 f   mmcityinfo:playerdir.obj
 0001:000c14c0       ?GetNumPlayers@mmPlayerDirectory@@QAEHXZ 004c24c0 f   mmcityinfo:playerdir.obj
 0001:000c14d0       ?GetLastPlayer@mmPlayerDirectory@@QAEPADXZ 004c24d0 f   mmcityinfo:playerdir.obj
 0001:000c1500       ?AddPlayer@mmPlayerDirectory@@QAEHPAD@Z 004c2500 f   mmcityinfo:playerdir.obj
 0001:000c1640       ?CreatePlayer@mmPlayerDirectory@@AAEXPAD0@Z 004c2640 f   mmcityinfo:playerdir.obj
 0001:000c1750       ?FindPlayer@mmPlayerDirectory@@QAEHPAD@Z 004c2750 f   mmcityinfo:playerdir.obj
 0001:000c17c0       ?GetFileName@mmPlayerDirectory@@QAEPADPAD@Z 004c27c0 f   mmcityinfo:playerdir.obj
 0001:000c1850       ?GetPlayerName@mmPlayerDirectory@@QAEPADPAD@Z 004c2850 f   mmcityinfo:playerdir.obj
 0001:000c18e0       ?GetFileName@mmPlayerDirectory@@QAEPADH@Z 004c28e0 f   mmcityinfo:playerdir.obj
 0001:000c1910       ?MakeFileName@mmPlayerDirectory@@AAEPADXZ 004c2910 f   mmcityinfo:playerdir.obj
 0001:000c19d0       ?RemovePlayer@mmPlayerDirectory@@QAEHPAD@Z 004c29d0 f   mmcityinfo:playerdir.obj
 0001:000c1ad0       ?Load@mmPlayerDirectory@@QAEHPAD@Z 004c2ad0 f   mmcityinfo:playerdir.obj
 0001:000c1b00       ?Save@mmPlayerDirectory@@QAEHPADH@Z 004c2b00 f   mmcityinfo:playerdir.obj
 0001:000c1ba0       ?SaveBinary@mmPlayerDirectory@@QAEHPAD@Z 004c2ba0 f   mmcityinfo:playerdir.obj
 0001:000c1ca0       ?LoadBinary@mmPlayerDirectory@@QAEHPAD@Z 004c2ca0 f   mmcityinfo:playerdir.obj
 0001:000c1de0       ?DeclareFields@mmPlayerDirectory@@SAXXZ 004c2de0 f   mmcityinfo:playerdir.obj
 0001:000c1fb0       ?GetClass@mmPlayerDirectory@@UAEPAVMetaClass@@XZ 004c2fb0 f   mmcityinfo:playerdir.obj
 0001:000c1fc0       ?RefTo@@YAPAUMetaType@@PAU1@HPAH@Z 004c2fc0 f i mmcityinfo:playerdir.obj
 0001:000c2000       ??_EmmPlayerDirectory@@UAEPAXI@Z 004c3000 f i mmcityinfo:playerdir.obj
 0001:000c2060       ??0mmPlayerRecord@@QAE@XZ  004c3060 f   mmcityinfo:playerdata.obj
 0001:000c2080       ??1mmPlayerRecord@@UAE@XZ  004c3080 f   mmcityinfo:playerdata.obj
 0001:000c2090       ?Reset@mmPlayerRecord@@QAEXXZ 004c3090 f   mmcityinfo:playerdata.obj
 0001:000c20c0       ??4mmPlayerRecord@@QAEXAAV0@@Z 004c30c0 f   mmcityinfo:playerdata.obj
 0001:000c2110       ?ComputeCRC@mmPlayerRecord@@QAEIXZ 004c3110 f   mmcityinfo:playerdata.obj
 0001:000c2170       ?SaveBinary@mmPlayerRecord@@QAEHPAVStream@@@Z 004c3170 f   mmcityinfo:playerdata.obj
 0001:000c21f0       ?LoadBinary@mmPlayerRecord@@QAEHPAVStream@@@Z 004c31f0 f   mmcityinfo:playerdata.obj
 0001:000c2270       ?DeclareFields@mmPlayerRecord@@SAXXZ 004c3270 f   mmcityinfo:playerdata.obj
 0001:000c2440       ?GetClass@mmPlayerRecord@@UAEPAVMetaClass@@XZ 004c3440 f   mmcityinfo:playerdata.obj
 0001:000c2450       ??0mmPlayerData@@QAE@XZ    004c3450 f   mmcityinfo:playerdata.obj
 0001:000c2570       ??4mmPlayerData@@QAEXAAV0@@Z 004c3570 f   mmcityinfo:playerdata.obj
 0001:000c26b0       ?RegisterFinish@mmPlayerData@@QAEHHMD@Z 004c36b0 f   mmcityinfo:playerdata.obj
 0001:000c26c0       ?GetCheckpointProgress@mmPlayerData@@QAEHH@Z 004c36c0 f   mmcityinfo:playerdata.obj
 0001:000c26e0       ?GetBlitzMask@mmPlayerData@@QAEHXZ 004c36e0 f   mmcityinfo:playerdata.obj
 0001:000c2710       ?GetCheckpointMask@mmPlayerData@@QAEHXZ 004c3710 f   mmcityinfo:playerdata.obj
 0001:000c2740       ?GetCircuitMask@mmPlayerData@@QAEHXZ 004c3740 f   mmcityinfo:playerdata.obj
 0001:000c2770       ?GetBlitzPassed@mmPlayerData@@QAEHXZ 004c3770 f   mmcityinfo:playerdata.obj
 0001:000c2790       ?GetCheckpointPassed@mmPlayerData@@QAEHXZ 004c3790 f   mmcityinfo:playerdata.obj
 0001:000c27b0       ?GetCircuitPassed@mmPlayerData@@QAEHXZ 004c37b0 f   mmcityinfo:playerdata.obj
 0001:000c27d0       ?GetTotalPassed@mmPlayerData@@QAEHXZ 004c37d0 f   mmcityinfo:playerdata.obj
 0001:000c27f0       ?GetTotalScore@mmPlayerData@@QAEHXZ 004c37f0 f   mmcityinfo:playerdata.obj
 0001:000c2840       ?ResolveCheckpointProgress@mmPlayerData@@QAEXXZ 004c3840 f   mmcityinfo:playerdata.obj
 0001:000c28d0       ?RegisterFinish@mmPlayerData@@QAEHVmmPlayerRecord@@HH@Z 004c38d0 f   mmcityinfo:playerdata.obj
 0001:000c2b80       ?Reset@mmPlayerData@@QAEXXZ 004c3b80 f   mmcityinfo:playerdata.obj
 0001:000c2c50       ?SetName@mmPlayerData@@QAEXPAD@Z 004c3c50 f   mmcityinfo:playerdata.obj
 0001:000c2c90       ?GetName@mmPlayerData@@QAEPADXZ 004c3c90 f   mmcityinfo:playerdata.obj
 0001:000c2ca0       ?SetNetName@mmPlayerData@@QAEXPAD@Z 004c3ca0 f   mmcityinfo:playerdata.obj
 0001:000c2ce0       ?GetNetName@mmPlayerData@@QAEPADXZ 004c3ce0 f   mmcityinfo:playerdata.obj
 0001:000c2cf0       ?SetFileName@mmPlayerData@@QAEXPAD@Z 004c3cf0 f   mmcityinfo:playerdata.obj
 0001:000c2d30       ?GetFileName@mmPlayerData@@QAEPADXZ 004c3d30 f   mmcityinfo:playerdata.obj
 0001:000c2d40       ?Load@mmPlayerData@@QAEHPAD@Z 004c3d40 f   mmcityinfo:playerdata.obj
 0001:000c2d70       ?Save@mmPlayerData@@QAEHPADH@Z 004c3d70 f   mmcityinfo:playerdata.obj
 0001:000c2e10       ?ComputeCRC@mmPlayerData@@QAEIXZ 004c3e10 f   mmcityinfo:playerdata.obj
 0001:000c2ec0       ?LoadBinary@mmPlayerData@@QAEHPAD@Z 004c3ec0 f   mmcityinfo:playerdata.obj
 0001:000c3120       ?SaveBinary@mmPlayerData@@QAEHPAD@Z 004c4120 f   mmcityinfo:playerdata.obj
 0001:000c3330       ?DeclareFields@mmPlayerData@@SAXXZ 004c4330 f   mmcityinfo:playerdata.obj
 0001:000c3610       ?GetClass@mmPlayerData@@UAEPAVMetaClass@@XZ 004c4610 f   mmcityinfo:playerdata.obj
 0001:000c3620       ??_EmmPlayerRecord@@UAEPAXI@Z 004c4620 f i mmcityinfo:playerdata.obj
 0001:000c3680       ??_EmmPlayerData@@UAEPAXI@Z 004c4680 f i mmcityinfo:playerdata.obj
 0001:000c36e0       ??0mmInfoBase@@QAE@XZ      004c46e0 f   mmcityinfo:infobase.obj
 0001:000c3710       ?Load@mmInfoBase@@QAEHPAD@Z 004c4710 f   mmcityinfo:infobase.obj
 0001:000c37c0       ?Save@mmInfoBase@@QAEHPAD@Z 004c47c0 f   mmcityinfo:infobase.obj
 0001:000c3870       ?SetIOPath@mmInfoBase@@QAEXPAD@Z 004c4870 f   mmcityinfo:infobase.obj
 0001:000c3890       ?DeclareFields@mmInfoBase@@SAXXZ 004c4890 f   mmcityinfo:infobase.obj
 0001:000c3a00       ?GetClass@mmInfoBase@@UAEPAVMetaClass@@XZ 004c4a00 f   mmcityinfo:infobase.obj
 0001:000c3a10       ??_EmmInfoBase@@UAEPAXI@Z  004c4a10 f i mmcityinfo:infobase.obj
 0001:000c3a70       ??0mmRecord@@QAE@XZ        004c4a70 f   mmcityinfo:racerecord.obj
 0001:000c3ab0       ??1mmRecord@@UAE@XZ        004c4ab0 f   mmcityinfo:racerecord.obj
 0001:000c3ac0       ?GetTime@mmRecord@@QAEMXZ  004c4ac0 f   mmcityinfo:racerecord.obj
 0001:000c3ad0       ?GetCarName@mmRecord@@QAEPADXZ 004c4ad0 f   mmcityinfo:racerecord.obj
 0001:000c3ae0       ?GetName@mmRecord@@QAEPADXZ 004c4ae0 f   mmcityinfo:racerecord.obj
 0001:000c3af0       ?GetPassed@mmRecord@@QAEHXZ 004c4af0 f   mmcityinfo:racerecord.obj
 0001:000c3b00       ?GetScore@mmRecord@@QAEHXZ 004c4b00 f   mmcityinfo:racerecord.obj
 0001:000c3b10       ?SetTime@mmRecord@@QAEXM@Z 004c4b10 f   mmcityinfo:racerecord.obj
 0001:000c3b20       ?SetCarName@mmRecord@@QAEXPAD@Z 004c4b20 f   mmcityinfo:racerecord.obj
 0001:000c3b40       ?SetName@mmRecord@@QAEXPAD@Z 004c4b40 f   mmcityinfo:racerecord.obj
 0001:000c3b80       ?SetPassed@mmRecord@@QAEXH@Z 004c4b80 f   mmcityinfo:racerecord.obj
 0001:000c3ba0       ?SetScore@mmRecord@@QAEXH@Z 004c4ba0 f   mmcityinfo:racerecord.obj
 0001:000c3bb0       ??4mmRecord@@QAEXAAV0@@Z   004c4bb0 f   mmcityinfo:racerecord.obj
 0001:000c3c40       ?SaveBinary@mmRecord@@QAEHPAVStream@@@Z 004c4c40 f   mmcityinfo:racerecord.obj
 0001:000c3cc0       ?LoadBinary@mmRecord@@QAEHPAVStream@@@Z 004c4cc0 f   mmcityinfo:racerecord.obj
 0001:000c3d40       ?ComputeCRC@mmRecord@@QAEIXZ 004c4d40 f   mmcityinfo:racerecord.obj
 0001:000c3da0       ?DeclareFields@mmRecord@@SAXXZ 004c4da0 f   mmcityinfo:racerecord.obj
 0001:000c3f80       ?GetClass@mmRecord@@UAEPAVMetaClass@@XZ 004c4f80 f   mmcityinfo:racerecord.obj
 0001:000c3f90       ??_EmmRecord@@UAEPAXI@Z    004c4f90 f i mmcityinfo:racerecord.obj
 0001:000c3ff0       ??0mmRaceData@@QAE@XZ      004c4ff0 f   mmcityinfo:racedata.obj
 0001:000c4000       ??1mmRaceData@@QAE@XZ      004c5000 f   mmcityinfo:racedata.obj
 0001:000c4010       ?Load@mmRaceData@@QAEHPAD@Z 004c5010 f   mmcityinfo:racedata.obj
 0001:000c4390       ?GetNumRaces@mmRaceData@@QAEHXZ 004c5390 f   mmcityinfo:racedata.obj
 0001:000c43a0       ?GetRaceName@mmRaceData@@QAEPADH@Z 004c53a0 f   mmcityinfo:racedata.obj
 0001:000c43b0       ?GetCarType@mmRaceData@@QAEHHW4mmSkillLevel@@@Z 004c53b0 f   mmcityinfo:racedata.obj
 0001:000c43e0       ?GetNumLaps@mmRaceData@@QAEHHW4mmSkillLevel@@@Z 004c53e0 f   mmcityinfo:racedata.obj
 0001:000c4410       ?GetTimeLimit@mmRaceData@@QAEMHW4mmSkillLevel@@@Z 004c5410 f   mmcityinfo:racedata.obj
 0001:000c4440       ?GetNumOpponents@mmRaceData@@QAEHHW4mmSkillLevel@@@Z 004c5440 f   mmcityinfo:racedata.obj
 0001:000c4470       ?GetNumCops@mmRaceData@@QAEHHW4mmSkillLevel@@@Z 004c5470 f   mmcityinfo:racedata.obj
 0001:000c44a0       ?GetTimeOfDay@mmRaceData@@QAEHHW4mmSkillLevel@@@Z 004c54a0 f   mmcityinfo:racedata.obj
 0001:000c44d0       ?GetWeather@mmRaceData@@QAEHHW4mmSkillLevel@@@Z 004c54d0 f   mmcityinfo:racedata.obj
 0001:000c4500       ?GetPedDensity@mmRaceData@@QAEMHW4mmSkillLevel@@@Z 004c5500 f   mmcityinfo:racedata.obj
 0001:000c4530       ?GetAmbientDensity@mmRaceData@@QAEMHW4mmSkillLevel@@@Z 004c5530 f   mmcityinfo:racedata.obj
 0001:000c4560       ?GetDifficulty@mmRaceData@@QAEMHW4mmSkillLevel@@@Z 004c5560 f   mmcityinfo:racedata.obj
 0001:000c4590       ??0mmPropInfo@@QAE@XZ      004c5590 f   mmcityinfo:roadsect.obj
 0001:000c45c0       ??1mmPropInfo@@UAE@XZ      004c55c0 f   mmcityinfo:roadsect.obj
 0001:000c4620       ?NewItems@mmPropInfo@@QAEXH@Z 004c5620 f   mmcityinfo:roadsect.obj
 0001:000c4650       ?SetItem@mmPropInfo@@QAEXHPAD@Z 004c5650 f   mmcityinfo:roadsect.obj
 0001:000c4670       ?SetSpacing@mmPropInfo@@QAEXM@Z 004c5670 f   mmcityinfo:roadsect.obj
 0001:000c4680       ?GetItem@mmPropInfo@@QAEPADH@Z 004c5680 f   mmcityinfo:roadsect.obj
 0001:000c46b0       ?GetSpacing@mmPropInfo@@QAEMXZ 004c56b0 f   mmcityinfo:roadsect.obj
 0001:000c46c0       ?GetNumItems@mmPropInfo@@QAEHXZ 004c56c0 f   mmcityinfo:roadsect.obj
 0001:000c46d0       ?Append@mmPropInfo@@QAEXPAD@Z 004c56d0 f   mmcityinfo:roadsect.obj
 0001:000c4750       ??0mmRoadSide@@QAE@XZ      004c5750 f   mmcityinfo:roadsect.obj
 0001:000c47e0       ??0mmRoadSect@@QAE@XZ      004c57e0 f   mmcityinfo:roadsect.obj
 0001:000c4920       ?SetStreetWidth@mmRoadSect@@QAEXM@Z 004c5920 f   mmcityinfo:roadsect.obj
 0001:000c4930       ?SetStreetType@mmRoadSect@@QAEXPAD@Z 004c5930 f   mmcityinfo:roadsect.obj
 0001:000c4940       ?SetRSidewalk@mmRoadSect@@QAEXMM@Z 004c5940 f   mmcityinfo:roadsect.obj
 0001:000c4960       ?SetLSidewalk@mmRoadSect@@QAEXMM@Z 004c5960 f   mmcityinfo:roadsect.obj
 0001:000c4980       ?NewVertexs@mmRoadSect@@QAEXHHHHH@Z 004c5980 f   mmcityinfo:roadsect.obj
 0001:000c4a30       ?SetRoadVertex@mmRoadSect@@QAEXHHHAAVVector3@@@Z 004c5a30 f   mmcityinfo:roadsect.obj
 0001:000c4a80       ?SetSidewalkVertex@mmRoadSect@@QAEXHHHAAVVector3@@@Z 004c5a80 f   mmcityinfo:roadsect.obj
 0001:000c4ae0       ?GetVertex@mmRoadSect@@QAEPAVVector3@@HHH@Z 004c5ae0 f   mmcityinfo:roadsect.obj
 0001:000c4b10       ?GetSidewalkVertex@mmRoadSect@@QAEPAVVector3@@HHH@Z 004c5b10 f   mmcityinfo:roadsect.obj
 0001:000c4b50       ?SetRoadNormal@mmRoadSect@@QAEXHAAVVector3@@@Z 004c5b50 f   mmcityinfo:roadsect.obj
 0001:000c4b80       ?SetRoomId@mmRoadSect@@QAEXHH@Z 004c5b80 f   mmcityinfo:roadsect.obj
 0001:000c4ba0       ?SetIntersectionType@mmRoadSect@@QAEXHH@Z 004c5ba0 f   mmcityinfo:roadsect.obj
 0001:000c4bc0       ?GetNormal@mmRoadSect@@QAEPAVVector3@@H@Z 004c5bc0 f   mmcityinfo:roadsect.obj
 0001:000c4be0       ?GetRoomId@mmRoadSect@@QAEHH@Z 004c5be0 f   mmcityinfo:roadsect.obj
 0001:000c4c00       ?GetIntersectionType@mmRoadSect@@QAEHH@Z 004c5c00 f   mmcityinfo:roadsect.obj
 0001:000c4c20       ?SetStopLightPos@mmRoadSect@@QAEXHABVVector3@@0@Z 004c5c20 f   mmcityinfo:roadsect.obj
 0001:000c4c70       ?GetStopLightPos@mmRoadSect@@QAEXHAAVVector3@@0@Z 004c5c70 f   mmcityinfo:roadsect.obj
 0001:000c4cc0       ?SetBlocked@mmRoadSect@@QAEXHH@Z 004c5cc0 f   mmcityinfo:roadsect.obj
 0001:000c4ce0       ?IsBlocked@mmRoadSect@@QAEHH@Z 004c5ce0 f   mmcityinfo:roadsect.obj
 0001:000c4d00       ?SetPedBlocked@mmRoadSect@@QAEXHH@Z 004c5d00 f   mmcityinfo:roadsect.obj
 0001:000c4d20       ?IsPedBlocked@mmRoadSect@@QAEHH@Z 004c5d20 f   mmcityinfo:roadsect.obj
 0001:000c4d40       ?SetStopLightName@mmRoadSect@@QAEXHPAD@Z 004c5d40 f   mmcityinfo:roadsect.obj
 0001:000c4d70       ?GetStopLightName@mmRoadSect@@QAEPADH@Z 004c5d70 f   mmcityinfo:roadsect.obj
 0001:000c4d90       ?SetDivided@mmRoadSect@@QAEXH@Z 004c5d90 f   mmcityinfo:roadsect.obj
 0001:000c4da0       ?IsDivided@mmRoadSect@@QAEHXZ 004c5da0 f   mmcityinfo:roadsect.obj
 0001:000c4db0       ?SetAlley@mmRoadSect@@QAEXH@Z 004c5db0 f   mmcityinfo:roadsect.obj
 0001:000c4dc0       ?IsAlley@mmRoadSect@@QAEHXZ 004c5dc0 f   mmcityinfo:roadsect.obj
 0001:000c4dd0       ?DeclareFields@mmPropInfo@@SAXXZ 004c5dd0 f   mmcityinfo:roadsect.obj
 0001:000c4f90       ?GetClass@mmPropInfo@@UAEPAVMetaClass@@XZ 004c5f90 f   mmcityinfo:roadsect.obj
 0001:000c4fa0       ?DeclareFields@mmRoadSide@@SAXXZ 004c5fa0 f   mmcityinfo:roadsect.obj
 0001:000c51b0       ?GetClass@mmRoadSide@@UAEPAVMetaClass@@XZ 004c61b0 f   mmcityinfo:roadsect.obj
 0001:000c51c0       ?DeclareFields@mmRoadSect@@SAXXZ 004c61c0 f   mmcityinfo:roadsect.obj
 0001:000c5570       ?GetClass@mmRoadSect@@UAEPAVMetaClass@@XZ 004c6570 f   mmcityinfo:roadsect.obj
 0001:000c5580       ??_EmmPropInfo@@UAEPAXI@Z  004c6580 f i mmcityinfo:roadsect.obj
 0001:000c55e0       ??_EmmRoadSide@@UAEPAXI@Z  004c65e0 f i mmcityinfo:roadsect.obj
 0001:000c5640       ??_EmmRoadSect@@UAEPAXI@Z  004c6640 f i mmcityinfo:roadsect.obj
 0001:000c56a0       ??1mmRoadSide@@UAE@XZ      004c66a0 f i mmcityinfo:roadsect.obj
 0001:000c5730       ??1mmRoadSect@@UAE@XZ      004c6730 f i mmcityinfo:roadsect.obj
 0001:000c5840       ??0mmCityInfo@@QAE@XZ      004c6840 f   mmcityinfo:cityinfo.obj
 0001:000c5860       ??1mmCityInfo@@UAE@XZ      004c6860 f   mmcityinfo:cityinfo.obj
 0001:000c5870       ?Load@mmCityInfo@@QAEHPAD@Z 004c6870 f   mmcityinfo:cityinfo.obj
 0001:000c5bc0       ??_EmmCityInfo@@UAEPAXI@Z  004c6bc0 f i mmcityinfo:cityinfo.obj
 0001:000c5bc0       ??_GmmCityInfo@@UAEPAXI@Z  004c6bc0 f i mmcityinfo:cityinfo.obj
 0001:000c5bf0       ??0mmVehInfo@@QAE@XZ       004c6bf0 f   mmcityinfo:vehinfo.obj
 0001:000c5c10       ??1mmVehInfo@@UAE@XZ       004c6c10 f   mmcityinfo:vehinfo.obj
 0001:000c5c20       ?Load@mmVehInfo@@QAEHPAD@Z 004c6c20 f   mmcityinfo:vehinfo.obj
 0001:000c5e00       ?HasColorVariations@mmVehInfo@@QAEHXZ 004c6e00 f   mmcityinfo:vehinfo.obj
 0001:000c5e20       ?Print@mmVehInfo@@QAEXXZ   004c6e20 f   mmcityinfo:vehinfo.obj
 0001:000c5eb0       ??_GmmVehInfo@@UAEPAXI@Z   004c6eb0 f i mmcityinfo:vehinfo.obj
 0001:000c5eb0       ??_EmmVehInfo@@UAEPAXI@Z   004c6eb0 f i mmcityinfo:vehinfo.obj
 0001:000c5ee0       ?UpdateCrc@@YAKPAEI@Z      004c6ee0 f   mmcityinfo:crc.obj
 0001:000c5fc0       ?DoUpdateAll@mmPhysExec@@QAEXXZ 004c6fc0 f   mmphysics:phys.obj
 0001:000c61b0       ?DoUpdatePlayerOnly@mmPhysExec@@QAEXXZ 004c71b0 f   mmphysics:phys.obj
 0001:000c63f0       ??0mmPhysicsMGR@@QAE@XZ    004c73f0 f   mmphysics:phys.obj
 0001:000c64f0       ??1mmPhysicsMGR@@UAE@XZ    004c74f0 f   mmphysics:phys.obj
 0001:000c6580       ?Init@mmPhysicsMGR@@QAEXPAVasInertialCS@@PAVmmViewCS@@@Z 004c7580 f   mmphysics:phys.obj
 0001:000c65d0       ?Reset@mmPhysicsMGR@@UAEXXZ 004c75d0 f   mmphysics:phys.obj
 0001:000c6620       ?Shutdown@mmPhysicsMGR@@QAEXXZ 004c7620 f   mmphysics:phys.obj
 0001:000c6640       ?DeclareMover@mmPhysicsMGR@@QAEXPAVmmInstance@@HH@Z 004c7640 f   mmphysics:phys.obj
 0001:000c6840       ?NewMover@mmPhysicsMGR@@QAEXPAVmmInstance@@0@Z 004c7840 f   mmphysics:phys.obj
 0001:000c6940       ?NewMover@mmPhysicsMGR@@QAEXPAVmmInstance@@@Z 004c7940 f   mmphysics:phys.obj
 0001:000c69c0       ?NewMover@mmPhysicsMGR@@QAEXPAVmmInstance@@00@Z 004c79c0 f   mmphysics:phys.obj
 0001:000c6ae0       ?IgnoreMover@mmPhysicsMGR@@QAEXPAVmmInstance@@@Z 004c7ae0 f   mmphysics:phys.obj
 0001:000c6b30       ?GatherRoomCollidables@mmPhysicsMGR@@IAEXHFH@Z 004c7b30 f   mmphysics:phys.obj
 0001:000c6c50       ?ClosestNeighboringCullRoom@mmPhysicsMGR@@IAEHH@Z 004c7c50 f   mmphysics:phys.obj
 0001:000c6da0       ?GatherCollidables@mmPhysicsMGR@@IAEXHH@Z 004c7da0 f   mmphysics:phys.obj
 0001:000c6e00       ?UpdateEverythingButPlayer@mmPhysicsMGR@@QAEXXZ 004c7e00 f   mmphysics:phys.obj
 0001:000c6fe0       ?Update@mmPhysicsMGR@@UAEXXZ 004c7fe0 f   mmphysics:phys.obj
 0001:000c7390       ?UpdatePaused@mmPhysicsMGR@@UAEXXZ 004c8390 f   mmphysics:phys.obj
 0001:000c73c0       ?DeclareBound@mmPhysicsMGR@@IAEXPAVmmBoundTemplate@@@Z 004c83c0 f   mmphysics:phys.obj
 0001:000c73d0       ?Cull@mmPhysicsMGR@@UAEXXZ 004c83d0 f   mmphysics:phys.obj
 0001:000c7420       ?TrivialCollideInstances@mmPhysicsMGR@@IAEHPAVmmInstance@@0@Z 004c8420 f   mmphysics:phys.obj
 0001:000c7640       ?CollideInstances@mmPhysicsMGR@@IAEHPAVmmInstance@@0HH@Z 004c8640 f   mmphysics:phys.obj
 0001:000c7ae0       ?CollideTerrain@mmPhysicsMGR@@IAEXPAVmmInstance@@@Z 004c8ae0 f   mmphysics:phys.obj
 0001:000c7fc0       ?CollideProbe@mmPhysicsMGR@@IAEHFPAVmmIntersection@@H@Z 004c8fc0 f   mmphysics:phys.obj
 0001:000c8150       ?Collide@mmPhysicsMGR@@QAEHPAVmmIntersection@@HFF@Z 004c9150 f   mmphysics:phys.obj
 0001:000c8270       ?CollideLOS@mmPhysicsMGR@@QAEHPAVmmIntersection@@HFF@Z 004c9270 f   mmphysics:phys.obj
 0001:000c83d0       ?FindIntersections@@YAHPAVmmIntersection@@HPAVasBound@@1PAVmmBoundTemplate@@2PAVmmEdgeBodyIsect@@H3H@Z 004c93d0 f   mmphysics:phys.obj
 0001:000c9800       ?DoEndPtSearch@@YAXHABVVector3@@PAVmmEdgeBodyIsect@@HPAPAVmmIntersection@@PAHH@Z 004ca800 f   mmphysics:phys.obj
 0001:000c9e10       ?DoEdgeEdge@@YAXPAVmmEdgeBodyIsect@@PAPAVmmIntersection@@PAHH@Z 004cae10 f   mmphysics:phys.obj
 0001:000c9ef0       ?SegSegDistNorm@@YAXABVVector3@@00000PAV1@11PAMPAH@Z 004caef0 f   mmphysics:phys.obj
 0001:000ca410       ?GetCollidePolyEdge@@YAHABVVector3@@PAVmmPolygon@@PAVmmBoundTemplate@@PAVasInertialCS@@0M0000PAV1@4PAMPAH6@Z 004cb410 f   mmphysics:phys.obj
 0001:000caae0       ?AddWidgets@mmPhysicsMGR@@QAEXPAVBank@@@Z 004cbae0 f   mmphysics:phys.obj
 0001:000caaf0       ?DeclareFields@mmPhysicsMGR@@SAXXZ 004cbaf0 f   mmphysics:phys.obj
 0001:000cac70       ?GetClass@mmPhysicsMGR@@UAEPAVMetaClass@@XZ 004cbc70 f   mmphysics:phys.obj
 0001:000cac80       ??KVector3@@QBE?AV0@M@Z    004cbc80 f i mmphysics:phys.obj
 0001:000cacc0       ?testNoOverlap@@YAHMM@Z    004cbcc0 f i mmphysics:phys.obj
 0001:000cad30       ??_EmmPhysicsMGR@@UAEPAXI@Z 004cbd30 f i mmphysics:phys.obj
 0001:000cad90       ?Update@mmPhysExec@@UAEXXZ 004cbd90 f i mmphysics:phys.obj
 0001:000cadb0       ??_GmmPhysExec@@UAEPAXI@Z  004cbdb0 f i mmphysics:phys.obj
 0001:000cadb0       ??_EmmPhysExec@@UAEPAXI@Z  004cbdb0 f i mmphysics:phys.obj
 0001:000cade0       ??1mmPhysExec@@UAE@XZ      004cbde0 f i mmphysics:phys.obj
 0001:000cadf0       ??0asInertialCS@@QAE@XZ    004cbdf0 f   mmphysics:inertia.obj
 0001:000caef0       ?SetMass@asInertialCS@@QAEXMMMM@Z 004cbef0 f   mmphysics:inertia.obj
 0001:000cb000       ?SetDensity@asInertialCS@@QAEXMMMM@Z 004cc000 f   mmphysics:inertia.obj
 0001:000cb050       ?SetZeroDOF@asInertialCS@@QAEXMM@Z 004cc050 f   mmphysics:inertia.obj
 0001:000cb110       ?Zero@asInertialCS@@QAEXXZ 004cc110 f   mmphysics:inertia.obj
 0001:000cb230       ?Reset@asInertialCS@@UAEXXZ 004cc230 f   mmphysics:inertia.obj
 0001:000cb250       ?UpdateKids@asInertialCS@@QAEXXZ 004cc250 f   mmphysics:inertia.obj
 0001:000cb280       ?Update@asInertialCS@@UAEXXZ 004cc280 f   mmphysics:inertia.obj
 0001:000cb340       ?FinishForces@asInertialCS@@QAEXXZ 004cc340 f   mmphysics:inertia.obj
 0001:000cb6d0       ?MoveICS@asInertialCS@@QAEXXZ 004cc6d0 f   mmphysics:inertia.obj
 0001:000cb750       ?FinishUpdate@asInertialCS@@QAEXXZ 004cc750 f   mmphysics:inertia.obj
 0001:000cbdf0       ?ApplyForce@asInertialCS@@QAEXABVVector3@@@Z 004ccdf0 f   mmphysics:inertia.obj
 0001:000cbe30       ?ApplyForce@asInertialCS@@QAEXABVVector3@@0@Z 004cce30 f   mmphysics:inertia.obj
 0001:000cbed0       ?ApplyTorque@asInertialCS@@QAEXABVVector3@@@Z 004cced0 f   mmphysics:inertia.obj
 0001:000cbf10       ?ApplyImpulse@asInertialCS@@QAEXABVVector3@@@Z 004ccf10 f   mmphysics:inertia.obj
 0001:000cbf50       ?ApplyImpulse@asInertialCS@@QAEXABVVector3@@0@Z 004ccf50 f   mmphysics:inertia.obj
 0001:000cbff0       ?ApplyAngImpulse@asInertialCS@@QAEXABVVector3@@@Z 004ccff0 f   mmphysics:inertia.obj
 0001:000cc030       ?ApplyPush@asInertialCS@@UAEXABVVector3@@0@Z 004cd030 f   mmphysics:inertia.obj
 0001:000cc140       ?ApplyPush@asInertialCS@@QAEXABVVector3@@@Z 004cd140 f   mmphysics:inertia.obj
 0001:000cc250       ?ApplyTurn@asInertialCS@@QAEXABVVector3@@@Z 004cd250 f   mmphysics:inertia.obj
 0001:000cc290       ?DrawForce@asInertialCS@@AAEXABVVector3@@0@Z 004cd290 f   mmphysics:inertia.obj
 0001:000cc2a0       ?DrawForce@asInertialCS@@AAEXABVVector3@@00@Z 004cd2a0 f   mmphysics:inertia.obj
 0001:000cc2b0       ?DoConstrain@asInertialCS@@QAEXXZ 004cd2b0 f   mmphysics:inertia.obj
 0001:000cc360       ?GetVelocity@asInertialCS@@QAE?AVVector3@@PBV2@@Z 004cd360 f   mmphysics:inertia.obj
 0001:000cc430       ?CalcCMatrix@asInertialCS@@QBEXAAVMatrix34@@ABVVector3@@@Z 004cd430 f   mmphysics:inertia.obj
 0001:000cc600       ?GetCMatrix@asInertialCS@@UBEXAAVMatrix34@@ABVVector3@@@Z 004cd600 f   mmphysics:inertia.obj
 0001:000cc670       ?InertiaAxis@@YAMABVVector3@@0@Z 004cd670 f   mmphysics:inertia.obj
 0001:000cc6b0       ?MatrixToAngVelocity@@YA?AVVector3@@ABVMatrix34@@M@Z 004cd6b0 f   mmphysics:inertia.obj
 0001:000cc780       ?MatricesToMomenta@asInertialCS@@QAEXABVMatrix34@@0M@Z 004cd780 f   mmphysics:inertia.obj
 0001:000cc9b0       ?MatrixToAngVelocity@@YA?AVVector3@@ABVMatrix34@@0M@Z 004cd9b0 f   mmphysics:inertia.obj
 0001:000cca10       ?FileIO@asInertialCS@@QAEXPAVMiniParser@@@Z 004cda10 f   mmphysics:inertia.obj
 0001:000cca20       ?AddWidgets@asInertialCS@@QAEXPAVBank@@@Z 004cda20 f   mmphysics:inertia.obj
 0001:000cca30       ?DeclareFields@asInertialCS@@SAXXZ 004cda30 f   mmphysics:inertia.obj
 0001:000ccbb0       ?GetClass@asInertialCS@@UAEPAVMetaClass@@XZ 004cdbb0 f   mmphysics:inertia.obj
 0001:000ccbf0       ?Set@Vector3@@QAEXMMM@Z    004cdbf0 f i mmphysics:inertia.obj
 0001:000ccc10       ??_EasInertialCS@@UAEPAXI@Z 004cdc10 f i mmphysics:inertia.obj
 0001:000ccc70       ??YVector3@@QAEXABV0@@Z    004cdc70 f i mmphysics:inertia.obj
 0001:000ccce0       ??0Joint3Dof@@QAE@XZ       004cdce0 f   mmphysics:joint3dof.obj
 0001:000ccd30       ?Init@Joint3Dof@@QAEXXZ    004cdd30 f   mmphysics:joint3dof.obj
 0001:000ccda0       ?Reset@Joint3Dof@@UAEXXZ   004cdda0 f   mmphysics:joint3dof.obj
 0001:000ccdb0       ?InitJoint3Dof@Joint3Dof@@QAEXPAVasInertialCS@@ABVVector3@@01@Z 004cddb0 f   mmphysics:joint3dof.obj
 0001:000cce30       ?SetPosition@Joint3Dof@@QAEXABVVector3@@@Z 004cde30 f   mmphysics:joint3dof.obj
 0001:000ccf10       ?SetRotate1@Joint3Dof@@QAEXABVMatrix34@@@Z 004cdf10 f   mmphysics:joint3dof.obj
 0001:000ccf30       ?SetRotate2@Joint3Dof@@QAEXABVMatrix34@@@Z 004cdf30 f   mmphysics:joint3dof.obj
 0001:000ccf50       ?SetFrictionLean@Joint3Dof@@QAEXMMM@Z 004cdf50 f   mmphysics:joint3dof.obj
 0001:000ccf80       ?SetFrictionRoll@Joint3Dof@@QAEXMMM@Z 004cdf80 f   mmphysics:joint3dof.obj
 0001:000ccfb0       ?SetLeanLimit@Joint3Dof@@QAEXMM@Z 004cdfb0 f   mmphysics:joint3dof.obj
 0001:000ccfd0       ?SetRollLimit@Joint3Dof@@QAEXMMM@Z 004cdfd0 f   mmphysics:joint3dof.obj
 0001:000cd000       ?SetRestOrientation@Joint3Dof@@QAEXXZ 004ce000 f   mmphysics:joint3dof.obj
 0001:000cd070       ?SetRestOrientMat@Joint3Dof@@QAEXABVMatrix34@@@Z 004ce070 f   mmphysics:joint3dof.obj
 0001:000cd0b0       ?SetRestOrientMat@Joint3Dof@@QAEXABVMatrix34@@0@Z 004ce0b0 f   mmphysics:joint3dof.obj
 0001:000cd100       ?SetForceLimit@Joint3Dof@@QAEXM@Z 004ce100 f   mmphysics:joint3dof.obj
 0001:000cd110       ?SetJointForceFlag@Joint3Dof@@QAEXXZ 004ce110 f   mmphysics:joint3dof.obj
 0001:000cd1b0       ?Update@Joint3Dof@@UAEXXZ  004ce1b0 f   mmphysics:joint3dof.obj
 0001:000ce410       ?MoveICS@Joint3Dof@@QAEXXZ 004cf410 f   mmphysics:joint3dof.obj
 0001:000ce460       ?BreakJoint@Joint3Dof@@QAEXXZ 004cf460 f   mmphysics:joint3dof.obj
 0001:000ce490       ?UnbreakJoint@Joint3Dof@@QAEXXZ 004cf490 f   mmphysics:joint3dof.obj
 0001:000ce4c0       ?DoJointTorque@Joint3Dof@@QAEXABVMatrix34@@000AAM1AAVVector3@@11@Z 004cf4c0 f   mmphysics:joint3dof.obj
 0001:000cea50       ?DoJointLimits@Joint3Dof@@QAEXMABVVector3@@M0AAV2@ABVMatrix34@@2222@Z 004cfa50 f   mmphysics:joint3dof.obj
 0001:000cf110       ?GetCMatrix@Joint3Dof@@UAEXPBVasInertialCS@@AAVMatrix34@@ABVVector3@@@Z 004d0110 f   mmphysics:joint3dof.obj
 0001:000cf470       ?GetCMatrix@Joint3Dof@@UAEXPBVasInertialCS@@0AAVMatrix34@@ABVVector3@@@Z 004d0470 f   mmphysics:joint3dof.obj
 0001:000cfa60       ?AddWidgets@Joint3Dof@@QAEXPAVBank@@@Z 004d0a60 f   mmphysics:joint3dof.obj
 0001:000cfa70       ?DeclareFields@Joint3Dof@@SAXXZ 004d0a70 f   mmphysics:joint3dof.obj
 0001:000cfbe0       ?GetClass@Joint3Dof@@UAEPAVMetaClass@@XZ 004d0be0 f   mmphysics:joint3dof.obj
 0001:000cfc20       ??1JointedStruct@@UAE@XZ   004d0c20 f i mmphysics:joint3dof.obj
 0001:000cfc30       ??TVector3@@QBE?AV0@ABVMatrix34@@@Z 004d0c30 f i mmphysics:joint3dof.obj
 0001:000cfc60       ??ZVector3@@QAEXABV0@@Z    004d0c60 f i mmphysics:joint3dof.obj
 0001:000cfc90       ??XVector3@@QAEXM@Z        004d0c90 f i mmphysics:joint3dof.obj
 0001:000cfcc0       ??_EJoint3Dof@@UAEPAXI@Z   004d0cc0 f i mmphysics:joint3dof.obj
 0001:000cfd20       ??1Joint3Dof@@UAE@XZ       004d0d20 f i mmphysics:joint3dof.obj
 0001:000cfd30       ?RotateNoTrans@Matrix34@@QBE?AVVector3@@ABV2@@Z 004d0d30 f i mmphysics:joint3dof.obj
 0001:000cfd60       ?Transpose@Matrix34@@QBE?AV1@XZ 004d0d60 f i mmphysics:joint3dof.obj
 0001:000cfd90       ?CrossProdMatrix@@YAXPAVMatrix34@@ABVVector3@@@Z 004d0d90 f i mmphysics:joint3dof.obj
 0001:000cfde0       ??0asOverSample@@QAE@XZ    004d0de0 f   mmphysics:osample.obj
 0001:000cfe10       ?RealTime@asOverSample@@QAEXM@Z 004d0e10 f   mmphysics:osample.obj
 0001:000cfe30       ?Update@asOverSample@@UAEXXZ 004d0e30 f   mmphysics:osample.obj
 0001:000cfef0       ?AddWidgets@asOverSample@@QAEXPAVBank@@@Z 004d0ef0 f   mmphysics:osample.obj
 0001:000cff00       ?DeclareFields@asOverSample@@SAXXZ 004d0f00 f   mmphysics:osample.obj
 0001:000d0080       ?GetClass@asOverSample@@UAEPAVMetaClass@@XZ 004d1080 f   mmphysics:osample.obj
 0001:000d0090       ??_EasOverSample@@UAEPAXI@Z 004d1090 f i mmphysics:osample.obj
 0001:000d00f0       ??0asBound@@QAE@XZ         004d10f0 f   mmphysics:bound.obj
 0001:000d0130       ?Impact@asBound@@QAEHPAVmmIntersection@@PAV1@HHH@Z 004d1130 f   mmphysics:bound.obj
 0001:000d0ac0       ?GetPhysMtl@asBound@@QAEAAVagiPhysParameters@@ABVmmPolygon@@@Z 004d1ac0 f   mmphysics:bound.obj
 0001:000d0bb0       ??_EasBound@@UAEPAXI@Z     004d1bb0 f i mmphysics:bound.obj
 0001:000d0bb0       ??_GasBound@@UAEPAXI@Z     004d1bb0 f i mmphysics:bound.obj
 0001:000d0be0       ??0asAero@@QAE@XZ          004d1be0 f   mmphysics:aero.obj
 0001:000d0c40       ?Update@asAero@@UAEXXZ     004d1c40 f   mmphysics:aero.obj
 0001:000d1100       ?Load@asAero@@QAEXPAVStream@@@Z 004d2100 f   mmphysics:aero.obj
 0001:000d11d0       ?Save@asAero@@QAEXPAVStream@@@Z 004d21d0 f   mmphysics:aero.obj
 0001:000d1300       ?AddWidgets@asAero@@QAEXPAVBank@@@Z 004d2300 f   mmphysics:aero.obj
 0001:000d1310       ?DeclareFields@asAero@@SAXXZ 004d2310 f   mmphysics:aero.obj
 0001:000d14e0       ?GetClass@asAero@@UAEPAVMetaClass@@XZ 004d24e0 f   mmphysics:aero.obj
 0001:000d14f0       ??_EasAero@@UAEPAXI@Z      004d24f0 f i mmphysics:aero.obj
 0001:000d1550       ?testsuperq@@YAXXZ         004d2550 f   mminput:input.obj
 0001:000d1580       ??0mmInput@@QAE@XZ         004d2580 f   mminput:input.obj
 0001:000d17a0       ??1mmInput@@UAE@XZ         004d27a0 f   mminput:input.obj
 0001:000d1860       ?AttachToPipe@mmInput@@QAEHXZ 004d2860 f   mminput:input.obj
 0001:000d1d10       ?Reset@mmInput@@UAEXXZ     004d2d10 f   mminput:input.obj
 0001:000d1d40       ?IOInit@mmInput@@QAEXHPAULocString@@J@Z 004d2d40 f   mminput:input.obj
 0001:000d1d70       ?AutoSetup@mmInput@@QAEXXZ 004d2d70 f   mminput:input.obj
 0001:000d1e40       ?SaveCB@mmInput@@QAEXXZ    004d2e40 f   mminput:input.obj
 0001:000d1e80       ?RestoreDefaultConfig@mmInput@@QAEXH@Z 004d2e80 f   mminput:input.obj
 0001:000d1ee0       ?SetDefaultConfig@mmInput@@QAEXH@Z 004d2ee0 f   mminput:input.obj
 0001:000d2ad0       ?Init@mmInput@@QAEXH@Z     004d3ad0 f   mminput:input.obj
 0001:000d2cb0       ?FlagIODevChanged@mmInput@@QAEXXZ 004d3cb0 f   mminput:input.obj
 0001:000d2cd0       ?ReturnStateCaptured@mmInput@@QAEHXZ 004d3cd0 f   mminput:input.obj
 0001:000d2cf0       ?CaptureState@mmInput@@QAEXH@Z 004d3cf0 f   mminput:input.obj
 0001:000d2d20       ?BuildCaptureIO@mmInput@@QAEHHPAVmmIO@@TeqEvent@@@Z 004d3d20 f   mminput:input.obj
 0001:000d2ee0       ?ForceAssignment@mmInput@@QAEXPAVmmIO@@@Z 004d3ee0 f   mminput:input.obj
 0001:000d2f00       ?SanityCheck@mmInput@@QAEHPAVmmIO@@HH@Z 004d3f00 f   mminput:input.obj
 0001:000d2f80       ?IsAlreadyAssigned@mmInput@@QAEHPAVmmIO@@HHH@Z 004d3f80 f   mminput:input.obj
 0001:000d3060       ?AssignIO@mmInput@@QAEXPAVmmIO@@HH@Z 004d4060 f   mminput:input.obj
 0001:000d3100       ?Update@mmInput@@UAEXXZ    004d4100 f   mminput:input.obj
 0001:000d31e0       ?PollStates@mmInput@@QAEHXZ 004d41e0 f   mminput:input.obj
 0001:000d3290       ?PollSuperQ@mmInput@@QAEHXZ 004d4290 f   mminput:input.obj
 0001:000d32c0       ?Flush@mmInput@@QAEXXZ     004d42c0 f   mminput:input.obj
 0001:000d3320       ?ClearEventHitFlags@mmInput@@QAEXXZ 004d4320 f   mminput:input.obj
 0001:000d3340       ?ProcessMouseEvents@mmInput@@AAEXXZ 004d4340 f   mminput:input.obj
 0001:000d33a0       ?ProcessKeyboardEvents@mmInput@@AAEXXZ 004d43a0 f   mminput:input.obj
 0001:000d33f0       ?GetBufferedKeyboardData@mmInput@@AAEXXZ 004d43f0 f   mminput:input.obj
 0001:000d3410       ?GetNextKeyboardEvent@mmInput@@AAEHPATeqEvent@@@Z 004d4410 f   mminput:input.obj
 0001:000d3450       ?ProcessEvents@mmInput@@AAEXXZ 004d4450 f   mminput:input.obj
 0001:000d3470       ?ProcessStates@mmInput@@AAE_JXZ 004d4470 f   mminput:input.obj
 0001:000d3550       ?ScanState@mmInput@@AAE_JPAVmmIO@@@Z 004d4550 f   mminput:input.obj
 0001:000d3700       ?EventToButton@mmInput@@AAEHH@Z 004d4700 f   mminput:input.obj
 0001:000d3730       ?ProcessJoyEvents@mmInput@@AAEXXZ 004d4730 f   mminput:input.obj
 0001:000d3c00       ?ScanForEvent@mmInput@@AAE_JPATeqEvent@@@Z 004d4c00 f   mminput:input.obj
 0001:000d3cc0       ?PutEventInQueue@mmInput@@AAEX_J@Z 004d4cc0 f   mminput:input.obj
 0001:000d3cf0       ?PollContinuous@mmInput@@AAEXPAVmmIO@@@Z 004d4cf0 f   mminput:input.obj
 0001:000d4180       ?GetThrottle@mmInput@@QAEMXZ 004d5180 f   mminput:input.obj
 0001:000d41a0       ?GetThrottleVal@mmInput@@QAEMXZ 004d51a0 f   mminput:input.obj
 0001:000d4210       ?GetBrakes@mmInput@@QAEMXZ 004d5210 f   mminput:input.obj
 0001:000d4230       ?GetBrakesVal@mmInput@@QAEMXZ 004d5230 f   mminput:input.obj
 0001:000d42a0       ?GetHandBrake@mmInput@@QAEMXZ 004d52a0 f   mminput:input.obj
 0001:000d4320       ?FilterDiscreteSteering@mmInput@@AAEMM@Z 004d5320 f   mminput:input.obj
 0001:000d44c0       ?FilterGamepadSteering@mmInput@@QAEMXZ 004d54c0 f   mminput:input.obj
 0001:000d4650       ?GetSteering@mmInput@@QAEMXZ 004d5650 f   mminput:input.obj
 0001:000d4700       ?GetCamPan@mmInput@@QAEMXZ 004d5700 f   mminput:input.obj
 0001:000d4800       ?DeviceConnected@mmInput@@QAEHXZ 004d5800 f   mminput:input.obj
 0001:000d4810       ?JoystickConnected@mmInput@@QAEHXZ 004d5810 f   mminput:input.obj
 0001:000d4820       ?GamepadConnected@mmInput@@QAEHXZ 004d5820 f   mminput:input.obj
 0001:000d4830       ?WheelConnected@mmInput@@QAEHXZ 004d5830 f   mminput:input.obj
 0001:000d4840       ?SetDeadZone@mmInput@@QAEXM@Z 004d5840 f   mminput:input.obj
 0001:000d4870       ?JoystickHasCoolie@mmInput@@QAEHXZ 004d5870 f   mminput:input.obj
 0001:000d4880       ?JoystickHasThrottle@mmInput@@QAEHXZ 004d5880 f   mminput:input.obj
 0001:000d4890       ?WheelHas3Axis@mmInput@@QAEHXZ 004d5890 f   mminput:input.obj
 0001:000d48d0       ?DoingFF@mmInput@@QAEHXZ   004d58d0 f   mminput:input.obj
 0001:000d4900       ?StopAllFF@mmInput@@QAEXXZ 004d5900 f   mminput:input.obj
 0001:000d4910       ?SetForceFeedbackScale@mmInput@@QAEXM@Z 004d5910 f   mminput:input.obj
 0001:000d4960       ?SetRoadForceScale@mmInput@@QAEXM@Z 004d5960 f   mminput:input.obj
 0001:000d49b0       ?ToggleFFEnabled@mmInput@@QAEHH@Z 004d59b0 f   mminput:input.obj
 0001:000d49d0       ?FFPlay@mmInput@@QAEHH@Z   004d59d0 f   mminput:input.obj
 0001:000d4a00       ?FFStop@mmInput@@QAEHH@Z   004d5a00 f   mminput:input.obj
 0001:000d4a30       ?FFIsPlaying@mmInput@@QAEHH@Z 004d5a30 f   mminput:input.obj
 0001:000d4a60       ?FFSetValues@mmInput@@QAEHHMM@Z 004d5a60 f   mminput:input.obj
 0001:000d4a90       ?PopEvent@mmInput@@QAEHPAH@Z 004d5a90 f   mminput:input.obj
 0001:000d4ac0       ?LoadConfig@mmInput@@QAEHPAVStream@@@Z 004d5ac0 f   mminput:input.obj
 0001:000d4b50       ?BinaryLoadConfig@mmInput@@QAEHPAVStream@@@Z 004d5b50 f   mminput:input.obj
 0001:000d4c10       ?SaveConfig@mmInput@@QAEHPAVStream@@@Z 004d5c10 f   mminput:input.obj
 0001:000d4c90       ?BinarySaveConfig@mmInput@@QAEHPAVStream@@@Z 004d5c90 f   mminput:input.obj
 0001:000d4d20       ?DeclareFields@mmInput@@SAXXZ 004d5d20 f   mminput:input.obj
 0001:000d4ed0       ?GetClass@mmInput@@UAEPAVMetaClass@@XZ 004d5ed0 f   mminput:input.obj
 0001:000d4ee0       ?PrintIODev@mmInput@@QAEXXZ 004d5ee0 f   mminput:input.obj
 0001:000d4fb0       ?SaveCodeConfig@mmInput@@QAEHPAVStream@@@Z 004d5fb0 f   mminput:input.obj
 0001:000d5680       ??_EmmIO@@QAEPAXI@Z        004d6680 f i mminput:input.obj
 0001:000d56e0       ??_EmmIODev@@UAEPAXI@Z     004d66e0 f i mminput:input.obj
 0001:000d5740       ??_EmmInput@@UAEPAXI@Z     004d6740 f i mminput:input.obj
 0001:000d57a0       ??0mmIO@@QAE@XZ            004d67a0 f   mminput:io.obj
 0001:000d57c0       ??1mmIO@@QAE@XZ            004d67c0 f   mminput:io.obj
 0001:000d57d0       ?Clear@mmIO@@QAEXXZ        004d67d0 f   mminput:io.obj
 0001:000d57f0       ?Init@mmIO@@QAEXPADHJ@Z    004d67f0 f   mminput:io.obj
 0001:000d5850       ?InitDev@mmIO@@QAEXH_JHHH@Z 004d6850 f   mminput:io.obj
 0001:000d5900       ?Assign@mmIO@@QAEXHH@Z     004d6900 f   mminput:io.obj
 0001:000d5960       ??8mmIO@@QAEHPATeqEvent@@@Z 004d6960 f   mminput:io.obj
 0001:000d59b0       ?GetDescription@mmIO@@QAEXPAD@Z 004d69b0 f   mminput:io.obj
 0001:000d5a00       ?Write@mmIO@@QAEHPAVStream@@@Z 004d6a00 f   mminput:io.obj
 0001:000d5a40       ?Read@mmIO@@QAEHPAVStream@@@Z 004d6a40 f   mminput:io.obj
 0001:000d5b10       ?CompareComponent@mmIO@@QAEHH@Z 004d6b10 f   mminput:io.obj
 0001:000d5be0       ?ForceSettingAcrossConfigs@mmIO@@QAEXH@Z 004d6be0 f   mminput:io.obj
 0001:000d5ca0       ??0mmIODev@@QAE@XZ         004d6ca0 f   mminput:iodev.obj
 0001:000d5ce0       ??1mmIODev@@UAE@XZ         004d6ce0 f   mminput:iodev.obj
 0001:000d5cf0       ?Init@mmIODev@@QAEXH_J@Z   004d6cf0 f   mminput:iodev.obj
 0001:000d5d20       ?Assign@mmIODev@@QAEXHHH@Z 004d6d20 f   mminput:iodev.obj
 0001:000d5e40       ??8mmIODev@@QAEHPATeqEvent@@@Z 004d6e40 f   mminput:iodev.obj
 0001:000d5ea0       ?ConvertDItoString@@YAHHPADH@Z 004d6ea0 f   mminput:iodev.obj
 0001:000d5f00       ?GetDescription@mmIODev@@QAEXPAD@Z 004d6f00 f   mminput:iodev.obj
 0001:000d61c0       ?GetComponentType@mmIODev@@QAEHHH@Z 004d71c0 f   mminput:iodev.obj
 0001:000d6230       ?SanityCheckioType@mmIODev@@QAEHHHH@Z 004d7230 f   mminput:iodev.obj
 0001:000d62b0       ?Print@mmIODev@@QAEXH@Z    004d72b0 f   mminput:iodev.obj
 0001:000d6380       ?Write@mmIODev@@QAEHPAVStream@@@Z 004d7380 f   mminput:iodev.obj
 0001:000d63e0       ?WriteBinary@mmIODev@@QAEHPAVStream@@@Z 004d73e0 f   mminput:iodev.obj
 0001:000d6430       ?Read@mmIODev@@QAEHPAVStream@@@Z 004d7430 f   mminput:iodev.obj
 0001:000d6490       ?ReadBinary@mmIODev@@QAEHPAVStream@@@Z 004d7490 f   mminput:iodev.obj
 0001:000d64e0       ?DeclareFields@mmIODev@@SAXXZ 004d74e0 f   mminput:iodev.obj
 0001:000d6690       ?GetClass@mmIODev@@UAEPAVMetaClass@@XZ 004d7690 f   mminput:iodev.obj
 0001:000d66a0       ?inputEnumDeviceProc@@YGHPAUDIDEVICEINSTANCEA@@PAX@Z 004d76a0 f   mminput:joyman.obj
 0001:000d66d0       ??0mmJoyMan@@QAE@XZ        004d76d0 f   mminput:joyman.obj
 0001:000d66e0       ??1mmJoyMan@@QAE@XZ        004d76e0 f   mminput:joyman.obj
 0001:000d6720       ?Init@mmJoyMan@@QAEHPAUHINSTANCE__@@PAUHWND__@@@Z 004d7720 f   mminput:joyman.obj
 0001:000d6880       ?ButtonToBit@mmJoyMan@@QAEHH@Z 004d7880 f   mminput:joyman.obj
 0001:000d68b0       ?QJoystick@mmJoyMan@@QAEHXZ 004d78b0 f   mminput:joyman.obj
 0001:000d68c0       ?Update@mmJoyMan@@QAEXXZ   004d78c0 f   mminput:joyman.obj
 0001:000d68f0       ?GetJoyAxis@mmJoyMan@@QAEMHH@Z 004d78f0 f   mminput:joyman.obj
 0001:000d6930       ?GetJoyButton@mmJoyMan@@QAEHHH@Z 004d7930 f   mminput:joyman.obj
 0001:000d6980       ?PollJoyButtons@mmJoyMan@@QAEHXZ 004d7980 f   mminput:joyman.obj
 0001:000d69e0       ?PollJoyAxes@mmJoyMan@@QAEHXZ 004d79e0 f   mminput:joyman.obj
 0001:000d6a20       ?SetCapture@mmJoyMan@@QAEXH@Z 004d7a20 f   mminput:joyman.obj
 0001:000d6a90       ?GetOneButton@mmJoyMan@@QAEHJ@Z 004d7a90 f   mminput:joyman.obj
 0001:000d6ac0       ?GetFFEffect@mmJoyMan@@QAEPAVmmEffectFF@@H@Z 004d7ac0 f   mminput:joyman.obj
 0001:000d6af0       ?ToggleEnabled@mmJoyMan@@QAEHH@Z 004d7af0 f   mminput:joyman.obj
 0001:000d6b30       ?FFPlay@mmJoyMan@@QAEHH@Z  004d7b30 f   mminput:joyman.obj
 0001:000d6b60       ?FFStop@mmJoyMan@@QAEHH@Z  004d7b60 f   mminput:joyman.obj
 0001:000d6b90       ?FFIsPlaying@mmJoyMan@@QAEHH@Z 004d7b90 f   mminput:joyman.obj
 0001:000d6bc0       ?FFSetValues@mmJoyMan@@QAEHHMM@Z 004d7bc0 f   mminput:joyman.obj
 0001:000d6c00       ?StopAllFF@mmJoyMan@@QAEXXZ 004d7c00 f   mminput:joyman.obj
 0001:000d6c20       ?HasCoolie@mmJoyMan@@QAEHXZ 004d7c20 f   mminput:joyman.obj
 0001:000d6c40       ?HasThrottle@mmJoyMan@@QAEHXZ 004d7c40 f   mminput:joyman.obj
 0001:000d6c60       ??_EmmJoystick@@QAEPAXI@Z  004d7c60 f i mminput:joyman.obj
 0001:000d6cc0       ??0mmJaxis@@QAE@XZ         004d7cc0 f   mminput:joystick.obj
 0001:000d6ce0       ??1mmJaxis@@QAE@XZ         004d7ce0 f   mminput:joystick.obj
 0001:000d6cf0       ?SetRange@mmJaxis@@QAEXMM@Z 004d7cf0 f   mminput:joystick.obj
 0001:000d6d10       ?Normalize@mmJaxis@@QAEXM@Z 004d7d10 f   mminput:joystick.obj
 0001:000d6d30       ?NormalizePOV@mmJaxis@@QAEXK@Z 004d7d30 f   mminput:joystick.obj
 0001:000d6d70       ?Capture@mmJaxis@@QAEHXZ   004d7d70 f   mminput:joystick.obj
 0001:000d6da0       ?ResetCapture@mmJaxis@@QAEXXZ 004d7da0 f   mminput:joystick.obj
 0001:000d6dc0       ??0mmJoystick@@QAE@XZ      004d7dc0 f   mminput:joystick.obj
 0001:000d6e80       ??1mmJoystick@@QAE@XZ      004d7e80 f   mminput:joystick.obj
 0001:000d6fa0       ?Init@mmJoystick@@QAEHPAUIDirectInputDevice2A@@PAUHWND__@@@Z 004d7fa0 f   mminput:joystick.obj
 0001:000d70b0       ?inputPrepareDevice@mmJoystick@@QAEHXZ 004d80b0 f   mminput:joystick.obj
 0001:000d7260       ?SetDeadZone@mmJoystick@@QAEHM@Z 004d8260 f   mminput:joystick.obj
 0001:000d7300       ?DisableAutoCenter@mmJoystick@@QAEHXZ 004d8300 f   mminput:joystick.obj
 0001:000d7360       ?Poll@mmJoystick@@QAEKXZ   004d8360 f   mminput:joystick.obj
 0001:000d7490       ?GetAxis@mmJoystick@@QAEMH@Z 004d8490 f   mminput:joystick.obj
 0001:000d7590       ?GetButton@mmJoystick@@QAEMH@Z 004d8590 f   mminput:joystick.obj
 0001:000d75c0       ?Update@mmJoystick@@QAEXXZ 004d85c0 f   mminput:joystick.obj
 0001:000d7650       ?ResetAxisCapture@mmJoystick@@QAEXXZ 004d8650 f   mminput:joystick.obj
 0001:000d76d0       ?InputCreateEffect@mmJoystick@@QAEXXZ 004d86d0 f   mminput:joystick.obj
 0001:000d77f0       ?InputInitEffect@mmJoystick@@QAEXXZ 004d87f0 f   mminput:joystick.obj
 0001:000d7830       ?InputStopEffect@mmJoystick@@QAEXXZ 004d8830 f   mminput:joystick.obj
 0001:000d7870       ?SetShake@mmJoystick@@QAEHKK@Z 004d8870 f   mminput:joystick.obj
 0001:000d78a0       ?PlayShake@mmJoystick@@QAEHXZ 004d88a0 f   mminput:joystick.obj
 0001:000d78c0       ?StopShake@mmJoystick@@QAEHXZ 004d88c0 f   mminput:joystick.obj
 0001:000d78e0       ?PlayCollision@mmJoystick@@QAEHXZ 004d88e0 f   mminput:joystick.obj
 0001:000d7900       ?SetSteer@mmJoystick@@QAEHJ@Z 004d8900 f   mminput:joystick.obj
 0001:000d7920       ?PlaySteer@mmJoystick@@QAEHXZ 004d8920 f   mminput:joystick.obj
 0001:000d7940       ?StopSteer@mmJoystick@@QAEHXZ 004d8940 f   mminput:joystick.obj
 0001:000d7960       ?SetFriction@mmJoystick@@QAEHJ@Z 004d8960 f   mminput:joystick.obj
 0001:000d7980       ?PlayFriction@mmJoystick@@QAEHXZ 004d8980 f   mminput:joystick.obj
 0001:000d79a0       ?StopFriction@mmJoystick@@QAEHXZ 004d89a0 f   mminput:joystick.obj
 0001:000d79c0       ?GetFFEffect@mmJoystick@@QAEPAVmmEffectFF@@H@Z 004d89c0 f   mminput:joystick.obj
 0001:000d7a10       ?PrintDeviceCaps@mmJoystick@@QAEXXZ 004d8a10 f   mminput:joystick.obj
 0001:000d7bf0       ?DecodeDIErrorMFlag@@YAXJ@Z 004d8bf0 f   mminput:joystick.obj
 0001:000d7f50       ?AngelReadKeyString@@YAPAULocString@@I@Z 004d8f50 f   mminput:localize.obj
 0001:000d7f90       ?inputEnumEffectTypeProc@@YGHPBUDIEFFECTINFOA@@PAX@Z 004d8f90 f   mminput:effect.obj
 0001:000d7ff0       ??0mmEffectFF@@QAE@XZ      004d8ff0 f   mminput:effect.obj
 0001:000d8060       ??1mmEffectFF@@QAE@XZ      004d9060 f   mminput:effect.obj
 0001:000d8080       ?Play@mmEffectFF@@UAEHXZ   004d9080 f i mminput:effect.obj
 0001:000d8090       ?Stop@mmEffectFF@@UAEHXZ   004d9090 f i mminput:effect.obj
 0001:000d80a0       ?SetValues@mmEffectFF@@UAEHMM@Z 004d90a0 f i mminput:effect.obj
 0001:000d80b0       ?Init@mmCollideFF@@UAEHPAUIDirectInputDevice2A@@@Z 004d90b0 f   mminput:collide.obj
 0001:000d8270       ?SetValues@mmCollideFF@@UAEHMM@Z 004d9270 f   mminput:collide.obj
 0001:000d82a0       ?Assign@mmCollideFF@@QAEHJJ@Z 004d92a0 f   mminput:collide.obj
 0001:000d83a0       ?Play@mmCollideFF@@UAEHXZ  004d93a0 f   mminput:collide.obj
 0001:000d83f0       ?Stop@mmCollideFF@@UAEHXZ  004d93f0 f   mminput:collide.obj
 0001:000d8400       ?Init@mmRoadFF@@UAEHPAUIDirectInputDevice2A@@@Z 004d9400 f   mminput:road.obj
 0001:000d8500       ?SetValues@mmRoadFF@@UAEHMM@Z 004d9500 f   mminput:road.obj
 0001:000d8530       ?Assign@mmRoadFF@@QAEHJJ@Z 004d9530 f   mminput:road.obj
 0001:000d8620       ?Play@mmRoadFF@@UAEHXZ     004d9620 f   mminput:road.obj
 0001:000d8690       ?Stop@mmRoadFF@@UAEHXZ     004d9690 f   mminput:road.obj
 0001:000d86e0       ?Init@mmFrictionFF@@UAEHPAUIDirectInputDevice2A@@@Z 004d96e0 f   mminput:friction.obj
 0001:000d87f0       ?SetValues@mmFrictionFF@@UAEHMM@Z 004d97f0 f   mminput:friction.obj
 0001:000d8820       ?Assign@mmFrictionFF@@QAEHJ@Z 004d9820 f   mminput:friction.obj
 0001:000d88f0       ?Play@mmFrictionFF@@UAEHXZ 004d98f0 f   mminput:friction.obj
 0001:000d8950       ?Stop@mmFrictionFF@@UAEHXZ 004d9950 f   mminput:friction.obj
 0001:000d8990       ?Init@mmSpringFF@@UAEHPAUIDirectInputDevice2A@@@Z 004d9990 f   mminput:spring.obj
 0001:000d8a90       ?SetValues@mmSpringFF@@UAEHMM@Z 004d9a90 f   mminput:spring.obj
 0001:000d8ac0       ?Assign@mmSpringFF@@QAEHJ@Z 004d9ac0 f   mminput:spring.obj
 0001:000d8bb0       ?Play@mmSpringFF@@UAEHXZ   004d9bb0 f   mminput:spring.obj
 0001:000d8c20       ?Stop@mmSpringFF@@UAEHXZ   004d9c20 f   mminput:spring.obj
 0001:000d8c60       ??0AudManager@@QAE@XZ      004d9c60 f   mmaudio:manager.obj
 0001:000d8da0       ??1AudManager@@UAE@XZ      004d9da0 f   mmaudio:manager.obj
 0001:000d8ee0       ?DeallocateADFRecord@AudManager@@QAEXH@Z 004d9ee0 f   mmaudio:manager.obj
 0001:000d8f10       ?SetNumChannels@AudManager@@QAEXH@Z 004d9f10 f   mmaudio:manager.obj
 0001:000d8fd0       ?CheckPriority@AudManager@@QAEHHHH@Z 004d9fd0 f   mmaudio:manager.obj
 0001:000d9240       ?RemoveSoundFromPlayList@AudManager@@QAEXPAVAudSound@@@Z 004da240 f   mmaudio:manager.obj
 0001:000d9280       ?RemoveSoundFromPlayList@AudManager@@QAEXH@Z 004da280 f   mmaudio:manager.obj
 0001:000d92d0       ?Update@AudManager@@UAEXXZ 004da2d0 f   mmaudio:manager.obj
 0001:000d9300       ?Init@AudManager@@QAEXHIPADFF@Z 004da300 f   mmaudio:manager.obj
 0001:000d9430       ?LoadUIADF@AudManager@@QAEXXZ 004da430 f   mmaudio:manager.obj
 0001:000d9490       ?LoadCityADF@AudManager@@QAEXHK@Z 004da490 f   mmaudio:manager.obj
 0001:000d9540       ?InitCityADF@AudManager@@QAEXHK@Z 004da540 f   mmaudio:manager.obj
 0001:000d95f0       ?InitUIADF@AudManager@@QAEXHK@Z 004da5f0 f   mmaudio:manager.obj
 0001:000d9680       ?DeallocateUIADF@AudManager@@QAEXXZ 004da680 f   mmaudio:manager.obj
 0001:000d9690       ?DeallocateCityADF@AudManager@@QAEXXZ 004da690 f   mmaudio:manager.obj
 0001:000d96a0       ?DeallocateDSound@AudManager@@QAEXFF@Z 004da6a0 f   mmaudio:manager.obj
 0001:000d9810       ?ReallocateDSound@AudManager@@QAEXPADFF@Z 004da810 f   mmaudio:manager.obj
 0001:000d9990       ?SetStereo@AudManager@@QAEXH@Z 004da990 f   mmaudio:manager.obj
 0001:000d99c0       ?AttenuateAudSounds@AudManager@@QAEXM@Z 004da9c0 f   mmaudio:manager.obj
 0001:000d9a20       ?AddSound@AudManager@@QAEHPAVAudSound@@@Z 004daa20 f   mmaudio:manager.obj
 0001:000d9a80       ?AddStream@AudManager@@QAEHPAVAudStream@@@Z 004daa80 f   mmaudio:manager.obj
 0001:000d9ad0       ?RemoveSound@AudManager@@QAEXPAVAudSound@@H@Z 004daad0 f   mmaudio:manager.obj
 0001:000d9b40       ?RemoveStream@AudManager@@QAEXPAVAudStream@@H@Z 004dab40 f   mmaudio:manager.obj
 0001:000d9bb0       ?Reset@AudManager@@UAEXXZ  004dabb0 f   mmaudio:manager.obj
 0001:000d9bc0       ?Enable@AudManager@@QAEXPADFF@Z 004dabc0 f   mmaudio:manager.obj
 0001:000d9c70       ?Disable@AudManager@@QAEXFF@Z 004dac70 f   mmaudio:manager.obj
 0001:000d9d60       ?StopAllSounds@AudManager@@QAEXXZ 004dad60 f   mmaudio:manager.obj
 0001:000d9df0       ?ZeroVolAllSounds@AudManager@@QAEXXZ 004dadf0 f   mmaudio:manager.obj
 0001:000d9e00       ?PlayCDTrack@AudManager@@QAEHHH@Z 004dae00 f   mmaudio:manager.obj
 0001:000d9e80       ?PlayCDTrack@AudManager@@QAEHHEEEH@Z 004dae80 f   mmaudio:manager.obj
 0001:000d9f10       ?ResumeCDPlay@AudManager@@QAEHXZ 004daf10 f   mmaudio:manager.obj
 0001:000d9f30       ?GetNumCDTracks@AudManager@@QAEFXZ 004daf30 f   mmaudio:manager.obj
 0001:000d9f50       ?GetCDTrackNum@AudManager@@QAEEXZ 004daf50 f   mmaudio:manager.obj
 0001:000d9f70       ?CDIsPlaying@AudManager@@QAEFXZ 004daf70 f   mmaudio:manager.obj
 0001:000d9f90       ?DisableCD@AudManager@@QAEXXZ 004daf90 f   mmaudio:manager.obj
 0001:000d9fb0       ?StopCD@AudManager@@QAEXXZ 004dafb0 f   mmaudio:manager.obj
 0001:000d9fd0       ?EnableCD@AudManager@@QAEHXZ 004dafd0 f   mmaudio:manager.obj
 0001:000da000       ?AssignWaveVolume@AudManager@@QAEXM@Z 004db000 f   mmaudio:manager.obj
 0001:000da020       ?GetWaveVolume@AudManager@@QAEMXZ 004db020 f   mmaudio:manager.obj
 0001:000da040       ?AssignCDVolume@AudManager@@QAEXM@Z 004db040 f   mmaudio:manager.obj
 0001:000da080       ?SetCDPlayMode@AudManager@@QAEXE@Z 004db080 f   mmaudio:manager.obj
 0001:000da0b0       ?CDIsEnabled@AudManager@@QAEHXZ 004db0b0 f   mmaudio:manager.obj
 0001:000da0d0       ?GetCDVolume@AudManager@@QAEMXZ 004db0d0 f   mmaudio:manager.obj
 0001:000da100       ?AttenuateCDVolume@AudManager@@QAEXM@Z 004db100 f   mmaudio:manager.obj
 0001:000da140       ?AssignWaveBalance@AudManager@@QAEXM@Z 004db140 f   mmaudio:manager.obj
 0001:000da160       ?GetWaveBalance@AudManager@@QAEMXZ 004db160 f   mmaudio:manager.obj
 0001:000da180       ?AssignCDBalance@AudManager@@QAEXM@Z 004db180 f   mmaudio:manager.obj
 0001:000da1a0       ?GetCDBalance@AudManager@@QAEMXZ 004db1a0 f   mmaudio:manager.obj
 0001:000da1d0       ?IsStereo@AudManager@@QAEHXZ 004db1d0 f   mmaudio:manager.obj
 0001:000da1e0       ?AddWidgets@AudManager@@QAEXPAVBank@@@Z 004db1e0 f   mmaudio:manager.obj
 0001:000da1f0       ?Supports16Bit@AudManager@@QAEFXZ 004db1f0 f   mmaudio:manager.obj
 0001:000da200       ?CheckCDFile@AudManager@@QAEEPAD@Z 004db200 f   mmaudio:manager.obj
 0001:000da220       ?Update3DCDMusic@AudManager@@AAEXXZ 004db220 f   mmaudio:manager.obj
 0001:000da380       ?GetUsingEAXMask@AudManager@@SA?BIXZ 004db380 f   mmaudio:manager.obj
 0001:000da390       ?IsAlwaysEAX@AudManager@@QAEIXZ 004db390 f   mmaudio:manager.obj
 0001:000da3a0       ?AlwaysEAX@AudManager@@QAEXI@Z 004db3a0 f   mmaudio:manager.obj
 0001:000da3d0       ?EAXEnabled@AudManager@@QAEIXZ 004db3d0 f   mmaudio:manager.obj
 0001:000da3e0       ?DSound3DEnabled@AudManager@@QAEIXZ 004db3e0 f   mmaudio:manager.obj
 0001:000da3f0       ?CreateListenerSoundObj@AudManager@@AAEIXZ 004db3f0 f   mmaudio:manager.obj
 0001:000da530       ?GetListenerEAXObj@AudManager@@AAEPAVCReverb@@XZ 004db530 f   mmaudio:manager.obj
 0001:000da540       ?SetEAXPreset@AudManager@@QAEHKMMM@Z 004db540 f   mmaudio:manager.obj
 0001:000da5c0       ?SetEAXPreset@AudManager@@QAEHPAUEAX_REVERBPROPERTIES@@@Z 004db5c0 f   mmaudio:manager.obj
 0001:000da630       ?GetEAXAll@AudManager@@QAEXPAUEAX_REVERBPROPERTIES@@@Z 004db630 f   mmaudio:manager.obj
 0001:000da680       ?SetEAXEnvironmet@AudManager@@QAEHK@Z 004db680 f   mmaudio:manager.obj
 0001:000da6f0       ?GetEAXEnvironmet@AudManager@@QAEKXZ 004db6f0 f   mmaudio:manager.obj
 0001:000da740       ?SetEAXReverbVolume@AudManager@@QAEHM@Z 004db740 f   mmaudio:manager.obj
 0001:000da7b0       ?GetEAXReverbVolume@AudManager@@QAEMXZ 004db7b0 f   mmaudio:manager.obj
 0001:000da800       ?SetEAXDecayTime@AudManager@@QAEHM@Z 004db800 f   mmaudio:manager.obj
 0001:000da870       ?GetEAXDecayTime@AudManager@@QAEMXZ 004db870 f   mmaudio:manager.obj
 0001:000da8c0       ?SetEAXDamping@AudManager@@QAEHM@Z 004db8c0 f   mmaudio:manager.obj
 0001:000da930       ?GetEAXDamping@AudManager@@QAEMXZ 004db930 f   mmaudio:manager.obj
 0001:000da980       ?UpdatePaused@AudManager@@UAEXXZ 004db980 f   mmaudio:manager.obj
 0001:000da9a0       ?SetBitDepthAndSampleRate@AudManager@@QAEXHK@Z 004db9a0 f   mmaudio:manager.obj
 0001:000daa30       ?GetDeviceNames@AudManager@@QAEPAPADXZ 004dba30 f   mmaudio:manager.obj
 0001:000daa50       ?GetNumDevices@AudManager@@QAEHXZ 004dba50 f   mmaudio:manager.obj
 0001:000daa70       ?GetActiveDeviceName@AudManager@@QAEPADXZ 004dba70 f   mmaudio:manager.obj
 0001:000daa90       ?GetNum3DHalBufs@AudManager@@QAEKXZ 004dba90 f   mmaudio:manager.obj
 0001:000daaa0       ?GetStereoOnMask@AudManager@@SA?BIXZ 004dbaa0 f   mmaudio:manager.obj
 0001:000daab0       ?GetHiResMask@AudManager@@SA?BIXZ 004dbab0 f   mmaudio:manager.obj
 0001:000daac0       ?GetHiSampleSizeMask@AudManager@@SA?BIXZ 004dbac0 f   mmaudio:manager.obj
 0001:000daad0       ?GetEchoOnMask@AudManager@@SA?BIXZ 004dbad0 f   mmaudio:manager.obj
 0001:000daae0       ?GetDSound3DMask@AudManager@@SA?BIXZ 004dbae0 f   mmaudio:manager.obj
 0001:000daaf0       ?GetSoundFXOnMask@AudManager@@SA?BIXZ 004dbaf0 f   mmaudio:manager.obj
 0001:000dab00       ?GetCDMusicOnMask@AudManager@@SA?BIXZ 004dbb00 f   mmaudio:manager.obj
 0001:000dab10       ?GetCommentaryOnMask@AudManager@@SA?BIXZ 004dbb10 f   mmaudio:manager.obj
 0001:000dab20       ?SetDeviceName@AudManager@@QAEXPAD@Z 004dbb20 f   mmaudio:manager.obj
 0001:000dab60       ?GetCDPosition@AudManager@@QAEKPAE000@Z 004dbb60 f   mmaudio:manager.obj
 0001:000daba0       ?GetMixerPtr@AudManager@@QAEPAVMixerCTL@@XZ 004dbba0 f   mmaudio:manager.obj
 0001:000dabb0       ?GetVoiceCommentaryPtr@AudManager@@QAEPAVmmVoiceCommentary@@XZ 004dbbb0 f   mmaudio:manager.obj
 0001:000dabc0       ?SetVoiceCommentaryPtr@AudManager@@QAEXPAVmmVoiceCommentary@@@Z 004dbbc0 f   mmaudio:manager.obj
 0001:000dabd0       ?DeactivateApplication@@YAXXZ 004dbbd0 f   mmaudio:manager.obj
 0001:000dac10       ?RestoreApplication@@YAXXZ 004dbc10 f   mmaudio:manager.obj
 0001:000dac40       ?DeclareFields@AudManager@@SAXXZ 004dbc40 f   mmaudio:manager.obj
 0001:000dadb0       ?GetClass@AudManager@@UAEPAVMetaClass@@XZ 004dbdb0 f   mmaudio:manager.obj
 0001:000dadc0       ??_EAudManager@@UAEPAXI@Z  004dbdc0 f i mmaudio:manager.obj
 0001:000dae20       ??0AudHead@@QAE@PAVMatrix34@@@Z 004dbe20 f   mmaudio:head.obj
 0001:000dae70       ??1AudHead@@UAE@XZ         004dbe70 f   mmaudio:head.obj
 0001:000dae80       ?Init@AudHead@@QAEHXZ      004dbe80 f   mmaudio:head.obj
 0001:000daed0       ?Update@AudHead@@EAEXXZ    004dbed0 f   mmaudio:head.obj
 0001:000db050       ?WidgetSetRolloff@AudHead@@QAEXXZ 004dc050 f   mmaudio:head.obj
 0001:000db060       ?SetRolloff@AudHead@@QAEXM@Z 004dc060 f   mmaudio:head.obj
 0001:000db0c0       ?SetDoppler@AudHead@@QAEXM@Z 004dc0c0 f   mmaudio:head.obj
 0001:000db120       ?GetPositionPtr@AudHead@@QAEPAVVector3@@XZ 004dc120 f   mmaudio:head.obj
 0001:000db130       ?SetHeadPtr@AudHead@@QAEXPAVMatrix34@@@Z 004dc130 f   mmaudio:head.obj
 0001:000db140       ?GetHeadPtr@AudHead@@QAEPAVMatrix34@@XZ 004dc140 f   mmaudio:head.obj
 0001:000db150       ??_GAudHead@@UAEPAXI@Z     004dc150 f i mmaudio:head.obj
 0001:000db150       ??_EAudHead@@UAEPAXI@Z     004dc150 f i mmaudio:head.obj
 0001:000db180       ??0mmVoiceCommentary@@QAE@XZ 004dc180 f   mmaudio:mmvoicecommentary.obj
 0001:000db220       ??1mmVoiceCommentary@@QAE@XZ 004dc220 f   mmaudio:mmvoicecommentary.obj
 0001:000db240       ?ValidateCity@mmVoiceCommentary@@QAEXPAD@Z 004dc240 f   mmaudio:mmvoicecommentary.obj
 0001:000db280       ?SetFrequency@mmVoiceCommentary@@QAEXM@Z 004dc280 f   mmaudio:mmvoicecommentary.obj
 0001:000db2a0       ?Stop@mmVoiceCommentary@@QAEXXZ 004dc2a0 f   mmaudio:mmvoicecommentary.obj
 0001:000db2b0       ?StopNow@mmVoiceCommentary@@QAEXXZ 004dc2b0 f   mmaudio:mmvoicecommentary.obj
 0001:000db300       ?PlayAirBorne@mmVoiceCommentary@@QAEXXZ 004dc300 f   mmaudio:mmvoicecommentary.obj
 0001:000db370       ?PlayRoam@mmVoiceCommentary@@QAEXXZ 004dc370 f   mmaudio:mmvoicecommentary.obj
 0001:000db3e0       ?PlayCheckPoint@mmVoiceCommentary@@QAEXXZ 004dc3e0 f   mmaudio:mmvoicecommentary.obj
 0001:000db430       ?PlayFinalCheckPoint@mmVoiceCommentary@@QAEXXZ 004dc430 f   mmaudio:mmvoicecommentary.obj
 0001:000db4a0       ?PlayLap@mmVoiceCommentary@@QAEXF@Z 004dc4a0 f   mmaudio:mmvoicecommentary.obj
 0001:000db4b0       ?PlayFinalLap@mmVoiceCommentary@@QAEXXZ 004dc4b0 f   mmaudio:mmvoicecommentary.obj
 0001:000db520       ?Play@mmVoiceCommentary@@QAEXPAD@Z 004dc520 f   mmaudio:mmvoicecommentary.obj
 0001:000db570       ?PlayPreRace@mmVoiceCommentary@@QAEXXZ 004dc570 f   mmaudio:mmvoicecommentary.obj
 0001:000db5e0       ?GetRandomPreRace@mmVoiceCommentary@@QAEPADXZ 004dc5e0 f   mmaudio:mmvoicecommentary.obj
 0001:000db760       ?GetRandomPreBlitz@mmVoiceCommentary@@QAEPADXZ 004dc760 f   mmaudio:mmvoicecommentary.obj
 0001:000db840       ?GetRandomPreCircuit@mmVoiceCommentary@@QAEPADXZ 004dc840 f   mmaudio:mmvoicecommentary.obj
 0001:000db920       ?GetRandomPreCheckPoint@mmVoiceCommentary@@QAEPADXZ 004dc920 f   mmaudio:mmvoicecommentary.obj
 0001:000dba30       ?PlayWinResults@mmVoiceCommentary@@QAEXXZ 004dca30 f   mmaudio:mmvoicecommentary.obj
 0001:000dbaa0       ?PlayMidResults@mmVoiceCommentary@@QAEXXZ 004dcaa0 f   mmaudio:mmvoicecommentary.obj
 0001:000dbb10       ?PlayResults@mmVoiceCommentary@@QAEXF@Z 004dcb10 f   mmaudio:mmvoicecommentary.obj
 0001:000dbb80       ?GetRandomResults@mmVoiceCommentary@@QAEPADF@Z 004dcb80 f   mmaudio:mmvoicecommentary.obj
 0001:000dbc60       ?GetRandomPreRaceVeh@mmVoiceCommentary@@QAEPADXZ 004dcc60 f   mmaudio:mmvoicecommentary.obj
 0001:000dbcc0       ?GetRandomResultsWin@mmVoiceCommentary@@QAEPADXZ 004dccc0 f   mmaudio:mmvoicecommentary.obj
 0001:000dbe60       ?GetRandomResultsPoor@mmVoiceCommentary@@QAEPADXZ 004dce60 f   mmaudio:mmvoicecommentary.obj
 0001:000dc000       ?GetRandomResultsMid@mmVoiceCommentary@@QAEPADXZ 004dd000 f   mmaudio:mmvoicecommentary.obj
 0001:000dc1a0       ?GetRandomTOD@mmVoiceCommentary@@QAEPADXZ 004dd1a0 f   mmaudio:mmvoicecommentary.obj
 0001:000dc200       ?GetRandomWeather@mmVoiceCommentary@@QAEPADXZ 004dd200 f   mmaudio:mmvoicecommentary.obj
 0001:000dc2a0       ?CatName@mmVoiceCommentary@@QAEPADPADHH@Z 004dd2a0 f   mmaudio:mmvoicecommentary.obj
 0001:000dc4a0       ?GetLapName@mmVoiceCommentary@@QAEPADF@Z 004dd4a0 f   mmaudio:mmvoicecommentary.obj
 0001:000dc560       ?PlayNetworkPreRace@mmVoiceCommentary@@QAEXXZ 004dd560 f   mmaudio:mmvoicecommentary.obj
 0001:000dc5d0       ?PlayCRPreRace@mmVoiceCommentary@@QAEXXZ 004dd5d0 f   mmaudio:mmvoicecommentary.obj
 0001:000dc6d0       ?PlayCollision@mmVoiceCommentary@@QAEXXZ 004dd6d0 f   mmaudio:mmvoicecommentary.obj
 0001:000dc740       ?PlayCR@mmVoiceCommentary@@QAEXFF@Z 004dd740 f   mmaudio:mmvoicecommentary.obj
 0001:000dc7d0       ?PlayTeamCR@mmVoiceCommentary@@QAEXFF@Z 004dd7d0 f   mmaudio:mmvoicecommentary.obj
 0001:000dc840       ?GetRandomRobber@mmVoiceCommentary@@QAEPADF@Z 004dd840 f   mmaudio:mmvoicecommentary.obj
 0001:000dc8c0       ?GetRandomRedCR@mmVoiceCommentary@@QAEPADF@Z 004dd8c0 f   mmaudio:mmvoicecommentary.obj
 0001:000dc940       ?GetRandomBlueCR@mmVoiceCommentary@@QAEPADF@Z 004dd940 f   mmaudio:mmvoicecommentary.obj
 0001:000dc9c0       ?GetRandomCop@mmVoiceCommentary@@QAEPADF@Z 004dd9c0 f   mmaudio:mmvoicecommentary.obj
 0001:000dca40       ?PlayOpponentFinish@mmVoiceCommentary@@QAEXF@Z 004dda40 f   mmaudio:mmvoicecommentary.obj
 0001:000dcba0       ?PlayTimePenalty@mmVoiceCommentary@@QAEXXZ 004ddba0 f   mmaudio:mmvoicecommentary.obj
 0001:000dcc70       ?PlayEndRaceDamage@mmVoiceCommentary@@QAEXXZ 004ddc70 f   mmaudio:mmvoicecommentary.obj
 0001:000dcce0       ?PlayUnlock@mmVoiceCommentary@@QAEXH@Z 004ddce0 f   mmaudio:mmvoicecommentary.obj
 0001:000dcd30       ?PlayGTUnlocked@mmVoiceCommentary@@QAEXXZ 004ddd30 f   mmaudio:mmvoicecommentary.obj
 0001:000dcd90       ?PlayBusUnlocked@mmVoiceCommentary@@QAEXXZ 004ddd90 f   mmaudio:mmvoicecommentary.obj
 0001:000dcdf0       ?PlayCopCarUnlocked@mmVoiceCommentary@@QAEXXZ 004dddf0 f   mmaudio:mmvoicecommentary.obj
 0001:000dcef0       ?PlayBulletUnlocked@mmVoiceCommentary@@QAEXXZ 004ddef0 f   mmaudio:mmvoicecommentary.obj
 0001:000dcf50       ?PlaySemiUnlocked@mmVoiceCommentary@@QAEXXZ 004ddf50 f   mmaudio:mmvoicecommentary.obj
 0001:000dcfb0       ?PlayNextRacesUnlocked@mmVoiceCommentary@@QAEXXZ 004ddfb0 f   mmaudio:mmvoicecommentary.obj
 0001:000dd080       ?Update@mmVoiceCommentary@@QAEXXZ 004de080 f   mmaudio:mmvoicecommentary.obj
 0001:000dd150       ??0AudSound@@QAE@KHF@Z     004de150 f   mmaudio:sound.obj
 0001:000dd420       ??1AudSound@@UAE@XZ        004de420 f   mmaudio:sound.obj
 0001:000dd560       ?SetPriority@AudSound@@QAEXH@Z 004de560 f   mmaudio:sound.obj
 0001:000dd580       ?DeallocateSoundObjs@AudSound@@QAEXXZ 004de580 f   mmaudio:sound.obj
 0001:000dd5e0       ?ReallocateSoundObjs@AudSound@@QAEXXZ 004de5e0 f   mmaudio:sound.obj
 0001:000dd7c0       ?Load@AudSound@@QAEHPADH@Z 004de7c0 f   mmaudio:sound.obj
 0001:000dda10       ?Load@AudSound@@QAEHHH@Z   004dea10 f   mmaudio:sound.obj
 0001:000ddc00       ?EnabledAction@AudSound@@QAEXXZ 004dec00 f   mmaudio:sound.obj
 0001:000ddc20       ?Enable@AudSound@@QAEXXZ   004dec20 f   mmaudio:sound.obj
 0001:000ddc30       ?Disable@AudSound@@QAEXXZ  004dec30 f   mmaudio:sound.obj
 0001:000ddc50       ?Reset@AudSound@@UAEXXZ    004dec50 f   mmaudio:sound.obj
 0001:000ddc60       ?Update@AudSound@@UAEXXZ   004dec60 f   mmaudio:sound.obj
 0001:000ddcf0       ?Update3DSettings@AudSound@@QAEXXZ 004decf0 f   mmaudio:sound.obj
 0001:000ddeb0       ?SetPlayPosition@AudSound@@QAEXK@Z 004deeb0 f   mmaudio:sound.obj
 0001:000ddee0       ?PlayOnce@AudSound@@QAEXMM@Z 004deee0 f   mmaudio:sound.obj
 0001:000ddfc0       ?PlayLoop@AudSound@@QAEXMM@Z 004defc0 f   mmaudio:sound.obj
 0001:000de0a0       ?Stop@AudSound@@QAEXXZ     004df0a0 f   mmaudio:sound.obj
 0001:000de0e0       ?StopEchoBuffers@AudSound@@QAEXXZ 004df0e0 f   mmaudio:sound.obj
 0001:000de100       ?SetFrequency@AudSound@@QAEXMH@Z 004df100 f   mmaudio:sound.obj
 0001:000de180       ?GetFrequency@AudSound@@QAEMH@Z 004df180 f   mmaudio:sound.obj
 0001:000de1c0       ?SetVolume@AudSound@@QAEXMH@Z 004df1c0 f   mmaudio:sound.obj
 0001:000de240       ?SetEAXReverbMix@AudSound@@QAEXMH@Z 004df240 f   mmaudio:sound.obj
 0001:000de2a0       ?GetEAXReverbMix@AudSound@@QAEMH@Z 004df2a0 f   mmaudio:sound.obj
 0001:000de300       ?SetPan@AudSound@@QAEXMH@Z 004df300 f   mmaudio:sound.obj
 0001:000de390       ?SetEchoPan@AudSound@@QAEXM@Z 004df390 f   mmaudio:sound.obj
 0001:000de3f0       ?SetEchoFrequency@AudSound@@QAEXMH@Z 004df3f0 f   mmaudio:sound.obj
 0001:000de460       ?SetRamp@AudSound@@QAEXMM@Z 004df460 f   mmaudio:sound.obj
 0001:000de540       ?Set3DMode@AudSound@@QAEXK@Z 004df540 f   mmaudio:sound.obj
 0001:000de570       ?IsPlaying@AudSound@@QAEHH@Z 004df570 f   mmaudio:sound.obj
 0001:000de5a0       ?GetSampleTime@AudSound@@QAEMXZ 004df5a0 f   mmaudio:sound.obj
 0001:000de5c0       ?SetConeAngles@AudSound@@QAEXKK@Z 004df5c0 f   mmaudio:sound.obj
 0001:000de5f0       ?SetConeOutsideVolume@AudSound@@QAEXJ@Z 004df5f0 f   mmaudio:sound.obj
 0001:000de620       ?SetConeOrientation@AudSound@@QAEXPAVVector3@@@Z 004df620 f   mmaudio:sound.obj
 0001:000de650       ?SetEchoAttenuation@AudSound@@QAEXM@Z 004df650 f   mmaudio:sound.obj
 0001:000de690       ?EchoPending@AudSound@@QAEEXZ 004df690 f   mmaudio:sound.obj
 0001:000de6b0       ?SetChorusAttenuation@AudSound@@QAEXM@Z 004df6b0 f   mmaudio:sound.obj
 0001:000de6f0       ?SetChorusPitchMult@AudSound@@QAEXM@Z 004df6f0 f   mmaudio:sound.obj
 0001:000de730       ?SetChorusPitchMult@AudSound@@QAEXMM@Z 004df730 f   mmaudio:sound.obj
 0001:000de780       ?SetDelayTime@AudSound@@QAEXM@Z 004df780 f   mmaudio:sound.obj
 0001:000de7d0       ?SetupOneShotLayerBuffers@AudSound@@QAEXHMH@Z 004df7d0 f   mmaudio:sound.obj
 0001:000de840       ?ReadyOneShotLayerBuf@AudSound@@QAEHXZ 004df840 f   mmaudio:sound.obj
 0001:000de870       ?AllOneShotLayersPlaying@AudSound@@QAEHXZ 004df870 f   mmaudio:sound.obj
 0001:000de8a0       ?GetEffect@AudSound@@QAEHXZ 004df8a0 f   mmaudio:sound.obj
 0001:000de8c0       ?SetEffect@AudSound@@QAEXH@Z 004df8c0 f   mmaudio:sound.obj
 0001:000de930       ?DisableEffect@AudSound@@QAEXH@Z 004df930 f   mmaudio:sound.obj
 0001:000de980       ?Get2DFlags@AudSound@@SA?BKXZ 004df980 f   mmaudio:sound.obj
 0001:000de9a0       ?GetSoft2DFlags@AudSound@@SA?BKXZ 004df9a0 f   mmaudio:sound.obj
 0001:000de9c0       ?GetFreqChange2DFlags@AudSound@@SA?BKXZ 004df9c0 f   mmaudio:sound.obj
 0001:000de9e0       ?GetSoftFreqChange2DFlags@AudSound@@SA?BKXZ 004df9e0 f   mmaudio:sound.obj
 0001:000dea00       ?Get3DFlags@AudSound@@SA?BKXZ 004dfa00 f   mmaudio:sound.obj
 0001:000dea10       ?GetFreqChange3DFlags@AudSound@@SA?BKXZ 004dfa10 f   mmaudio:sound.obj
 0001:000dea20       ?GetSecondaryEAXObj@AudSound@@QAEPAVCReverbBuffer@@H@Z 004dfa20 f   mmaudio:sound.obj
 0001:000dea50       ?Enable3DMode@AudSound@@QAEXXZ 004dfa50 f   mmaudio:sound.obj
 0001:000dea90       ?Disable3DMode@AudSound@@QAEXXZ 004dfa90 f   mmaudio:sound.obj
 0001:000dead0       ?GetCurrentSoundObj@AudSound@@QAEPAVSoundObj@@XZ 004dfad0 f   mmaudio:sound.obj
 0001:000deae0       ?GetVolume@AudSound@@QAEMH@Z 004dfae0 f   mmaudio:sound.obj
 0001:000deb10       ??_GAudSound@@UAEPAXI@Z    004dfb10 f i mmaudio:sound.obj
 0001:000deb10       ??_EAudSound@@UAEPAXI@Z    004dfb10 f i mmaudio:sound.obj
 0001:000deb40       ?Set@VolumeDW@@QAEXMM@Z    004dfb40 f   mmaudio:mixer.obj
 0001:000dec10       ?Value@VolumeDW@@QAEKXZ    004dfc10 f   mmaudio:mixer.obj
 0001:000dec40       ?Init@MixerCTL@@QAEKXZ     004dfc40 f   mmaudio:mixer.obj
 0001:000dec80       ??1MixerCTL@@UAE@XZ        004dfc80 f   mmaudio:mixer.obj
 0001:000decf0       ?AssignWaveBalance@MixerCTL@@QAEXM@Z 004dfcf0 f   mmaudio:mixer.obj
 0001:000ded40       ?AssignCDBalance@MixerCTL@@QAEXM@Z 004dfd40 f   mmaudio:mixer.obj
 0001:000ded90       ?RefreshAll@MixerCTL@@QAEXK@Z 004dfd90 f   mmaudio:mixer.obj
 0001:000deda0       ?GetWaveBalance@MixerCTL@@QAEMXZ 004dfda0 f   mmaudio:mixer.obj
 0001:000dedb0       ?GetWaveVolume@MixerCTL@@QAEMXZ 004dfdb0 f   mmaudio:mixer.obj
 0001:000dedc0       ?AssignWaveVolume@MixerCTL@@QAEXM@Z 004dfdc0 f   mmaudio:mixer.obj
 0001:000dede0       ?AssignCDVolume@MixerCTL@@QAEXM@Z 004dfde0 f   mmaudio:mixer.obj
 0001:000dee00       ?GetCDBalance@MixerCTL@@QAEMXZ 004dfe00 f   mmaudio:mixer.obj
 0001:000dee10       ?GetCDVolume@MixerCTL@@QAEMXZ 004dfe10 f   mmaudio:mixer.obj
 0001:000dee20       ?AssignMixerVolume@MixerCTL@@QAEKMK@Z 004dfe20 f   mmaudio:mixer.obj
 0001:000df080       ?AssignMixerBalance@MixerCTL@@QAEKMK@Z 004e0080 f   mmaudio:mixer.obj
 0001:000df330       ?GetMixerBalance@MixerCTL@@QAEMK@Z 004e0330 f   mmaudio:mixer.obj
 0001:000df5b0       ?SetDeviceNum@MixerCTL@@QAEXI@Z 004e05b0 f   mmaudio:mixer.obj
 0001:000df5d0       ?GetErrorMessage@MixerCTL@@AAEPADK@Z 004e05d0 f   mmaudio:mixer.obj
 0001:000df670       ?WindowProc@MixerCTL@@EAEJPAUHWND__@@IIJ@Z 004e0670 f   mmaudio:mixer.obj
 0001:000df680       ??1VolumeDW@@QAE@XZ        004e0680 f i mmaudio:mixer.obj
 0001:000df690       ??_GMixerCTL@@UAEPAXI@Z    004e0690 f i mmaudio:mixer.obj
 0001:000df690       ??_EMixerCTL@@UAEPAXI@Z    004e0690 f i mmaudio:mixer.obj
 0001:000df6c0       ??0DupBuffCreator@@QAE@XZ  004e06c0 f   mmaudio:dupbufcreator.obj
 0001:000df700       ??1DupBuffCreator@@QAE@XZ  004e0700 f   mmaudio:dupbufcreator.obj
 0001:000df760       ?Create@DupBuffCreator@@QAEPAUIDirectSoundBuffer@@PADPAFPAH@Z 004e0760 f   mmaudio:dupbufcreator.obj
 0001:000df860       ?Add@DupBuffCreator@@QAEXPADPAUIDirectSoundBuffer@@@Z 004e0860 f   mmaudio:dupbufcreator.obj
 0001:000dfa00       ?FindOriginal@DupBuffCreator@@QAEPAUIDirectSoundBuffer@@PADPAF@Z 004e0a00 f   mmaudio:dupbufcreator.obj
 0001:000dfa90       ?GetWAVEFORMATEX@DupBuffCreator@@AAEPAUtWAVEFORMATEX@@PAUIDirectSoundBuffer@@@Z 004e0a90 f   mmaudio:dupbufcreator.obj
 0001:000dfb10       ?IntegrityCheck@DupBuffCreator@@AAEHPAUIDirectSoundBuffer@@0PAH@Z 004e0b10 f   mmaudio:dupbufcreator.obj
 0001:000dfc40       ??0DSGlobal@@QAE@XZ        004e0c40 f   mmaudio:dsglobal.obj
 0001:000dfd00       ??1DSGlobal@@QAE@XZ        004e0d00 f   mmaudio:dsglobal.obj
 0001:000dfde0       ?DeallocateUIADF@DSGlobal@@QAEXXZ 004e0de0 f   mmaudio:dsglobal.obj
 0001:000dfe40       ?DeallocateCityADF@DSGlobal@@QAEXXZ 004e0e40 f   mmaudio:dsglobal.obj
 0001:000dfe70       ?DeallocateADFRecord@DSGlobal@@QAEXH@Z 004e0e70 f   mmaudio:dsglobal.obj
 0001:000dff00       ?DeInit@DSGlobal@@QAEXFF@Z 004e0f00 f   mmaudio:dsglobal.obj
 0001:000e0050       ?Init@DSGlobal@@QAEHKEPAIPADFF@Z 004e1050 f   mmaudio:dsglobal.obj
 0001:000e0270       ?Init3DListener@DSGlobal@@QAEHMMMMM@Z 004e1270 f   mmaudio:dsglobal.obj
 0001:000e0300       ?UpperCase@@YAXPAD@Z       004e1300 f   mmaudio:dsglobal.obj
 0001:000e0350       ?IsDSDeviceInList@@YAHPAU_GUID@@@Z 004e1350 f   mmaudio:dsglobal.obj
 0001:000e03b0       ?DSEnumProc@@YGHPAU_GUID@@PAD1PAX@Z 004e13b0 f   mmaudio:dsglobal.obj
 0001:000e0550       ?SetDeviceRating@DSGlobal@@QAEXPAUtag_dsdevdesc@@@Z 004e1550 f   mmaudio:dsglobal.obj
 0001:000e06c0       ?EnumDSDevices@DSGlobal@@QAEHXZ 004e16c0 f   mmaudio:dsglobal.obj
 0001:000e06e0       ?InitPrimarySoundBuffer@DSGlobal@@QAEHKEPAD@Z 004e16e0 f   mmaudio:dsglobal.obj
 0001:000e08e0       ?ClearDSDeviceList@DSGlobal@@QAEXXZ 004e18e0 f   mmaudio:dsglobal.obj
 0001:000e0920       ?LoadUIADF@DSGlobal@@QAEHPAD@Z 004e1920 f   mmaudio:dsglobal.obj
 0001:000e0ac0       ?LoadCityADF@DSGlobal@@QAEHPADHK@Z 004e1ac0 f   mmaudio:dsglobal.obj
 0001:000e0cd0       ?InitCityADF@DSGlobal@@QAEHPADHK@Z 004e1cd0 f   mmaudio:dsglobal.obj
 0001:000e0d90       ?InitUIADF@DSGlobal@@QAEHPADHK@Z 004e1d90 f   mmaudio:dsglobal.obj
 0001:000e0e50       ?ConvertTo8Bit@DSGlobal@@QAEXH@Z 004e1e50 f   mmaudio:dsglobal.obj
 0001:000e0fe0       ?FormatCodeToWFX@@YAHKPAUtWAVEFORMATEX@@@Z 004e1fe0 f   mmaudio:dsglobal.obj
 0001:000e1090       ?SetPrimaryBufferFormat@DSGlobal@@QAEXKE@Z 004e2090 f   mmaudio:dsglobal.obj
 0001:000e1180       ?ScanAvailableDSFormats@DSGlobal@@QAEXXZ 004e2180 f   mmaudio:dsglobal.obj
 0001:000e1240       ?TranslateDSError@DSGlobal@@QAEPADJ@Z 004e2240 f   mmaudio:dsglobal.obj
 0001:000e13f0       ?CheckCDFile@DSGlobal@@QAEEPAD@Z 004e23f0 f   mmaudio:dsglobal.obj
 0001:000e14a0       ?SetBitDepth@DSGlobal@@QAEXH@Z 004e24a0 f   mmaudio:dsglobal.obj
 0001:000e14d0       ?GetDeviceNames@DSGlobal@@QAEPAPADXZ 004e24d0 f   mmaudio:dsglobal.obj
 0001:000e1500       ?GetNum3DHallBufs@DSGlobal@@QAEKXZ 004e2500 f   mmaudio:dsglobal.obj
 0001:000e1530       ?GetStereoOnMask@DSGlobal@@SA?BIXZ 004e2530 f   mmaudio:dsglobal.obj
 0001:000e1540       ?GetHiResMask@DSGlobal@@SA?BIXZ 004e2540 f   mmaudio:dsglobal.obj
 0001:000e1550       ?GetHiSampleSizeMask@DSGlobal@@SA?BIXZ 004e2550 f   mmaudio:dsglobal.obj
 0001:000e1560       ?GetEchoOnMask@DSGlobal@@SA?BIXZ 004e2560 f   mmaudio:dsglobal.obj
 0001:000e1570       ?GetDSound3DMask@DSGlobal@@SA?BIXZ 004e2570 f   mmaudio:dsglobal.obj
 0001:000e1580       ?GetSoundFXOnMask@DSGlobal@@SA?BIXZ 004e2580 f   mmaudio:dsglobal.obj
 0001:000e1590       ?GetCommentaryOnMask@DSGlobal@@SA?BIXZ 004e2590 f   mmaudio:dsglobal.obj
 0001:000e15a0       ?GetCDMusicOnMask@DSGlobal@@SA?BIXZ 004e25a0 f   mmaudio:dsglobal.obj
 0001:000e15b0       ?GetUsingEAXMask@DSGlobal@@SA?BIXZ 004e25b0 f   mmaudio:dsglobal.obj
 0001:000e15c0       ?EAXEnabled@DSGlobal@@QAEIXZ 004e25c0 f   mmaudio:dsglobal.obj
 0001:000e15d0       ?IsAlwaysEAX@DSGlobal@@QAEIXZ 004e25d0 f   mmaudio:dsglobal.obj
 0001:000e15e0       ?AlwaysEAX@DSGlobal@@QAEII@Z 004e25e0 f   mmaudio:dsglobal.obj
 0001:000e1610       ?DSound3DEnabled@DSGlobal@@QAEIXZ 004e2610 f   mmaudio:dsglobal.obj
 0001:000e1620       ?DisableEAXFlag@DSGlobal@@QAEXXZ 004e2620 f   mmaudio:dsglobal.obj
 0001:000e1630       ??0SoundObj@@QAE@XZ        004e2630 f   mmaudio:soundobj.obj
 0001:000e16f0       ??1SoundObj@@QAE@XZ        004e26f0 f   mmaudio:soundobj.obj
 0001:000e17b0       ?DeallocateEffects@SoundObj@@QAEXXZ 004e27b0 f   mmaudio:soundobj.obj
 0001:000e1880       ?SetDelayTime@SoundObj@@QAEXM@Z 004e2880 f   mmaudio:soundobj.obj
 0001:000e19a0       ?SetupOneShotLayerBuffers@SoundObj@@QAEFFMPAD@Z 004e29a0 f   mmaudio:soundobj.obj
 0001:000e1a30       ?FreeOneShotLayerBuffers@SoundObj@@QAEXXZ 004e2a30 f   mmaudio:soundobj.obj
 0001:000e1ab0       ?DSCreateSoundBuffer@SoundObj@@QAEHPAPAUIDirectSoundBuffer@@E@Z 004e2ab0 f   mmaudio:soundobj.obj
 0001:000e1b40       ?DSLoadSoundBuffer@SoundObj@@QAEPAUIDirectSoundBuffer@@PBDK@Z 004e2b40 f   mmaudio:soundobj.obj
 0001:000e1d20       ?DSLoadSoundBuffer@SoundObj@@QAEXGK@Z 004e2d20 f   mmaudio:soundobj.obj
 0001:000e1e60       ?ReadADFRecord@SoundObj@@QAEXG@Z 004e2e60 f   mmaudio:soundobj.obj
 0001:000e2020       ?DSGetWaveResource@SoundObj@@QAEHPAUHINSTANCE__@@PBDPAPAUtWAVEFORMATEX@@PAPAEPAK@Z 004e3020 f   mmaudio:soundobj.obj
 0001:000e2100       ?ConvertTo8Bit@SoundObj@@QAEXXZ 004e3100 f   mmaudio:soundobj.obj
 0001:000e2260       ?DSGetWaveFile@SoundObj@@QAEHPAUHINSTANCE__@@PBDPAPAUtWAVEFORMATEX@@PAPAEPAKPAPAX@Z 004e3260 f   mmaudio:soundobj.obj
 0001:000e2530       ?InitDummy@SoundObj@@QAEHXZ 004e3530 f   mmaudio:soundobj.obj
 0001:000e26e0       ?Init@SoundObj@@QAEHPBDKF@Z 004e36e0 f   mmaudio:soundobj.obj
 0001:000e27a0       ?Init@SoundObj@@QAEHGKF@Z  004e37a0 f   mmaudio:soundobj.obj
 0001:000e2850       ?SetEffect@SoundObj@@QAEXFPAD@Z 004e3850 f   mmaudio:soundobj.obj
 0001:000e29d0       ?SetPlayPosition@SoundObj@@QAEXK@Z 004e39d0 f   mmaudio:soundobj.obj
 0001:000e29f0       ?Play@SoundObj@@QAEHKPAD@Z 004e39f0 f   mmaudio:soundobj.obj
 0001:000e2c30       ?Stop@SoundObj@@QAEHXZ     004e3c30 f   mmaudio:soundobj.obj
 0001:000e2cc0       ?StopEchoBuffers@SoundObj@@QAEXXZ 004e3cc0 f   mmaudio:soundobj.obj
 0001:000e2ce0       ?DSFillSoundBuffer@SoundObj@@QAEHPAUIDirectSoundBuffer@@@Z 004e3ce0 f   mmaudio:soundobj.obj
 0001:000e2da0       ?DSParseWaveResource@SoundObj@@QAEHPAXPAPAUtWAVEFORMATEX@@PAPAEPAK@Z 004e3da0 f   mmaudio:soundobj.obj
 0001:000e2ea0       ?IsPlaying@SoundObj@@QAEFF@Z 004e3ea0 f   mmaudio:soundobj.obj
 0001:000e2f80       ?ReadyOneShotLayerBuf@SoundObj@@QAEFXZ 004e3f80 f   mmaudio:soundobj.obj
 0001:000e3010       ?AllOneShotLayersPlaying@SoundObj@@QAEFXZ 004e4010 f   mmaudio:soundobj.obj
 0001:000e30b0       ?SetPosition@SoundObj@@QAEXMMM@Z 004e40b0 f   mmaudio:soundobj.obj
 0001:000e30f0       ?SetVelocity@SoundObj@@QAEXMMM@Z 004e40f0 f   mmaudio:soundobj.obj
 0001:000e3130       ?SetFrequency@SoundObj@@QAEXM@Z 004e4130 f   mmaudio:soundobj.obj
 0001:000e3370       ?SetEchoFrequency@SoundObj@@QAEXM@Z 004e4370 f   mmaudio:soundobj.obj
 0001:000e3430       ?SetVolume@SoundObj@@QAEXM@Z 004e4430 f   mmaudio:soundobj.obj
 0001:000e3570       ?SetPan@SoundObj@@QAEXM@Z  004e4570 f   mmaudio:soundobj.obj
 0001:000e36b0       ?SetEchoPan@SoundObj@@QAEXM@Z 004e46b0 f   mmaudio:soundobj.obj
 0001:000e36e0       ?SetRamp@SoundObj@@QAEXMM@Z 004e46e0 f   mmaudio:soundobj.obj
 0001:000e3710       ?Set3DMode@SoundObj@@QAEXK@Z 004e4710 f   mmaudio:soundobj.obj
 0001:000e3730       ?SetConeOutsideVolume@SoundObj@@QAEXJ@Z 004e4730 f   mmaudio:soundobj.obj
 0001:000e3760       ?SetConeAngles@SoundObj@@QAEXKK@Z 004e4760 f   mmaudio:soundobj.obj
 0001:000e37a0       ?SetConeOrientation@SoundObj@@QAEXPAVVector3@@@Z 004e47a0 f   mmaudio:soundobj.obj
 0001:000e37d0       ?SetupDuplicateBuffer@SoundObj@@QAEPAUIDirectSoundBuffer@@PAD@Z 004e47d0 f   mmaudio:soundobj.obj
 0001:000e3880       ?SetupEchoBuffer@SoundObj@@QAEXPAD@Z 004e4880 f   mmaudio:soundobj.obj
 0001:000e3920       ?SetupChorusBuffer@SoundObj@@AAEPAUIDirectSoundBuffer@@PAD@Z 004e4920 f   mmaudio:soundobj.obj
 0001:000e39a0       ?UpdateSeconds@SoundObj@@QAEXXZ 004e49a0 f   mmaudio:soundobj.obj
 0001:000e39d0       ?UpdateEcho@SoundObj@@QAEXXZ 004e49d0 f   mmaudio:soundobj.obj
 0001:000e3a40       ?UpdatePlayEcho@SoundObj@@QAEXXZ 004e4a40 f   mmaudio:soundobj.obj
 0001:000e3b40       ?UpdateStopEcho@SoundObj@@QAEXXZ 004e4b40 f   mmaudio:soundobj.obj
 0001:000e3c00       ?UpdateVolumeEcho@SoundObj@@QAEXXZ 004e4c00 f   mmaudio:soundobj.obj
 0001:000e3cc0       ?UpdatePitchEcho@SoundObj@@QAEXXZ 004e4cc0 f   mmaudio:soundobj.obj
 0001:000e3d80       ?DisableEffect@SoundObj@@QAEXF@Z 004e4d80 f   mmaudio:soundobj.obj
 0001:000e3e80       ?CreateListenerEAXObj@SoundObj@@QAEGXZ 004e4e80 f   mmaudio:soundobj.obj
 0001:000e3f20       ?CreateSecondaryEAXObj@SoundObj@@QAEGXZ 004e4f20 f   mmaudio:soundobj.obj
 0001:000e3fe0       ?GetFormat@SoundObj@@QAEPAUtWAVEFORMATEX@@XZ 004e4fe0 f   mmaudio:soundobj.obj
 0001:000e4060       ?Enable3DMode@SoundObj@@QAEXXZ 004e5060 f   mmaudio:soundobj.obj
 0001:000e4090       ?Disable3DMode@SoundObj@@QAEXXZ 004e5090 f   mmaudio:soundobj.obj
 0001:000e40b0       ??0AudStream@@QAE@KHF@Z    004e50b0 f   mmaudio:audstream.obj
 0001:000e41f0       ??1AudStream@@UAE@XZ       004e51f0 f   mmaudio:audstream.obj
 0001:000e42f0       ?SetPriority@AudStream@@QAEXH@Z 004e52f0 f   mmaudio:audstream.obj
 0001:000e4310       ?DeallocateStreamObjs@AudStream@@QAEXXZ 004e5310 f   mmaudio:audstream.obj
 0001:000e43a0       ?ReallocateStreamObjs@AudStream@@QAEXXZ 004e53a0 f   mmaudio:audstream.obj
 0001:000e4420       ?Load@AudStream@@QAEHPADH@Z 004e5420 f   mmaudio:audstream.obj
 0001:000e45c0       ?Enable@AudStream@@QAEXXZ  004e55c0 f   mmaudio:audstream.obj
 0001:000e45d0       ?Disable@AudStream@@QAEXXZ 004e55d0 f   mmaudio:audstream.obj
 0001:000e45f0       ?Reset@AudStream@@UAEXXZ   004e55f0 f   mmaudio:audstream.obj
 0001:000e4610       ?Update@AudStream@@UAEXXZ  004e5610 f   mmaudio:audstream.obj
 0001:000e4660       ?SetPlayPosition@AudStream@@QAEXK@Z 004e5660 f   mmaudio:audstream.obj
 0001:000e4670       ?PlayOnce@AudStream@@QAEXMM@Z 004e5670 f   mmaudio:audstream.obj
 0001:000e4720       ?PlayOnce@AudStream@@QAEXPADMM@Z 004e5720 f   mmaudio:audstream.obj
 0001:000e4830       ?PlayLoop@AudStream@@QAEXPADMM@Z 004e5830 f   mmaudio:audstream.obj
 0001:000e4950       ?PlayLoop@AudStream@@QAEXMM@Z 004e5950 f   mmaudio:audstream.obj
 0001:000e4a00       ?Stop@AudStream@@QAEXXZ    004e5a00 f   mmaudio:audstream.obj
 0001:000e4a20       ?StopNow@AudStream@@QAEXXZ 004e5a20 f   mmaudio:audstream.obj
 0001:000e4a40       ?SetFrequency@AudStream@@QAEXMH@Z 004e5a40 f   mmaudio:audstream.obj
 0001:000e4ab0       ?GetFrequency@AudStream@@QAEMH@Z 004e5ab0 f   mmaudio:audstream.obj
 0001:000e4af0       ?SetVolume@AudStream@@QAEXMH@Z 004e5af0 f   mmaudio:audstream.obj
 0001:000e4b60       ?SetPan@AudStream@@QAEXMH@Z 004e5b60 f   mmaudio:audstream.obj
 0001:000e4bf0       ?IsPlaying@AudStream@@QAEHXZ 004e5bf0 f   mmaudio:audstream.obj
 0001:000e4c10       ?Get2DFlags@AudStream@@SA?BKXZ 004e5c10 f   mmaudio:audstream.obj
 0001:000e4c30       ?GetFreqChange2DFlags@AudStream@@SA?BKXZ 004e5c30 f   mmaudio:audstream.obj
 0001:000e4c50       ?GetCurrentSoundObj@AudStream@@QAEPAVStreamObj@@XZ 004e5c50 f   mmaudio:audstream.obj
 0001:000e4c60       ?SetNumLoopIndices@AudStream@@QAEXF@Z 004e5c60 f   mmaudio:audstream.obj
 0001:000e4c90       ?SetLoopIndex@AudStream@@QAEXF@Z 004e5c90 f   mmaudio:audstream.obj
 0001:000e4cc0       ?SetLoopPointInfo@AudStream@@QAEXKKIFF@Z 004e5cc0 f   mmaudio:audstream.obj
 0001:000e4d00       ?SetupNotifications@AudStream@@QAEXXZ 004e5d00 f   mmaudio:audstream.obj
 0001:000e4d20       ??_EAudStream@@UAEPAXI@Z   004e5d20 f i mmaudio:audstream.obj
 0001:000e4d20       ??_GAudStream@@UAEPAXI@Z   004e5d20 f i mmaudio:audstream.obj
 0001:000e4d50       ??1CDMan@@QAE@XZ           004e5d50 f   mmaudio:cd.obj
 0001:000e4d90       ?Init@CDMan@@QAEKF@Z       004e5d90 f   mmaudio:cd.obj
 0001:000e4e50       ?PlayTrack@CDMan@@QAEKEE@Z 004e5e50 f   mmaudio:cd.obj
 0001:000e4f40       ?ResumePlay@CDMan@@QAEKXZ  004e5f40 f   mmaudio:cd.obj
 0001:000e4f60       ?PlayTrack@CDMan@@QAEKEEEEE@Z 004e5f60 f   mmaudio:cd.obj
 0001:000e5070       ?Stop@CDMan@@QAEKXZ        004e6070 f   mmaudio:cd.obj
 0001:000e50b0       ?SeekTrack@CDMan@@QAEKE@Z  004e60b0 f   mmaudio:cd.obj
 0001:000e5120       ?GetPosition@CDMan@@QAEKPAE000@Z 004e6120 f   mmaudio:cd.obj
 0001:000e51a0       ?WindowProc@CDMan@@EAEJPAUHWND__@@IIJ@Z 004e61a0 f   mmaudio:cd.obj
 0001:000e5210       ?GetNumTracks@CDMan@@QAEFXZ 004e6210 f   mmaudio:cd.obj
 0001:000e5270       ??0CReverb@@QAE@PAUIDirectSound3DBuffer@@@Z 004e6270 f   mmaudio:creverb.obj
 0001:000e5310       ??1CReverb@@QAE@XZ         004e6310 f   mmaudio:creverb.obj
 0001:000e5320       ?PropertySetOk@CReverb@@QAEHXZ 004e6320 f   mmaudio:creverb.obj
 0001:000e5330       ?QueryProperty@CReverb@@AAEHK@Z 004e6330 f   mmaudio:creverb.obj
 0001:000e5380       ?SetEnvironment@CReverb@@QAEXK@Z 004e6380 f   mmaudio:creverb.obj
 0001:000e53a0       ?SetVolume@CReverb@@QAEXM@Z 004e63a0 f   mmaudio:creverb.obj
 0001:000e53c0       ?SetDecayTime@CReverb@@QAEXM@Z 004e63c0 f   mmaudio:creverb.obj
 0001:000e53e0       ?SetDamping@CReverb@@QAEXM@Z 004e63e0 f   mmaudio:creverb.obj
 0001:000e5400       ?SetAll@CReverb@@QAEXPAUEAX_REVERBPROPERTIES@@@Z 004e6400 f   mmaudio:creverb.obj
 0001:000e5420       ?SetPreset@CReverb@@QAEXKMMM@Z 004e6420 f   mmaudio:creverb.obj
 0001:000e5460       ?SetPreset@CReverb@@QAEXPAUEAX_REVERBPROPERTIES@@@Z 004e6460 f   mmaudio:creverb.obj
 0001:000e5480       ?GetEnvironment@CReverb@@QAEKXZ 004e6480 f   mmaudio:creverb.obj
 0001:000e54c0       ?GetVolume@CReverb@@QAEMXZ 004e64c0 f   mmaudio:creverb.obj
 0001:000e5500       ?GetDecayTime@CReverb@@QAEMXZ 004e6500 f   mmaudio:creverb.obj
 0001:000e5540       ?GetDamping@CReverb@@QAEMXZ 004e6540 f   mmaudio:creverb.obj
 0001:000e5580       ?GetAll@CReverb@@QAEXPAUEAX_REVERBPROPERTIES@@@Z 004e6580 f   mmaudio:creverb.obj
 0001:000e55b0       ??0CReverbBuffer@@QAE@PAUIDirectSound3DBuffer@@@Z 004e65b0 f   mmaudio:crevbuf.obj
 0001:000e5600       ??1CReverbBuffer@@QAE@XZ   004e6600 f   mmaudio:crevbuf.obj
 0001:000e5610       ?PropertySetOk@CReverbBuffer@@QAEHXZ 004e6610 f   mmaudio:crevbuf.obj
 0001:000e5620       ?QueryProperty@CReverbBuffer@@AAEHK@Z 004e6620 f   mmaudio:crevbuf.obj
 0001:000e5670       ?SetReverbMix@CReverbBuffer@@QAEXM@Z 004e6670 f   mmaudio:crevbuf.obj
 0001:000e5690       ?SetAll@CReverbBuffer@@QAEXPAUEAXBUFFER_REVERBPROPERTIES@@@Z 004e6690 f   mmaudio:crevbuf.obj
 0001:000e56b0       ?GetReverbMix@CReverbBuffer@@QAEMXZ 004e66b0 f   mmaudio:crevbuf.obj
 0001:000e56f0       ?GetAll@CReverbBuffer@@QAEXPAUEAXBUFFER_REVERBPROPERTIES@@@Z 004e66f0 f   mmaudio:crevbuf.obj
 0001:000e5720       ??0StreamObj@@QAE@XZ       004e6720 f   mmaudio:streamobj.obj
 0001:000e57b0       ??1StreamObj@@QAE@XZ       004e67b0 f   mmaudio:streamobj.obj
 0001:000e58d0       ?DSCreateSoundBuffer@StreamObj@@QAEHXZ 004e68d0 f   mmaudio:streamobj.obj
 0001:000e5960       ?DSLoadSoundBuffer@StreamObj@@QAEPAUIDirectSoundBuffer@@PBDK@Z 004e6960 f   mmaudio:streamobj.obj
 0001:000e59b0       ?OpenWaveFile@StreamObj@@AAEPAVStream@@PBDF@Z 004e69b0 f   mmaudio:streamobj.obj
 0001:000e5bd0       ?GetWaveBytesOffset@StreamObj@@AAEIPAVStream@@F@Z 004e6bd0 f   mmaudio:streamobj.obj
 0001:000e5d10       ?Init@StreamObj@@QAEHPBDK@Z 004e6d10 f   mmaudio:streamobj.obj
 0001:000e5d80       ?SetPlayPosition@StreamObj@@QAEXK@Z 004e6d80 f   mmaudio:streamobj.obj
 0001:000e5da0       ?Play@StreamObj@@QAEHXZ    004e6da0 f   mmaudio:streamobj.obj
 0001:000e5e40       ?SetPlayOneShotEvent@StreamObj@@QAEXPAD@Z 004e6e40 f   mmaudio:streamobj.obj
 0001:000e5ea0       ?SetStopEvent@StreamObj@@QAEXXZ 004e6ea0 f   mmaudio:streamobj.obj
 0001:000e5ec0       ?SetVolumeEvent@StreamObj@@QAEXM@Z 004e6ec0 f   mmaudio:streamobj.obj
 0001:000e5ef0       ?SetFrequencyEvent@StreamObj@@QAEXM@Z 004e6ef0 f   mmaudio:streamobj.obj
 0001:000e5f20       ?SetPanEvent@StreamObj@@QAEXM@Z 004e6f20 f   mmaudio:streamobj.obj
 0001:000e5f50       ?Play@StreamObj@@QAEHPAD@Z 004e6f50 f   mmaudio:streamobj.obj
 0001:000e6020       ?Stop@StreamObj@@QAEHXZ    004e7020 f   mmaudio:streamobj.obj
 0001:000e6050       ?FillDataBuffer@StreamObj@@QAEHI@Z 004e7050 f   mmaudio:streamobj.obj
 0001:000e6260       ?IsPlaying@StreamObj@@QAEFXZ 004e7260 f   mmaudio:streamobj.obj
 0001:000e62c0       ?SetFrequency@StreamObj@@QAEXM@Z 004e72c0 f   mmaudio:streamobj.obj
 0001:000e6370       ?SetVolume@StreamObj@@QAEXM@Z 004e7370 f   mmaudio:streamobj.obj
 0001:000e63b0       ?SetPan@StreamObj@@QAEXM@Z 004e73b0 f   mmaudio:streamobj.obj
 0001:000e63f0       ?SetupNotifications@StreamObj@@QAEHXZ 004e73f0 f   mmaudio:streamobj.obj
 0001:000e6690       ?HandleNotifications@@YAKPAX@Z 004e7690 f   mmaudio:streamobj.obj
 0001:000e6a90       ?Update@StreamObj@@QAEXXZ  004e7a90 f   mmaudio:streamobj.obj
 0001:000e6b50       ?GetFileStreamPtr@StreamObj@@QAEPAVStream@@XZ 004e7b50 f   mmaudio:streamobj.obj
 0001:000e6b60       ?SetNumLoopIndices@StreamObj@@QAEXF@Z 004e7b60 f   mmaudio:streamobj.obj
 0001:000e6bc0       ?SetLoopPointInfo@StreamObj@@QAEXKKIFF@Z 004e7bc0 f   mmaudio:streamobj.obj
 0001:000e6cd0       ?ReadInLoopIndex@StreamObj@@QAEXF@Z 004e7cd0 f   mmaudio:streamobj.obj
 0001:000e6da0       ?SetPlayingFlag@StreamObj@@QAEXF@Z 004e7da0 f   mmaudio:streamobj.obj
 0001:000e6dc0       ??0PovCamCS@@QAE@XZ        004e7dc0 f   mmcamcs:povcamcs.obj
 0001:000e6ec0       ??1PovCamCS@@UAE@XZ        004e7ec0 f   mmcamcs:povcamcs.obj
 0001:000e6ed0       ?MakeActive@PovCamCS@@UAEXXZ 004e7ed0 f   mmcamcs:povcamcs.obj
 0001:000e6f20       ?AfterLoad@PovCamCS@@UAEXXZ 004e7f20 f   mmcamcs:povcamcs.obj
 0001:000e6f30       ?Reset@PovCamCS@@UAEXXZ    004e7f30 f   mmcamcs:povcamcs.obj
 0001:000e6f70       ?Update@PovCamCS@@UAEXXZ   004e7f70 f   mmcamcs:povcamcs.obj
 0001:000e6f90       ?UpdateInput@PovCamCS@@UAEXXZ 004e7f90 f   mmcamcs:povcamcs.obj
 0001:000e6fa0       ?UpdatePOV@PovCamCS@@AAEXXZ 004e7fa0 f   mmcamcs:povcamcs.obj
 0001:000e7240       ?DeclareFields@PovCamCS@@SAXXZ 004e8240 f   mmcamcs:povcamcs.obj
 0001:000e73f0       ?GetClass@PovCamCS@@UAEPAVMetaClass@@XZ 004e83f0 f   mmcamcs:povcamcs.obj
 0001:000e7430       ??_EPovCamCS@@UAEPAXI@Z    004e8430 f i mmcamcs:povcamcs.obj
 0001:000e7490       ?SetST@BaseCamCS@@UAEXPAM@Z 004e8490 f i mmcamcs:povcamcs.obj
 0001:000e74a0       ??0TrackCamCS@@QAE@XZ      004e84a0 f   mmcamcs:trackcamcs.obj
 0001:000e7740       ??1TrackCamCS@@UAE@XZ      004e8740 f   mmcamcs:trackcamcs.obj
 0001:000e7790       ?MakeActive@TrackCamCS@@UAEXXZ 004e8790 f   mmcamcs:trackcamcs.obj
 0001:000e77d0       ?AfterLoad@TrackCamCS@@UAEXXZ 004e87d0 f   mmcamcs:trackcamcs.obj
 0001:000e77e0       ?Reset@TrackCamCS@@UAEXXZ  004e87e0 f   mmcamcs:trackcamcs.obj
 0001:000e7820       ?Update@TrackCamCS@@UAEXXZ 004e8820 f   mmcamcs:trackcamcs.obj
 0001:000e7900       ?UpdateInput@TrackCamCS@@UAEXXZ 004e8900 f   mmcamcs:trackcamcs.obj
 0001:000e7910       ?UpdateCar@TrackCamCS@@AAEXXZ 004e8910 f   mmcamcs:trackcamcs.obj
 0001:000e7ab0       ?UpdateHill@TrackCamCS@@AAEXXZ 004e8ab0 f   mmcamcs:trackcamcs.obj
 0001:000e7ac0       ?UpdateTrack@TrackCamCS@@AAEXXZ 004e8ac0 f   mmcamcs:trackcamcs.obj
 0001:000e83f0       ?UpdateSwing@TrackCamCS@@AAEXXZ 004e93f0 f   mmcamcs:trackcamcs.obj
 0001:000e87d0       ?PreApproach@TrackCamCS@@AAEXXZ 004e97d0 f   mmcamcs:trackcamcs.obj
 0001:000e89d0       ?MinMax@TrackCamCS@@AAEXVMatrix34@@@Z 004e99d0 f   mmcamcs:trackcamcs.obj
 0001:000e8b70       ?Collide@TrackCamCS@@AAEXVVector3@@@Z 004e9b70 f   mmcamcs:trackcamcs.obj
 0001:000e9010       ?SwingToRear@TrackCamCS@@QAEXXZ 004ea010 f   mmcamcs:trackcamcs.obj
 0001:000e9080       ?Front@TrackCamCS@@AAEXM@Z 004ea080 f   mmcamcs:trackcamcs.obj
 0001:000e9100       ?Rear@TrackCamCS@@AAEXM@Z  004ea100 f   mmcamcs:trackcamcs.obj
 0001:000e9180       ?DeclareFields@TrackCamCS@@SAXXZ 004ea180 f   mmcamcs:trackcamcs.obj
 0001:000e94a0       ?GetClass@TrackCamCS@@UAEPAVMetaClass@@XZ 004ea4a0 f   mmcamcs:trackcamcs.obj
 0001:000e94e0       ??1Spline@@UAE@XZ          004ea4e0 f i mmcamcs:trackcamcs.obj
 0001:000e94f0       ??_ETrackCamCS@@UAEPAXI@Z  004ea4f0 f i mmcamcs:trackcamcs.obj
 0001:000e9550       ??0mmViewCS@@QAE@XZ        004ea550 f   mmcamcs:viewcs.obj
 0001:000e9610       ??1mmViewCS@@UAE@XZ        004ea610 f   mmcamcs:viewcs.obj
 0001:000e9620       ?Instance@mmViewCS@@SAPAV1@PAVasCamera@@@Z 004ea620 f   mmcamcs:viewcs.obj
 0001:000e9690       ?SetCurrentCam@mmViewCS@@QAEXPAVCarCamCS@@@Z 004ea690 f   mmcamcs:viewcs.obj
 0001:000e9700       ?NewCam@mmViewCS@@QAEHPAVCarCamCS@@HMVCallback@@@Z 004ea700 f   mmcamcs:viewcs.obj
 0001:000e97b0       ?Update@mmViewCS@@UAEXXZ   004ea7b0 f   mmcamcs:viewcs.obj
 0001:000e97e0       ?Init@mmViewCS@@QAEXXZ     004ea7e0 f   mmcamcs:viewcs.obj
 0001:000e97f0       ?SetCamera@mmViewCS@@QAEXPAVasCamera@@@Z 004ea7f0 f   mmcamcs:viewcs.obj
 0001:000e9840       ?Reset@mmViewCS@@UAEXXZ    004ea840 f   mmcamcs:viewcs.obj
 0001:000e98a0       ?ForceMatrixDelta@mmViewCS@@QAEXABVMatrix34@@@Z 004ea8a0 f   mmcamcs:viewcs.obj
 0001:000e98c0       ?ForceMatrixDelta@mmViewCS@@QAEXABVVector3@@@Z 004ea8c0 f   mmcamcs:viewcs.obj
 0001:000e98e0       ?OneShot@mmViewCS@@QAEXXZ  004ea8e0 f   mmcamcs:viewcs.obj
 0001:000e9900       ?DeclareFields@mmViewCS@@SAXXZ 004ea900 f   mmcamcs:viewcs.obj
 0001:000e9a70       ?GetClass@mmViewCS@@UAEPAVMetaClass@@XZ 004eaa70 f   mmcamcs:viewcs.obj
 0001:000e9a80       ??_EmmViewCS@@UAEPAXI@Z    004eaa80 f i mmcamcs:viewcs.obj
 0001:000e9ae0       ??0PostCamCS@@QAE@XZ       004eaae0 f   mmcamcs:postcamcs.obj
 0001:000e9b30       ?Init@PostCamCS@@QAEXPAVmmCar@@@Z 004eab30 f   mmcamcs:postcamcs.obj
 0001:000e9b50       ?Reset@PostCamCS@@UAEXXZ   004eab50 f   mmcamcs:postcamcs.obj
 0001:000e9b60       ?MakeActive@PostCamCS@@UAEXXZ 004eab60 f   mmcamcs:postcamcs.obj
 0001:000e9be0       ?Update@PostCamCS@@UAEXXZ  004eabe0 f   mmcamcs:postcamcs.obj
 0001:000e9d10       ?DeclareFields@PostCamCS@@SAXXZ 004ead10 f   mmcamcs:postcamcs.obj
 0001:000e9e80       ?GetClass@PostCamCS@@UAEPAVMetaClass@@XZ 004eae80 f   mmcamcs:postcamcs.obj
 0001:000e9ec0       ??_EPostCamCS@@UAEPAXI@Z   004eaec0 f i mmcamcs:postcamcs.obj
 0001:000e9f20       ?UpdateInput@BaseCamCS@@UAEXXZ 004eaf20 f i mmcamcs:postcamcs.obj
 0001:000e9f30       ??0PreCamCS@@QAE@XZ        004eaf30 f   mmcamcs:precamcs.obj
 0001:000e9f80       ?Init@PreCamCS@@QAEXPAVmmCar@@@Z 004eaf80 f   mmcamcs:precamcs.obj
 0001:000e9fb0       ?Reset@PreCamCS@@UAEXXZ    004eafb0 f   mmcamcs:precamcs.obj
 0001:000e9fc0       ?MakeActive@PreCamCS@@UAEXXZ 004eafc0 f   mmcamcs:precamcs.obj
 0001:000ea010       ?Update@PreCamCS@@UAEXXZ   004eb010 f   mmcamcs:precamcs.obj
 0001:000ea070       ?DeclareFields@PreCamCS@@SAXXZ 004eb070 f   mmcamcs:precamcs.obj
 0001:000ea1e0       ?GetClass@PreCamCS@@UAEPAVMetaClass@@XZ 004eb1e0 f   mmcamcs:precamcs.obj
 0001:000ea220       ??_EPreCamCS@@UAEPAXI@Z    004eb220 f i mmcamcs:precamcs.obj
 0001:000ea280       ??0PointCamCS@@QAE@XZ      004eb280 f   mmcamcs:pointcamcs.obj
 0001:000ea2b0       ?Init@PointCamCS@@QAEXPAVmmCar@@@Z 004eb2b0 f   mmcamcs:pointcamcs.obj
 0001:000ea2e0       ?Reset@PointCamCS@@UAEXXZ  004eb2e0 f   mmcamcs:pointcamcs.obj
 0001:000ea2f0       ?MakeActive@PointCamCS@@UAEXXZ 004eb2f0 f   mmcamcs:pointcamcs.obj
 0001:000ea320       ?SetPos@PointCamCS@@QAEXAAVVector3@@@Z 004eb320 f   mmcamcs:pointcamcs.obj
 0001:000ea360       ?SetMaxDist@PointCamCS@@QAEXM@Z 004eb360 f   mmcamcs:pointcamcs.obj
 0001:000ea380       ?SetMinDist@PointCamCS@@QAEXM@Z 004eb380 f   mmcamcs:pointcamcs.obj
 0001:000ea3a0       ?SetAppRate@PointCamCS@@QAEXM@Z 004eb3a0 f   mmcamcs:pointcamcs.obj
 0001:000ea3b0       ?SetVel@PointCamCS@@QAEXAAVVector3@@@Z 004eb3b0 f   mmcamcs:pointcamcs.obj
 0001:000ea3d0       ?GetPos@PointCamCS@@QAE?AVVector3@@XZ 004eb3d0 f   mmcamcs:pointcamcs.obj
 0001:000ea400       ?Update@PointCamCS@@UAEXXZ 004eb400 f   mmcamcs:pointcamcs.obj
 0001:000ea6e0       ?DeclareFields@PointCamCS@@SAXXZ 004eb6e0 f   mmcamcs:pointcamcs.obj
 0001:000ea850       ?GetClass@PointCamCS@@UAEPAVMetaClass@@XZ 004eb850 f   mmcamcs:pointcamcs.obj
 0001:000ea890       ??_EPointCamCS@@UAEPAXI@Z  004eb890 f i mmcamcs:pointcamcs.obj
 0001:000ea8f0       ??0AICamCS@@QAE@XZ         004eb8f0 f   mmcamcs:aicamcs.obj
 0001:000ea920       ?Init@AICamCS@@QAEXPAVmmCar@@@Z 004eb920 f   mmcamcs:aicamcs.obj
 0001:000ea930       ?Reset@AICamCS@@UAEXXZ     004eb930 f   mmcamcs:aicamcs.obj
 0001:000ea940       ?MakeActive@AICamCS@@UAEXXZ 004eb940 f   mmcamcs:aicamcs.obj
 0001:000eaa50       ?Update@AICamCS@@UAEXXZ    004eba50 f   mmcamcs:aicamcs.obj
 0001:000eadb0       ?DeclareFields@AICamCS@@SAXXZ 004ebdb0 f   mmcamcs:aicamcs.obj
 0001:000eaf20       ?GetClass@AICamCS@@UAEPAVMetaClass@@XZ 004ebf20 f   mmcamcs:aicamcs.obj
 0001:000eaf60       ??_EAICamCS@@UAEPAXI@Z     004ebf60 f i mmcamcs:aicamcs.obj
 0001:000eafc0       ??0PolarCamCS@@QAE@XZ      004ebfc0 f   mmcamcs:polarcamcs.obj
 0001:000eb010       ?Init@PolarCamCS@@QAEXPAVmmCar@@@Z 004ec010 f   mmcamcs:polarcamcs.obj
 0001:000eb040       ?Reset@PolarCamCS@@UAEXXZ  004ec040 f   mmcamcs:polarcamcs.obj
 0001:000eb050       ?MakeActive@PolarCamCS@@UAEXXZ 004ec050 f   mmcamcs:polarcamcs.obj
 0001:000eb080       ?Update@PolarCamCS@@UAEXXZ 004ec080 f   mmcamcs:polarcamcs.obj
 0001:000eb470       ?DeclareFields@PolarCamCS@@SAXXZ 004ec470 f   mmcamcs:polarcamcs.obj
 0001:000eb5e0       ?GetClass@PolarCamCS@@UAEPAVMetaClass@@XZ 004ec5e0 f   mmcamcs:polarcamcs.obj
 0001:000eb620       ??_EPolarCamCS@@UAEPAXI@Z  004ec620 f i mmcamcs:polarcamcs.obj
 0001:000eb680       ??0CarCamCS@@QAE@XZ        004ec680 f   mmcamcs:carcamcs.obj
 0001:000eb6a0       ??1CarCamCS@@UAE@XZ        004ec6a0 f   mmcamcs:carcamcs.obj
 0001:000eb6b0       ?Init@CarCamCS@@QAEXPAVmmCar@@PAD@Z 004ec6b0 f   mmcamcs:carcamcs.obj
 0001:000eb6e0       ?DeclareFields@CarCamCS@@SAXXZ 004ec6e0 f   mmcamcs:carcamcs.obj
 0001:000eb850       ?GetClass@CarCamCS@@UAEPAVMetaClass@@XZ 004ec850 f   mmcamcs:carcamcs.obj
 0001:000eb890       ??_ECarCamCS@@UAEPAXI@Z    004ec890 f i mmcamcs:carcamcs.obj
 0001:000eb8f0       ?MakeActive@BaseCamCS@@UAEXXZ 004ec8f0 f i mmcamcs:carcamcs.obj
 0001:000eb900       ??0TransitionCS@@QAE@XZ    004ec900 f   mmcamcs:transitioncs.obj
 0001:000eb990       ??1TransitionCS@@UAE@XZ    004ec990 f   mmcamcs:transitioncs.obj
 0001:000eb9a0       ?Init@TransitionCS@@QAEXPAVmmCar@@@Z 004ec9a0 f   mmcamcs:transitioncs.obj
 0001:000eb9c0       ?Reset@TransitionCS@@UAEXXZ 004ec9c0 f   mmcamcs:transitioncs.obj
 0001:000eb9d0       ?Update@TransitionCS@@UAEXXZ 004ec9d0 f   mmcamcs:transitioncs.obj
 0001:000ec050       ?ForceMatrixDelta@TransitionCS@@UAEXABVVector3@@@Z 004ed050 f   mmcamcs:transitioncs.obj
 0001:000ec080       ?NewTransition@TransitionCS@@QAEXPAVCarCamCS@@0@Z 004ed080 f   mmcamcs:transitioncs.obj
 0001:000ec0b0       ?NextTransition@TransitionCS@@QAEXPAVCarCamCS@@@Z 004ed0b0 f   mmcamcs:transitioncs.obj
 0001:000ec0f0       ?StartTransition@TransitionCS@@QAEXXZ 004ed0f0 f   mmcamcs:transitioncs.obj
 0001:000ec160       ?StartNextTransition@TransitionCS@@QAEXXZ 004ed160 f   mmcamcs:transitioncs.obj
 0001:000ec1a0       ?ReverseTransition@TransitionCS@@QAEXXZ 004ed1a0 f   mmcamcs:transitioncs.obj
 0001:000ec220       ??_ETransitionCS@@UAEPAXI@Z 004ed220 f i mmcamcs:transitioncs.obj
 0001:000ec220       ??_GTransitionCS@@UAEPAXI@Z 004ed220 f i mmcamcs:transitioncs.obj
 0001:000ec250       ??0BaseCamCS@@QAE@XZ       004ed250 f   mmcamcs:basecamcs.obj
 0001:000ec2f0       ??1BaseCamCS@@UAE@XZ       004ed2f0 f   mmcamcs:basecamcs.obj
 0001:000ec300       ?AfterLoad@BaseCamCS@@UAEXXZ 004ed300 f   mmcamcs:basecamcs.obj
 0001:000ec310       ?IsViewCSInTransition@BaseCamCS@@QAEHXZ 004ed310 f   mmcamcs:basecamcs.obj
 0001:000ec340       ?UpdateView@BaseCamCS@@QAEXXZ 004ed340 f   mmcamcs:basecamcs.obj
 0001:000ec390       ?ForceMatrixDelta@BaseCamCS@@UAEXABVVector3@@@Z 004ed390 f   mmcamcs:basecamcs.obj
 0001:000ec3e0       ?DeclareFields@BaseCamCS@@SAXXZ 004ed3e0 f   mmcamcs:basecamcs.obj
 0001:000ec5c0       ?GetClass@BaseCamCS@@UAEPAVMetaClass@@XZ 004ed5c0 f   mmcamcs:basecamcs.obj
 0001:000ec5d0       ??_EBaseCamCS@@UAEPAXI@Z   004ed5d0 f i mmcamcs:basecamcs.obj
 0001:000ec630       ??0AppCamCS@@QAE@XZ        004ed630 f   mmcamcs:appcamcs.obj
 0001:000ec720       ??1AppCamCS@@UAE@XZ        004ed720 f   mmcamcs:appcamcs.obj
 0001:000ec730       ?ApproachIt@AppCamCS@@IAEXXZ 004ed730 f   mmcamcs:appcamcs.obj
 0001:000ec760       ?UpdateApproach@AppCamCS@@AAEXXZ 004ed760 f   mmcamcs:appcamcs.obj
 0001:000eccd0       ?UpdateMaxDist@AppCamCS@@AAEXXZ 004edcd0 f   mmcamcs:appcamcs.obj
 0001:000ecf70       ?DApproach@AppCamCS@@AAEHAAMMMM0M@Z 004edf70 f   mmcamcs:appcamcs.obj
 0001:000ed0c0       ?DeclareFields@AppCamCS@@SAXXZ 004ee0c0 f   mmcamcs:appcamcs.obj
 0001:000ed370       ?GetClass@AppCamCS@@UAEPAVMetaClass@@XZ 004ee370 f   mmcamcs:appcamcs.obj
 0001:000ed380       ??_EAppCamCS@@UAEPAXI@Z    004ee380 f i mmcamcs:appcamcs.obj
 0001:000ed3e0       ??0Spline@@QAE@XZ          004ee3e0 f   mmcamcs:spline.obj
 0001:000ed410       ?Init@Spline@@QAEXPAMH@Z   004ee410 f   mmcamcs:spline.obj
 0001:000ed540       ?InRange@Spline@@QAEHXZ    004ee540 f   mmcamcs:spline.obj
 0001:000ed5a0       ?CalcCoeff@Spline@@QAEXXZ  004ee5a0 f   mmcamcs:spline.obj
 0001:000ed700       ?SetValue@Spline@@QAEXPAM@Z 004ee700 f   mmcamcs:spline.obj
 0001:000ed780       ?SetGoal@Spline@@QAEXPAMM@Z 004ee780 f   mmcamcs:spline.obj
 0001:000ed870       ?Solve@Spline@@QAEXM@Z     004ee870 f   mmcamcs:spline.obj
 0001:000ed9e0       ?Print@Spline@@QAEXH@Z     004ee9e0 f   mmcamcs:spline.obj
 0001:000edae0       ?FixTimeStop@Spline@@QAEXXZ 004eeae0 f   mmcamcs:spline.obj
 0001:000edb20       ?Update@Spline@@UAEXXZ     004eeb20 f   mmcamcs:spline.obj
 0001:000edb70       ?AddWidgets@Spline@@QAEXPAVBank@@@Z 004eeb70 f   mmcamcs:spline.obj
 0001:000edb80       ?DeclareFields@Spline@@SAXXZ 004eeb80 f   mmcamcs:spline.obj
 0001:000edce0       ?GetClass@Spline@@UAEPAVMetaClass@@XZ 004eece0 f   mmcamcs:spline.obj
 0001:000edcf0       ??_ESpline@@UAEPAXI@Z      004eecf0 f i mmcamcs:spline.obj
 0001:000edd50       ??0Card2D@@QAE@XZ          004eed50 f   mmeffects:card2d.obj
 0001:000edd70       ?Init@Card2D@@QAEXPAVasCamera@@MMMMM@Z 004eed70 f   mmeffects:card2d.obj
 0001:000eddb0       ?SetDimensions@Card2D@@QAEXMMMM@Z 004eedb0 f   mmeffects:card2d.obj
 0001:000edea0       ?SetPosition@Card2D@@QAEXMM@Z 004eeea0 f   mmeffects:card2d.obj
 0001:000edec0       ?SetAlpha@Card2D@@QAEXM@Z  004eeec0 f   mmeffects:card2d.obj
 0001:000edf20       ?Update@Card2D@@UAEXXZ     004eef20 f   mmeffects:card2d.obj
 0001:000edf30       ?Cull@Card2D@@EAEXXZ       004eef30 f   mmeffects:card2d.obj
 0001:000ee140       ??_ECard2D@@UAEPAXI@Z      004ef140 f i mmeffects:card2d.obj
 0001:000ee140       ??_GCard2D@@UAEPAXI@Z      004ef140 f i mmeffects:card2d.obj
 0001:000ee170       ??1Card2D@@UAE@XZ          004ef170 f i mmeffects:card2d.obj
 0001:000ee180       ?ddGDIFlip@@YAXXZ          004ef180 f   mmeffects:mmtext.obj
 0001:000ee190       ??0mmText@@QAE@XZ          004ef190 f   mmeffects:mmtext.obj
 0001:000ee1a0       ??1mmText@@QAE@XZ          004ef1a0 f   mmeffects:mmtext.obj
 0001:000ee1b0       ?CreateLocFont@mmText@@SAPAXPAULocString@@H@Z 004ef1b0 f   mmeffects:mmtext.obj
 0001:000ee280       ?CreateFont@mmText@@SAPAXPADH@Z 004ef280 f   mmeffects:mmtext.obj
 0001:000ee2b0       ?DeleteFont@mmText@@SAXPAX@Z 004ef2b0 f   mmeffects:mmtext.obj
 0001:000ee2c0       ?GetDC@mmText@@SAPAXPAVagiSurfaceDesc@@@Z 004ef2c0 f   mmeffects:mmtext.obj
 0001:000ee360       ?ReleaseDC@mmText@@SAXXZ   004ef360 f   mmeffects:mmtext.obj
 0001:000ee410       ?CreateFitBitmap@mmText@@SAPAVagiBitmap@@PADPAXHH@Z 004ef410 f   mmeffects:mmtext.obj
 0001:000ee630       ?Draw@mmText@@QAEXPAVagiSurfaceDesc@@MMPADPAX@Z 004ef630 f   mmeffects:mmtext.obj
 0001:000ee6c0       ?Draw2@mmText@@QAEXPAVagiSurfaceDesc@@MMPADPAXI@Z 004ef6c0 f   mmeffects:mmtext.obj
 0001:000ee7b0       ??0mmTextNode@@QAE@XZ      004ef7b0 f   mmeffects:mmtext.obj
 0001:000ee830       ??1mmTextNode@@UAE@XZ      004ef830 f   mmeffects:mmtext.obj
 0001:000ee8a0       ?Init@mmTextNode@@QAEXMMMMHH@Z 004ef8a0 f   mmeffects:mmtext.obj
 0001:000ee9f0       ?SetBGColor@mmTextNode@@QAEXAAVVector4@@@Z 004ef9f0 f   mmeffects:mmtext.obj
 0001:000eea50       ?SetFGColor@mmTextNode@@QAEXAAVVector4@@@Z 004efa50 f   mmeffects:mmtext.obj
 0001:000eeab0       ?GetFGColor@mmTextNode@@QAEIXZ 004efab0 f   mmeffects:mmtext.obj
 0001:000eeac0       ?SetEffects@mmTextNode@@QAEXHH@Z 004efac0 f   mmeffects:mmtext.obj
 0001:000eeaf0       ?GetTextDimensions@mmTextNode@@QAEXPAXPAULocString@@AAM2@Z 004efaf0 f   mmeffects:mmtext.obj
 0001:000eec30       ?SetTextPosition@mmTextNode@@QAEXHMM@Z 004efc30 f   mmeffects:mmtext.obj
 0001:000eec90       ?AddText@mmTextNode@@QAEHPAXPAULocString@@HMM@Z 004efc90 f   mmeffects:mmtext.obj
 0001:000eeda0       ?SetString@mmTextNode@@QAEXHPAULocString@@@Z 004efda0 f   mmeffects:mmtext.obj
 0001:000eee00       ?SetPosition@mmTextNode@@QAEXHMM@Z 004efe00 f   mmeffects:mmtext.obj
 0001:000eee60       ?Printf@mmTextNode@@QAAXPBDZZ 004efe60 f   mmeffects:mmtext.obj
 0001:000eee90       ?Update@mmTextNode@@UAEXXZ 004efe90 f   mmeffects:mmtext.obj
 0001:000eeec0       ?RenderText@mmTextNode@@QAEXPAVagiSurfaceDesc@@PAUmmTextData@@HI@Z 004efec0 f   mmeffects:mmtext.obj
 0001:000ef0f0       ?Cull@mmTextNode@@UAEXXZ   004f00f0 f   mmeffects:mmtext.obj
 0001:000ef1d0       ??_GmmTextNode@@UAEPAXI@Z  004f01d0 f i mmeffects:mmtext.obj
 0001:000ef200       ??0mmNumberFont@@QAE@XZ    004f0200 f   mmeffects:mmnumber.obj
 0001:000ef2d0       ??1mmNumberFont@@QAE@XZ    004f02d0 f   mmeffects:mmnumber.obj
 0001:000ef320       ?LoadFont@mmNumberFont@@QAEXPADHI@Z 004f0320 f   mmeffects:mmnumber.obj
 0001:000ef420       ?LoadLocFont@mmNumberFont@@QAEXPADPAULocString@@HI@Z 004f0420 f   mmeffects:mmnumber.obj
 0001:000ef5b0       ??0mmNumber@@QAE@XZ        004f05b0 f   mmeffects:mmnumber.obj
 0001:000ef640       ??1mmNumber@@UAE@XZ        004f0640 f   mmeffects:mmnumber.obj
 0001:000ef650       ?Init@mmNumber@@QAEXPAVmmNumberFont@@MM@Z 004f0650 f   mmeffects:mmnumber.obj
 0001:000ef6c0       ?SetString@mmNumber@@QAEXPAD@Z 004f06c0 f   mmeffects:mmnumber.obj
 0001:000ef6f0       ?Printf@mmNumber@@QAAXPBDZZ 004f06f0 f   mmeffects:mmnumber.obj
 0001:000ef710       ?Update@mmNumber@@UAEXXZ   004f0710 f   mmeffects:mmnumber.obj
 0001:000ef730       ?Cull@mmNumber@@UAEXXZ     004f0730 f   mmeffects:mmnumber.obj
 0001:000ef840       ?AddWidgets@mmNumber@@QAEXPAVBank@@@Z 004f0840 f   mmeffects:mmnumber.obj
 0001:000ef850       ?DeclareFields@mmNumber@@SAXXZ 004f0850 f   mmeffects:mmnumber.obj
 0001:000ef9c0       ?GetClass@mmNumber@@UAEPAVMetaClass@@XZ 004f09c0 f   mmeffects:mmnumber.obj
 0001:000ef9d0       ??0asMeshSetForm@@QAE@XZ   004f09d0 f   mmeffects:meshform.obj
 0001:000ef9f0       ?SetShape@asMeshSetForm@@QAEXPAD0PAVVector3@@@Z 004f09f0 f   mmeffects:meshform.obj
 0001:000efa30       ?SetZRead@asMeshSetForm@@QAEXH@Z 004f0a30 f   mmeffects:meshform.obj
 0001:000efa50       ?SetZWrite@asMeshSetForm@@QAEXH@Z 004f0a50 f   mmeffects:meshform.obj
 0001:000efa70       ?Update@asMeshSetForm@@UAEXXZ 004f0a70 f   mmeffects:meshform.obj
 0001:000efa90       ?Cull@asMeshSetForm@@UAEXXZ 004f0a90 f   mmeffects:meshform.obj
 0001:000efba0       ??_EasMeshSetForm@@UAEPAXI@Z 004f0ba0 f i mmeffects:meshform.obj
 0001:000efba0       ??_GasMeshSetForm@@UAEPAXI@Z 004f0ba0 f i mmeffects:meshform.obj
 0001:000efbd0       ??1asMeshSetForm@@UAE@XZ   004f0bd0 f i mmeffects:meshform.obj
 0001:000efbe0       ??0asParticles@@QAE@XZ     004f0be0 f   mmeffects:ptx.obj
 0001:000efc50       ??1asParticles@@UAE@XZ     004f0c50 f   mmeffects:ptx.obj
 0001:000efcd0       ?Init@asParticles@@QAEXHHHHPAUagiMeshCardVertex@@@Z 004f0cd0 f   mmeffects:ptx.obj
 0001:000efd40       ?Reset@asParticles@@UAEXXZ 004f0d40 f   mmeffects:ptx.obj
 0001:000efd50       ?SetTexture@asParticles@@QAEXPAVagiTexDef@@@Z 004f0d50 f   mmeffects:ptx.obj
 0001:000efd80       ?SetTexture@asParticles@@QAEXPAD@Z 004f0d80 f   mmeffects:ptx.obj
 0001:000efdd0       ?Update@asParticles@@UAEXXZ 004f0dd0 f   mmeffects:ptx.obj
 0001:000f0120       ?Blast@asParticles@@QAEXHPAVasBirthRule@@@Z 004f1120 f   mmeffects:ptx.obj
 0001:000f01c0       ?cmpPtx@@YAHPBX0@Z         004f11c0 f   mmeffects:ptx.obj
 0001:000f01e0       ?Cull@asParticles@@UAEXXZ  004f11e0 f   mmeffects:ptx.obj
 0001:000f0280       ?AddWidgets@asParticles@@QAEXPAVBank@@@Z 004f1280 f   mmeffects:ptx.obj
 0001:000f0290       ?DeclareFields@asParticles@@SAXXZ 004f1290 f   mmeffects:ptx.obj
 0001:000f03f0       ?GetClass@asParticles@@UAEPAVMetaClass@@XZ 004f13f0 f   mmeffects:ptx.obj
 0001:000f0400       ??_EasParticles@@UAEPAXI@Z 004f1400 f i mmeffects:ptx.obj
 0001:000f0460       ??0asBirthRule@@QAE@XZ     004f1460 f   mmeffects:birth.obj
 0001:000f0510       ?InitSpark@asBirthRule@@QAEXPAUasSparkInfo@@PAUasSparkPos@@@Z 004f1510 f   mmeffects:birth.obj
 0001:000f0790       ?AddWidgets@asBirthRule@@QAEXPAVBank@@@Z 004f1790 f   mmeffects:birth.obj
 0001:000f07a0       ?DeclareFields@asBirthRule@@SAXXZ 004f17a0 f   mmeffects:birth.obj
 0001:000f0b20       ?GetClass@asBirthRule@@UAEPAVMetaClass@@XZ 004f1b20 f   mmeffects:birth.obj
 0001:000f0b30       ??_EasBirthRule@@UAEPAXI@Z 004f1b30 f i mmeffects:birth.obj
 0001:000f0c00       ?GetSparkLut@@YAPAVasSparkLut@@PAD@Z 004f1c00 f   mmeffects:linespark.obj
 0001:000f0c40       ?Init@asSparkLut@@QAEXPAD@Z 004f1c40 f   mmeffects:linespark.obj
 0001:000f0e10       ?Init@asLineSparks@@QAEXHPAVasSparkLut@@@Z 004f1e10 f   mmeffects:linespark.obj
 0001:000f0f00       ?RadialBlast@asLineSparks@@QAEXHAAVVector3@@0@Z 004f1f00 f   mmeffects:linespark.obj
 0001:000f1240       ?Update@asLineSparks@@QAEXXZ 004f2240 f   mmeffects:linespark.obj
 0001:000f1280       ?Update@asLineSparks@@QAEXM@Z 004f2280 f   mmeffects:linespark.obj
 0001:000f1450       ?Draw@asLineSparks@@QAEXXZ 004f2450 f   mmeffects:linespark.obj
 0001:000f14e0       ??0mmDamage@@QAE@XZ        004f24e0 f   mmeffects:damage.obj
 0001:000f14f0       ??1mmDamage@@QAE@XZ        004f24f0 f   mmeffects:damage.obj
 0001:000f1500       ?Init@mmDamage@@QAEXPAVagiMeshSet@@@Z 004f2500 f   mmeffects:damage.obj
 0001:000f16e0       ?Reset@mmDamage@@QAEXH@Z   004f26e0 f   mmeffects:damage.obj
 0001:000f1730       ?Apply@mmDamage@@QAEXAAVVector3@@M@Z 004f2730 f   mmeffects:damage.obj
 0001:000f1970       ??0mmVehicleForm@@QAE@XZ   004f2970 f   mmeffects:vehform.obj
 0001:000f19d0       ?SetShape@mmVehicleForm@@QAEXPAD00PAVVector3@@@Z 004f29d0 f   mmeffects:vehform.obj
 0001:000f1a40       ?Update@mmVehicleForm@@UAEXXZ 004f2a40 f   mmeffects:vehform.obj
 0001:000f1a60       ?Cull@mmVehicleForm@@UAEXXZ 004f2a60 f   mmeffects:vehform.obj
 0001:000f1bc0       ??_GmmVehicleForm@@UAEPAXI@Z 004f2bc0 f i mmeffects:vehform.obj
 0001:000f1bf0       ??0mmMouseSteerBar@@QAE@XZ 004f2bf0 f   mmeffects:mousesteerbar.obj
 0001:000f1c10       ??1mmMouseSteerBar@@UAE@XZ 004f2c10 f   mmeffects:mousesteerbar.obj
 0001:000f1c20       ?Init@mmMouseSteerBar@@QAEXMMPAM@Z 004f2c20 f   mmeffects:mousesteerbar.obj
 0001:000f1cc0       ?Update@mmMouseSteerBar@@UAEXXZ 004f2cc0 f   mmeffects:mousesteerbar.obj
 0001:000f1cf0       ?Cull@mmMouseSteerBar@@UAEXXZ 004f2cf0 f   mmeffects:mousesteerbar.obj
 0001:000f1d70       ??_GmmMouseSteerBar@@UAEPAXI@Z 004f2d70 f i mmeffects:mousesteerbar.obj
 0001:000f1d70       ??_EmmMouseSteerBar@@UAEPAXI@Z 004f2d70 f i mmeffects:mousesteerbar.obj
 0001:000f1eb0       ??0agiTexSorter@@QAE@XZ    004f2eb0 f   agiworld:texsort.obj
 0001:000f20d0       ??1agiTexSorter@@QAE@XZ    004f30d0 f   agiworld:texsort.obj
 0001:000f20e0       ?GetEnv@agiTexSorter@@SAPAVagiPolySet@@PAVagiTexDef@@HH@Z 004f30e0 f   agiworld:texsort.obj
 0001:000f21a0       ?BeginVerts@agiTexSorter@@SAPAVagiPolySet@@PAVagiTexDef@@HH@Z 004f31a0 f   agiworld:texsort.obj
 0001:000f23f0       ?BeginVerts2@agiTexSorter@@SAPAVagiPolySet@@PAVagiTexDef@@0HH@Z 004f33f0 f   agiworld:texsort.obj
 0001:000f2670       ?EndVerts@agiTexSorter@@SAXXZ 004f3670 f   agiworld:texsort.obj
 0001:000f26c0       ?EndVerts2@agiTexSorter@@SAXXZ 004f36c0 f   agiworld:texsort.obj
 0001:000f2710       ?Cull@agiTexSorter@@QAEXH@Z 004f3710 f   agiworld:texsort.obj
 0001:000f27d0       ?DoTexture@agiTexSorter@@SAXPAVagiPolySet@@@Z 004f37d0 f   agiworld:texsort.obj
 0001:000f2a30       ?GetPackedTexture@@YAPAVagiTexDef@@PADH@Z 004f3a30 f   agiworld:texsort.obj
 0001:000f2c70       ?SetClipMode@@YAXH@Z       004f3c70 f   agiworld:meshrend.obj
 0001:000f2d10       ?InitMtx@agiMeshSet@@KIXAAVagiViewParameters@@H@Z 004f3d10 f   agiworld:meshrend.obj
 0001:000f2fe0       ?InitLocalize@agiMeshSet@@SAXXZ 004f3fe0 f   agiworld:meshrend.obj
 0001:000f30a0       ?Localize@agiMeshSet@@SAXAAVVector3@@0@Z 004f40a0 f   agiworld:meshrend.obj
 0001:000f3150       ?LocalizeDirection@agiMeshSet@@SAXAAVVector3@@0@Z 004f4150 f   agiworld:meshrend.obj
 0001:000f31e0       ?Init@agiMeshSet@@SIXH@Z   004f41e0 f   agiworld:meshrend.obj
 0001:000f3260       ?ShadowInit@agiMeshSet@@KIXABVVector4@@ABVVector3@@@Z 004f4260 f   agiworld:meshrend.obj
 0001:000f3490       ?InitViewport@agiMeshSet@@KIXAAVagiViewParameters@@@Z 004f4490 f   agiworld:meshrend.obj
 0001:000f36a0       ?SetFog@agiMeshSet@@SAXMH@Z 004f46a0 f   agiworld:meshrend.obj
 0001:000f36d0       ?Transform@agiMeshSet@@KIXPAVVector4@@PAVVector3@@H@Z 004f46d0 f   agiworld:meshrend.obj
 0001:000f3940       ?ShadowTransform@agiMeshSet@@KIXPAVVector4@@PAVVector3@@H@Z 004f4940 f   agiworld:meshrend.obj
 0001:000f3bd0       ?TransformOutcode@agiMeshSet@@KIIPAEPAVVector4@@PAVVector3@@H@Z 004f4bd0 f   agiworld:meshrend.obj
 0001:000f3f70       ?EyePlaneOutcode@@YAIPAEEAAVVector4@@PAVVector3@@H@Z 004f4f70 f   agiworld:meshrend.obj
 0001:000f4010       ?ShadowTransformOutcode@agiMeshSet@@KIIPAEPAVVector4@@PAVVector3@@H@Z 004f5010 f   agiworld:meshrend.obj
 0001:000f43d0       ?begin_invert@@YIXPAVVector4@@@Z 004f53d0 f   agiworld:meshrend.obj
 0001:000f43e0       ?end_invert@@YIXPAVVector4@@@Z 004f53e0 f   agiworld:meshrend.obj
 0001:000f43f0       ?BeginGfx@agiMeshSet@@AAEXXZ 004f53f0 f   agiworld:meshrend.obj
 0001:000f4400       ?EndGfx@agiMeshSet@@AAEXXZ 004f5400 f   agiworld:meshrend.obj
 0001:000f4410       ?ClipTri@agiMeshSet@@IAEXHHHH@Z 004f5410 f   agiworld:meshrend.obj
 0001:000f5480       ?Draw@agiMeshSet@@QAEHI@Z  004f6480 f   agiworld:meshrend.obj
 0001:000f54f0       ?DrawShadow@agiMeshSet@@QAEXIABVVector4@@ABVVector3@@@Z 004f64f0 f   agiworld:meshrend.obj
 0001:000f5580       ?DrawColor@agiMeshSet@@QAEHII@Z 004f6580 f   agiworld:meshrend.obj
 0001:000f55f0       ?DrawLit@agiMeshSet@@QAEHP6AXPAEPAI1PAV1@@ZI1@Z 004f65f0 f   agiworld:meshrend.obj
 0001:000f56b0       ?DrawLitEnv@agiMeshSet@@QAEXP6AXPAEPAI1PAV1@@ZPAVagiTexDef@@AAVMatrix34@@I@Z 004f66b0 f   agiworld:meshrend.obj
 0001:000f57c0       ?DrawLitSph@agiMeshSet@@QAEXP6AXPAEPAI1PAV1@@ZPAVagiTexDef@@I@Z 004f67c0 f   agiworld:meshrend.obj
 0001:000f5870       ?Geometry@agiMeshSet@@QAEHIPAVVector3@@PAVVector4@@@Z 004f6870 f   agiworld:meshrend.obj
 0001:000f5e30       ?ShadowGeometry@agiMeshSet@@QAEHIPAVVector3@@ABVVector4@@ABV2@@Z 004f6e30 f   agiworld:meshrend.obj
 0001:000f6210       ?FirstPass_SW_UV_CPV_DYNTEX@agiMeshSet@@QAEXPAIPAVVector2@@I@Z 004f7210 f   agiworld:meshrend.obj
 0001:000f6810       ?FirstPass_SW_UV_CPV_noDYNTEX@agiMeshSet@@QAEXPAIPAVVector2@@I@Z 004f7810 f   agiworld:meshrend.obj
 0001:000f6df0       ?FirstPass_SW_UV_noCPV_DYNTEX@agiMeshSet@@QAEXPAIPAVVector2@@I@Z 004f7df0 f   agiworld:meshrend.obj
 0001:000f7210       ?FirstPass_SW_UV_noCPV_noDYNTEX@agiMeshSet@@QAEXPAIPAVVector2@@I@Z 004f8210 f   agiworld:meshrend.obj
 0001:000f7610       ?FirstPass_SW_noUV_CPV_DYNTEX@agiMeshSet@@QAEXPAIPAVVector2@@I@Z 004f8610 f   agiworld:meshrend.obj
 0001:000f7ac0       ?FirstPass_SW_noUV_CPV_noDYNTEX@agiMeshSet@@QAEXPAIPAVVector2@@I@Z 004f8ac0 f   agiworld:meshrend.obj
 0001:000f7f50       ?FirstPass_SW_noUV_noCPV_DYNTEX@agiMeshSet@@QAEXPAIPAVVector2@@I@Z 004f8f50 f   agiworld:meshrend.obj
 0001:000f8220       ?FirstPass_SW_noUV_noCPV_noDYNTEX@agiMeshSet@@QAEXPAIPAVVector2@@I@Z 004f9220 f   agiworld:meshrend.obj
 0001:000f84d0       ?FirstPass_HW_UV_CPV_DYNTEX@agiMeshSet@@QAEXPAIPAVVector2@@I@Z 004f94d0 f   agiworld:meshrend.obj
 0001:000f8c50       ?FirstPass_HW_UV_CPV_noDYNTEX@agiMeshSet@@QAEXPAIPAVVector2@@I@Z 004f9c50 f   agiworld:meshrend.obj
 0001:000f93c0       ?FirstPass_HW_UV_noCPV_DYNTEX@agiMeshSet@@QAEXPAIPAVVector2@@I@Z 004fa3c0 f   agiworld:meshrend.obj
 0001:000f9960       ?FirstPass_HW_UV_noCPV_noDYNTEX@agiMeshSet@@QAEXPAIPAVVector2@@I@Z 004fa960 f   agiworld:meshrend.obj
 0001:000f9ef0       ?FirstPass_HW_noUV_CPV_DYNTEX@agiMeshSet@@QAEXPAIPAVVector2@@I@Z 004faef0 f   agiworld:meshrend.obj
 0001:000fa550       ?FirstPass_HW_noUV_CPV_noDYNTEX@agiMeshSet@@QAEXPAIPAVVector2@@I@Z 004fb550 f   agiworld:meshrend.obj
 0001:000faba0       ?FirstPass_HW_noUV_noCPV_DYNTEX@agiMeshSet@@QAEXPAIPAVVector2@@I@Z 004fbba0 f   agiworld:meshrend.obj
 0001:000fb030       ?FirstPass_HW_noUV_noCPV_noDYNTEX@agiMeshSet@@QAEXPAIPAVVector2@@I@Z 004fc030 f   agiworld:meshrend.obj
 0001:000fb4a0       ?FirstPass@agiMeshSet@@QAEXPAIPAVVector2@@I@Z 004fc4a0 f   agiworld:meshrend.obj
 0001:000fb4f0       ?MultiTexEnvMap@agiMeshSet@@QAEXPAIIPAVagiTexDef@@AAVMatrix34@@@Z 004fc4f0 f   agiworld:meshrend.obj
 0001:000fbe60       ?EnvMap@agiMeshSet@@QAEXAAVMatrix34@@PAVagiTexDef@@I@Z 004fce60 f   agiworld:meshrend.obj
 0001:000fc4c0       ?SphereMap@agiMeshSet@@QAEXPAVagiTexDef@@I@Z 004fd4c0 f   agiworld:meshrend.obj
 0001:000fce60       ?DrawNormals@agiMeshSet@@QAEXAAVVector3@@@Z 004fde60 f   agiworld:meshrend.obj
 0001:000fce70       ?Init@agiMeshCardInfo@@QAEXHPAUagiMeshCardVertex@@HHH@Z 004fde70 f   agiworld:meshrend.obj
 0001:000fd020       ?InitCards@agiMeshSet@@SAXAAUagiMeshCardInfo@@@Z 004fe020 f   agiworld:meshrend.obj
 0001:000fd060       ?DrawCard@agiMeshSet@@SAXAAVVector3@@MIII@Z 004fe060 f   agiworld:meshrend.obj
 0001:000fdb80       ?DrawLines@agiMeshSet@@SAXPAVVector3@@0PAIH@Z 004feb80 f   agiworld:meshrend.obj
 0001:000fdfd0       ?DrawWideLines@agiMeshSet@@SAXPAVVector3@@0PAMPAIH@Z 004fefd0 f   agiworld:meshrend.obj
 0001:000fe650       ?Triangle@agiPolySet@@QAEXHHH@Z 004ff650 f i agiworld:meshrend.obj
 0001:000fe810       ?agiMeshLighterReset@@YAXXZ 004ff810 f   agiworld:meshlight.obj
 0001:000fe900       ?agiMeshLighterQuarter@@YAXPAEPAI1PAVagiMeshSet@@@Z 004ff900 f   agiworld:meshlight.obj
 0001:000feac0       ?agiMeshLighterUpdateColors@@YAXXZ 004ffac0 f   agiworld:meshlight.obj
 0001:000fecb0       ?agiMeshLighterTriple@@YAXPAEPAI1PAVagiMeshSet@@@Z 004ffcb0 f   agiworld:meshlight.obj
 0001:000ff1e0       ?agiMeshPrelight@@YAXPAIPAVagiMeshSet@@AAVMatrix34@@@Z 005001e0 f   agiworld:meshlight.obj
 0001:000ff3b0       ?agiBeginCones@@YAXXZ      005003b0 f   agiworld:meshlight.obj
 0001:000ff3c0       ?agiDeclareCone@@YAXAAVVector3@@00MM0H@Z 005003c0 f   agiworld:meshlight.obj
 0001:000ff490       ?agiConeLighter@@YAXPAEPAI1PAVagiMeshSet@@@Z 00500490 f   agiworld:meshlight.obj
 0001:000ffab0       ?agiDrawCones@@YAXXZ       00500ab0 f   agiworld:meshlight.obj
 0001:000ffaf0       ?agiMeshLighterSpecular@@YAXPAEPAI1PAVagiMeshSet@@@Z 00500af0 f   agiworld:meshlight.obj
 0001:000ffc30       ?mystrtok@@YAPADPADPBD@Z   00500c30 f   agiworld:texsheet.obj
 0001:000ffc90       ?Load@agiTexSheet@@QAEXPAD@Z 00500c90 f   agiworld:texsheet.obj
 0001:001001a0       ?Kill@agiTexSheet@@QAEXXZ  005011a0 f   agiworld:texsheet.obj
 0001:001001d0       ?Save@agiTexSheet@@QAEXPAD@Z 005011d0 f   agiworld:texsheet.obj
 0001:00100440       ?Lookup@agiTexSheet@@QAEPAUagiTexProp@@PADH@Z 00501440 f   agiworld:texsheet.obj
 0001:001004a0       ?LookupAlternate@agiTexSheet@@QAEPAUagiTexProp@@PAD@Z 005014a0 f   agiworld:texsheet.obj
 0001:00100510       ?GetVariationCount@agiTexSheet@@QAEHPAD@Z 00501510 f   agiworld:texsheet.obj
 0001:00100560       ?RemapName@agiTexSheet@@QAEPADPADH@Z 00501560 f   agiworld:texsheet.obj
 0001:001005a0       ?Add@agiTexSheet@@QAEXPAD@Z 005015a0 f   agiworld:texsheet.obj
 0001:00100710       ?FixTexFlags@@YAXAAVagiTexParameters@@@Z 00501710 f   agiworld:getmesh.obj
 0001:001009a0       ?GetMeshSet@@YAPAVagiMeshSet@@PAD0PAVVector3@@H@Z 005019a0 f   agiworld:getmesh.obj
 0001:00100d80       ?ModelGeometry@agiMeshModel@@QAEHIPAVbnAnimation@@H@Z 00501d80 f   agiworld:meshmodel.obj
 0001:00100e80       ?ModelDraw@agiMeshModel@@QAEHIPAVagiLitAnimation@@H@Z 00501e80 f   agiworld:meshmodel.obj
 0001:00100ea0       ?ModelDraw@agiMeshModel@@QAEHIPAVbnAnimation@@H@Z 00501ea0 f   agiworld:meshmodel.obj
 0001:00100f00       ?ModelDrawSkel@agiMeshModel@@QAEHIPAVbnAnimation@@H@Z 00501f00 f   agiworld:meshmodel.obj
 0001:001010c0       ?ModelDrawLit@agiMeshModel@@QAEHP6AXPAEPAI1PAVagiMeshSet@@@ZIPAVagiLitAnimation@@H@Z 005020c0 f   agiworld:meshmodel.obj
 0001:00101190       ??0agiLitAnimation@@QAE@PAVagiMeshModel@@PAVbnAnimation@@PAVStream@@@Z 00502190 f   agiworld:meshmodel.obj
 0001:00101230       ??0agiMeshSet@@QAE@XZ      00502230 f   agiworld:meshset.obj
 0001:00101250       ??1agiMeshSet@@QAE@XZ      00502250 f   agiworld:meshset.obj
 0001:001012e0       ?Offset@agiMeshSet@@QAEXVVector3@@@Z 005022e0 f   agiworld:meshset.obj
 0001:00101330       ?ComputePlaneEquations@agiMeshSet@@QAEXXZ 00502330 f   agiworld:meshset.obj
 0001:00101550       ?PageInCallback@agiMeshSet@@CAXPAX@Z 00502550 f   agiworld:meshset.obj
 0001:00101560       ?PageIn@agiMeshSet@@QAEXXZ 00502560 f   agiworld:meshset.obj
 0001:00101580       ?LockIfResident@agiMeshSet@@QAEHXZ 00502580 f   agiworld:meshset.obj
 0001:001015b0       ?Unlock@agiMeshSet@@QAEXXZ 005025b0 f   agiworld:meshset.obj
 0001:001015d0       ?UnlockAndFree@agiMeshSet@@QAEXXZ 005025d0 f   agiworld:meshset.obj
 0001:001015f0       ?MakeResident@agiMeshSet@@QAEXXZ 005025f0 f   agiworld:meshset.obj
 0001:00101620       ?IsFullyResident@agiMeshSet@@QAEHH@Z 00502620 f   agiworld:meshset.obj
 0001:001016a0       ??0bnSkeleton@@QAE@XZ      005026a0 f   agiworld:skeleton.obj
 0001:001016b0       ??1bnSkeleton@@QAE@XZ      005026b0 f   agiworld:skeleton.obj
 0001:001016d0       ?Load@bnSkeleton@@QAEHPBD@Z 005026d0 f   agiworld:skeleton.obj
 0001:00101a00       ?Save@bnSkeleton@@QAEHPBD@Z 00502a00 f   agiworld:skeleton.obj
 0001:00101ab0       ?Transform@bnSkeleton@@QAEXPAVMatrix34@@@Z 00502ab0 f   agiworld:skeleton.obj
 0001:00101ad0       ?Draw@bnSkeleton@@QAEXXZ   00502ad0 f   agiworld:skeleton.obj
 0001:00101ae0       ?Attach@bnSkeleton@@QAEXQAVMatrix34@@@Z 00502ae0 f   agiworld:skeleton.obj
 0001:00101b10       ?Pose@bnSkeleton@@QAEXPBVVector3@@@Z 00502b10 f   agiworld:skeleton.obj
 0001:00101b60       ?FindBone@bnSkeleton@@QAEPAVbnBone@@PADHD@Z 00502b60 f   agiworld:skeleton.obj
 0001:00101c80       ?HowMany@bnSkeleton@@QAEHPADD@Z 00502c80 f   agiworld:skeleton.obj
 0001:00101cc0       ?Load@bnAnimation@@QAEHPAD@Z 00502cc0 f   agiworld:skeleton.obj
 0001:00101e50       ?Lookup@bnAnimation@@SAPAV1@PAD@Z 00502e50 f   agiworld:skeleton.obj
 0001:00101f20       ?GetModel@@YAPAVagiMeshModel@@PAD00@Z 00502f20 f   agiworld:getmodel.obj
 0001:00102e60       ?PackNormalSlow@@YAEAAVVector3@@@Z 00503e60 f   agiworld:packnorm.obj
 0001:00102f10       ?PackNormal@@YAEAAVVector3@@@Z 00503f10 f   agiworld:packnorm.obj
 0001:00103080       ?ToScreen@agiMeshSet@@KIXPAEPAVVector4@@H@Z 00504080 f   agiworld:mrkni.obj
 0001:00103560       ?BinaryLoad@agiMeshSet@@QAEXPAVStream@@@Z 00504560 f   agiworld:meshload.obj
 0001:00103b10       ?PageOutCallback@agiMeshSet@@CAXPAXH@Z 00504b10 f   agiworld:meshload.obj
 0001:00103c30       ?DoPageIn@agiMeshSet@@AAEXXZ 00504c30 f   agiworld:meshload.obj
 0001:001040b0       ??0bnBone@@QAE@XZ          005050b0 f   agiworld:bone.obj
 0001:00104110       ?AddChild@bnBone@@QAEXPAV1@@Z 00505110 f   agiworld:bone.obj
 0001:00104150       ?Load@bnBone@@QAEHPAVTokenizer@@PAPAV1@@Z 00505150 f   agiworld:bone.obj
 0001:00104240       ?Transform@bnBone@@QAEXPAVMatrix34@@@Z 00505240 f   agiworld:bone.obj
 0001:00104290       ?Draw@bnBone@@QAEXXZ       00505290 f   agiworld:bone.obj
 0001:001042a0       ?Attach@bnBone@@QAEXQAVMatrix34@@AAH@Z 005052a0 f   agiworld:bone.obj
 0001:00104300       ?Pose@bnBone@@QAEXPBVVector3@@AAH@Z 00505300 f   agiworld:bone.obj
 0001:001044a0       ??0mmIntersection@@QAE@XZ  005054a0 f   mmdyna:isect.obj
 0001:001044b0       ?InitSegment@mmIntersection@@QAEXABVVector3@@0PAVmmBoundTemplate@@HH@Z 005054b0 f   mmdyna:isect.obj
 0001:001045c0       ?InitTransformedSegment@mmIntersection@@QAEXABVVector3@@0PAVmmBoundTemplate@@HH@Z 005055c0 f   mmdyna:isect.obj
 0001:001046a0       ?InitSphere@mmIntersection@@QAEXABVVector3@@MPAVmmBoundTemplate@@H@Z 005056a0 f   mmdyna:isect.obj
 0001:00104700       ?InitTransformedSphere@mmIntersection@@QAEXABVVector3@@MPAVmmBoundTemplate@@H@Z 00505700 f   mmdyna:isect.obj
 0001:00104760       ?Reset@mmIntersection@@QAEXXZ 00505760 f   mmdyna:isect.obj
 0001:001047c0       ?Transform@mmIntersection@@QAEXPBVMatrix34@@@Z 005057c0 f   mmdyna:isect.obj
 0001:00104890       ??0mmEdgeBodyIsect@@QAE@XZ 00505890 f   mmdyna:isect.obj
 0001:001048a0       ?Reset@mmEdgeBodyIsect@@QAEXXZ 005058a0 f   mmdyna:isect.obj
 0001:001048c0       ?InitSegment@mmEdgeBodyIsect@@QAEXABVVector3@@0HH0M@Z 005058c0 f   mmdyna:isect.obj
 0001:00104960       ??0mmPolygon@@QAE@XZ       00505960 f   mmdyna:poly.obj
 0001:001049a0       ?Init@mmPolygon@@AAEXXZ    005059a0 f   mmdyna:poly.obj
 0001:00104f20       ?GetST@mmPolygon@@AAEXPAVVector3@@0PAVmmBoundTemplate@@@Z 00505f20 f   mmdyna:poly.obj
 0001:00105030       ?FullSegment@mmPolygon@@AAEHPAVmmEdgeBodyIsect@@@Z 00506030 f   mmdyna:poly.obj
 0001:001055c0       ?FullSegment@mmPolygon@@AAEHPAVmmIntersection@@@Z 005065c0 f   mmdyna:poly.obj
 0001:00105b10       ?GetCorner@mmPolygon@@AAEHAAVVector3@@00000AAM@Z 00506b10 f   mmdyna:poly.obj
 0001:00105e00       ?FullSphere@mmPolygon@@AAEHPAVmmIntersection@@@Z 00506e00 f   mmdyna:poly.obj
 0001:00106430       ?Plot@mmPolygon@@AAEXPAVmmBoundTemplate@@H@Z 00507430 f   mmdyna:poly.obj
 0001:00106490       ?PlotTriangle@mmPolygon@@AAEXHHHPAVmmBoundTemplate@@H@Z 00507490 f   mmdyna:poly.obj
 0001:00106ce0       ?PlotScan@mmPolygon@@AAEXHHHPAVmmBoundTemplate@@H@Z 00507ce0 f   mmdyna:poly.obj
 0001:00106d60       ?MaxY@mmPolygon@@AAEMMMMM@Z 00507d60 f   mmdyna:poly.obj
 0001:00106eb0       ?CornersHeight@mmPolygon@@AAEMMMMM@Z 00507eb0 f   mmdyna:poly.obj
 0001:001070d0       ?CheckCorner@mmPolygon@@AAEMMMPAM00@Z 005080d0 f   mmdyna:poly.obj
 0001:00107180       ?CheckCellXSide@mmPolygon@@AAEMMMM@Z 00508180 f   mmdyna:poly.obj
 0001:00107270       ?CheckCellZSide@mmPolygon@@AAEMMMM@Z 00508270 f   mmdyna:poly.obj
 0001:001073e0       ?GetBoundTemplate@mmBoundTemplate@@SAPAV1@PAD0PAVVector3@@HHHHH@Z 005083e0 f   mmdyna:bndtmpl.obj
 0001:001074f0       ?MakeBox@mmBoundTemplate@@SAPAV1@PAD0HPAVVector3@@1@Z 005084f0 f   mmdyna:bndtmpl.obj
 0001:001079f0       ?AddRef@mmBoundTemplate@@QAEXXZ 005089f0 f   mmdyna:bndtmpl.obj
 0001:00107a10       ?Release@mmBoundTemplate@@QAEHXZ 00508a10 f   mmdyna:bndtmpl.obj
 0001:00107a40       ?ValidatePtr@mmBoundTemplate@@QAEXPAD@Z 00508a40 f   mmdyna:bndtmpl.obj
 0001:00107aa0       ??0mmBoundTemplate@@QAE@XZ 00508aa0 f   mmdyna:bndtmpl.obj
 0001:00107b60       ??1mmBoundTemplate@@QAE@XZ 00508b60 f   mmdyna:bndtmpl.obj
 0001:00107c20       ?Reset@mmBoundTemplate@@QAEXXZ 00508c20 f   mmdyna:bndtmpl.obj
 0001:00107c70       ?Collide@mmBoundTemplate@@QAEHPAV1@AAVMatrix34@@11PAVmmEdgeBodyIsect@@HHPAVasInertialCS@@3PAVVector3@@4@Z 00508c70 f   mmdyna:bndtmpl.obj
 0001:001082d0       ?CollideTerrains@mmBoundTemplate@@QAEHPAPAV1@AAVMatrix34@@PAVmmEdgeBodyIsect@@HH@Z 005092d0 f   mmdyna:bndtmpl.obj
 0001:00108500       ?Collide@mmBoundTemplate@@QAEHPAVmmEdgeBodyIsect@@H@Z 00509500 f   mmdyna:bndtmpl.obj
 0001:00108560       ?Collide@mmBoundTemplate@@QAEHPAVmmIntersection@@@Z 00509560 f   mmdyna:bndtmpl.obj
 0001:00108630       ?QuickSphereSphere@mmBoundTemplate@@QAEHPAVmmIntersection@@@Z 00509630 f   mmdyna:bndtmpl.obj
 0001:001086d0       ?QuickLineSphere@mmBoundTemplate@@QAEHPAVmmEdgeBodyIsect@@@Z 005096d0 f   mmdyna:bndtmpl.obj
 0001:00108830       ?QuickLineSphere@mmBoundTemplate@@QAEHPAVmmIntersection@@@Z 00509830 f   mmdyna:bndtmpl.obj
 0001:00108950       ?QuickSphereBox@mmBoundTemplate@@QAEHPAVmmIntersection@@@Z 00509950 f   mmdyna:bndtmpl.obj
 0001:00108a10       ?QuickLineBox@mmBoundTemplate@@QAEHPAVmmEdgeBodyIsect@@@Z 00509a10 f   mmdyna:bndtmpl.obj
 0001:00108b00       ?QuickLineBox@mmBoundTemplate@@QAEHPAVmmIntersection@@@Z 00509b00 f   mmdyna:bndtmpl.obj
 0001:00108bf0       ?SphereSphere@mmBoundTemplate@@QAEHPAVmmIntersection@@@Z 00509bf0 f   mmdyna:bndtmpl.obj
 0001:00108d90       ?SphereGeometry@mmBoundTemplate@@QAEHPAVmmIntersection@@@Z 00509d90 f   mmdyna:bndtmpl.obj
 0001:00108ec0       ?SphereTable@mmBoundTemplate@@QAEHPAVmmIntersection@@@Z 00509ec0 f   mmdyna:bndtmpl.obj
 0001:00109110       ?LineSphere@mmBoundTemplate@@QAEHPAVmmIntersection@@@Z 0050a110 f   mmdyna:bndtmpl.obj
 0001:00109120       ?LineGeometry@mmBoundTemplate@@QAEHPAVmmEdgeBodyIsect@@H@Z 0050a120 f   mmdyna:bndtmpl.obj
 0001:001091e0       ?LineTable@mmBoundTemplate@@QAEHPAVmmEdgeBodyIsect@@H@Z 0050a1e0 f   mmdyna:bndtmpl.obj
 0001:00109500       ?LineSpan@mmBoundTemplate@@QAEHPAVmmEdgeBodyIsect@@HHHH@Z 0050a500 f   mmdyna:bndtmpl.obj
 0001:00109670       ?LineGeometry@mmBoundTemplate@@QAEHPAVmmIntersection@@@Z 0050a670 f   mmdyna:bndtmpl.obj
 0001:001097a0       ?LineTable@mmBoundTemplate@@QAEHPAVmmIntersection@@@Z 0050a7a0 f   mmdyna:bndtmpl.obj
 0001:00109b20       ?LineSpan@mmBoundTemplate@@QAEHPAVmmIntersection@@HHH@Z 0050ab20 f   mmdyna:bndtmpl.obj
 0001:00109cf0       ?DrawGraph@mmBoundTemplate@@QAEXXZ 0050acf0 f   mmdyna:bndtmpl.obj
 0001:00109d00       ?InitGeometry@mmBoundTemplate@@QAEXHH@Z 0050ad00 f   mmdyna:bndtmpl2.obj
 0001:00109db0       ?AddTriangle@mmBoundTemplate@@QAEXHHHHH@Z 0050adb0 f   mmdyna:bndtmpl2.obj
 0001:00109ea0       ?AddQuad@mmBoundTemplate@@QAEXHHHHHH@Z 0050aea0 f   mmdyna:bndtmpl2.obj
 0001:0010a110       ?ComputeBounds@mmBoundTemplate@@QAEXXZ 0050b110 f   mmdyna:bndtmpl2.obj
 0001:0010a150       ?EdgeInList@@YA_NHHJPAH0@Z 0050b150 f   mmdyna:bndtmpl2.obj
 0001:0010a1b0       ?ComputeEdges@mmBoundTemplate@@QAEXXZ 0050b1b0 f   mmdyna:bndtmpl2.obj
 0001:0010a380       ?Load@mmBoundTemplate@@QAEHPAD0PAVVector3@@HHHHHH@Z 0050b380 f   mmdyna:bndtmpl2.obj
 0001:0010abf0       ?PageOutCallback@mmBoundTemplate@@CAXPAXH@Z 0050bbf0 f   mmdyna:bndtmpl2.obj
 0001:0010ad40       ?DoPageIn@mmBoundTemplate@@AAEXXZ 0050bd40 f   mmdyna:bndtmpl2.obj
 0001:0010b1a0       ?PageInCallback@mmBoundTemplate@@CAXPAX@Z 0050c1a0 f   mmdyna:bndtmpl2.obj
 0001:0010b1b0       ?PageIn@mmBoundTemplate@@QAEXXZ 0050c1b0 f   mmdyna:bndtmpl2.obj
 0001:0010b1d0       ?LockIfResident@mmBoundTemplate@@QAEHXZ 0050c1d0 f   mmdyna:bndtmpl2.obj
 0001:0010b230       ?Unlock@mmBoundTemplate@@QAEXXZ 0050c230 f   mmdyna:bndtmpl2.obj
 0001:0010b250       ?ComputeEdgeNormals@mmBoundTemplate@@QAEXXZ 0050c250 f   mmdyna:bndtmpl2.obj
 0001:0010b6e0       ?MakeTable@mmBoundTemplate@@AAEXHHH@Z 0050c6e0 f   mmdyna:bndtmpl2.obj
 0001:0010b8d0       ?DoMakeTable@mmBoundTemplate@@AAEXHHH@Z 0050c8d0 f   mmdyna:bndtmpl2.obj
 0001:0010bdf0       ?AddIndex@mmBoundTemplate@@QAEXHHH@Z 0050cdf0 f   mmdyna:bndtmpl2.obj
 0001:0010bee0       ?PlotLine@mmBoundTemplate@@QAEXVVector3@@0@Z 0050cee0 f   mmdyna:bndtmpl2.obj
 0001:0010bff0       ?PlotSpan@mmBoundTemplate@@QAEXHHH@Z 0050cff0 f   mmdyna:bndtmpl2.obj
 0001:0010c000       ?GetLocTime@@YAPADM@Z      0050d000 f   localize:localize.obj
 0001:0010c0c0       ?AngelReadString@@YAPAULocString@@I@Z 0050d0c0 f   localize:localize.obj
 0001:0010c120       ?LookupAddress@@YAXPADH@Z  0050d120 f   memory:stack.obj
 0001:0010c4b0       ?DoStackTraceback@@YAXHPAH@Z 0050d4b0 f   memory:stack.obj
 0001:0010c580       ?StackTraceback@@YAXH@Z    0050d580 f   memory:stack.obj
 0001:0010c5a0       ?LogStackTraceback@@YAHPAHH@Z 0050d5a0 f   memory:stack.obj
 0001:0010c660       ?DumpStackTraceback@@YAXPAHH@Z 0050d660 f   memory:stack.obj
 0001:0010c6b0       ?DebugLogInit@@YAXH@Z      0050d6b0 f   memory:stack.obj
 0001:0010c6f0       ?DebugLogShutdown@@YAXXZ   0050d6f0 f   memory:stack.obj
 0001:0010c710       ?DebugLog@@YAXHPAXH@Z      0050d710 f   memory:stack.obj
 0001:0010c9a0       ??0asMemoryAllocator@@QAE@XZ 0050d9a0 f   memory:allocator.obj
 0001:0010c9b0       ??1asMemoryAllocator@@QAE@XZ 0050d9b0 f   memory:allocator.obj
 0001:0010c9c0       ?Init@asMemoryAllocator@@QAEXPAXIH@Z 0050d9c0 f   memory:allocator.obj
 0001:0010ca00       ?Kill@asMemoryAllocator@@QAEXXZ 0050da00 f   memory:allocator.obj
 0001:0010ca10       ?Allocate@asMemoryAllocator@@QAEPAXI@Z 0050da10 f   memory:allocator.obj
 0001:0010cc30       ?CheckPointer@asMemoryAllocator@@QAEXPAX@Z 0050dc30 f   memory:allocator.obj
 0001:0010cc80       ?Free@asMemoryAllocator@@QAEXPAX@Z 0050dc80 f   memory:allocator.obj
 0001:0010cde0       ?Unlink@asMemoryAllocator@@AAEXPAUnode@1@@Z 0050dde0 f   memory:allocator.obj
 0001:0010ce40       ?Link@asMemoryAllocator@@AAEXPAUnode@1@@Z 0050de40 f   memory:allocator.obj
 0001:0010ce90       ?Reallocate@asMemoryAllocator@@QAEPAXPAXI@Z 0050de90 f   memory:allocator.obj
 0001:0010cef0       ?Verify@asMemoryAllocator@@AAEXPAX@Z 0050def0 f   memory:allocator.obj
 0001:0010cfb0       ?GetStats@asMemoryAllocator@@QAEXPAUasMemStats@@@Z 0050dfb0 f   memory:allocator.obj
 0001:0010d080       ?SanityCheck@asMemoryAllocator@@QAEXXZ 0050e080 f   memory:allocator.obj
 0001:0010d380       ??0asSafeHeap@@QAE@XZ      0050e380 f   memory:valloc.obj
 0001:0010d390       ??1asSafeHeap@@QAE@XZ      0050e390 f   memory:valloc.obj
 0001:0010d3a0       ?Init@asSafeHeap@@QAEXHH@Z 0050e3a0 f   memory:valloc.obj
 0001:0010d410       ?Restart@asSafeHeap@@QAEXXZ 0050e410 f   memory:valloc.obj
 0001:0010d440       ?Kill@asSafeHeap@@QAEXXZ   0050e440 f   memory:valloc.obj
 0001:0010d470       ?Activate@asSafeHeap@@IAEXXZ 0050e470 f   memory:valloc.obj
 0001:0010d4b0       ?Deactivate@asSafeHeap@@IAEXXZ 0050e4b0 f   memory:valloc.obj
 0001:0010d4e0       _malloc                    0050e4e0 f   memory:stub.obj
 0001:0010d500       _realloc                   0050e500 f   memory:stub.obj
 0001:0010d520       _calloc                    0050e520 f   memory:stub.obj
 0001:0010d560       _free                      0050e560 f   memory:stub.obj
 0001:0010d580       __msize                    0050e580 f   memory:stub.obj
 0001:0010d590       ??2@YAPAXI@Z               0050e590 f   memory:stub.obj
 0001:0010d5b0       ??3@YAXPAX@Z               0050e5b0 f   memory:stub.obj
 0001:0010d5d0       __realloc_dbg              0050e5d0 f   memory:stub.obj
 0001:0010d620       __malloc_dbg               0050e620 f   memory:stub.obj
 0001:0010d660       __free_dbg                 0050e660 f   memory:stub.obj
 0001:0010d6a0       __calloc_dbg               0050e6a0 f   memory:stub.obj
 0001:0010d700       __msize_dbg                0050e700 f   memory:stub.obj
 0001:0010d720       __CrtCheckMemory           0050e720 f   memory:stub.obj
 0001:0010d730       __CrtSetDbgFlag            0050e730 f   memory:stub.obj
 0001:0010d740       __CrtIsValidPointer        0050e740 f   memory:stub.obj
 0001:0010d780       __CrtMemCheckpoint         0050e780 f   memory:stub.obj
 0001:0010d7c0       __CrtDumpMemoryLeaks       0050e7c0 f   memory:stub.obj
 0001:0010d7f0       ??0asSimulation@@QAE@XZ    0050e7f0 f   arts7:sim.obj
 0001:0010d990       ??1asSimulation@@UAE@XZ    0050e990 f   arts7:sim.obj
 0001:0010db00       ?Quiet@asSimulation@@QAEXXZ 0050eb00 f   arts7:sim.obj
 0001:0010db30       ?Init@asSimulation@@QAEXPADHPAPAD@Z 0050eb30 f   arts7:sim.obj
 0001:0010de70       ?Reset@asSimulation@@UAEXXZ 0050ee70 f   arts7:sim.obj
 0001:0010de80       ?FirstUpdate@asSimulation@@QAEXXZ 0050ee80 f   arts7:sim.obj
 0001:0010dea0       ?Update@asSimulation@@UAEXXZ 0050eea0 f   arts7:sim.obj
 0001:0010e140       ?Device@asSimulation@@QAEXXZ 0050f140 f   arts7:sim.obj
 0001:0010e200       ?Widgets@asSimulation@@QAEXXZ 0050f200 f   arts7:sim.obj
 0001:0010e230       ?Simulate@asSimulation@@QAEXXZ 0050f230 f   arts7:sim.obj
 0001:0010e2c0       ?UpdatePaused@asSimulation@@QAEXPAVasNode@@@Z 0050f2c0 f   arts7:sim.obj
 0001:0010e330       ?ResetClock@asSimulation@@QAEXXZ 0050f330 f   arts7:sim.obj
 0001:0010e380       ?BeginOverSample@asSimulation@@QAEXH@Z 0050f380 f   arts7:sim.obj
 0001:0010e3c0       ?EndOverSample@asSimulation@@QAEXXZ 0050f3c0 f   arts7:sim.obj
 0001:0010e3f0       ?EndOverSample@asSimulation@@QAEXH@Z 0050f3f0 f   arts7:sim.obj
 0001:0010e420       ?RealTime@asSimulation@@QAEXM@Z 0050f420 f   arts7:sim.obj
 0001:0010e480       ?FixedFrame@asSimulation@@QAEXMH@Z 0050f480 f   arts7:sim.obj
 0001:0010e4c0       ?FrameLock@asSimulation@@QAEXHH@Z 0050f4c0 f   arts7:sim.obj
 0001:0010e4d0       ?Benchmark@asSimulation@@QAEXXZ 0050f4d0 f   arts7:sim.obj
 0001:0010e550       ?Pause@asSimulation@@QAEXXZ 0050f550 f   arts7:sim.obj
 0001:0010e630       ?InitPipeline@@YAHPADHPAPAD@Z 0050f630 f   arts7:sim.obj
 0001:0010e6f0       ?ShutdownPipeline@@YAXXZ   0050f6f0 f   arts7:sim.obj
 0001:0010e760       ?RestartPipeline@@YAHHHHHH@Z 0050f760 f   arts7:sim.obj
 0001:0010e860       ?VerifyTree@asNode@@QAEPADXZ 0050f860 f   arts7:sim.obj
 0001:0010e950       ?DeclareFields@asSimulation@@SAXXZ 0050f950 f   arts7:sim.obj
 0001:0010eac0       ?GetClass@asSimulation@@UAEPAVMetaClass@@XZ 0050fac0 f   arts7:sim.obj
 0001:0010ead0       ??0artsReplayChannel@@QAE@XZ 0050fad0 f i arts7:sim.obj
 0001:0010eaf0       ?DoRecord@artsReplayChannel@@UAEXPAVStream@@@Z 0050faf0 f i arts7:sim.obj
 0001:0010eb30       ?DoPlayback@artsReplayChannel@@UAEXPAVStream@@@Z 0050fb30 f i arts7:sim.obj
 0001:0010eb60       ??1artsReplayChannel@@QAE@XZ 0050fb60 f i arts7:sim.obj
 0001:0010eb70       ??_EasSimulation@@UAEPAXI@Z 0050fb70 f i arts7:sim.obj
 0001:0010ebd0       ?Kill@?$agiLib@VagiPhysParameters@@VagiPhysDef@@@@QAEXXZ 0050fbd0 f i arts7:sim.obj
 0001:0010ec10       ?Init@?$agiLib@VagiPhysParameters@@VagiPhysDef@@@@QAEXH@Z 0050fc10 f i arts7:sim.obj
 0001:0010ec90       ??0asNode@@QAE@XZ          0050fc90 f   arts7:node.obj
 0001:0010ecb0       ??1asNode@@UAE@XZ          0050fcb0 f   arts7:node.obj
 0001:0010ed20       ?SetName@asNode@@QAEXPAD@Z 0050fd20 f   arts7:node.obj
 0001:0010ed50       ?Update@asNode@@UAEXXZ     0050fd50 f   arts7:node.obj
 0001:0010edc0       ?Reset@asNode@@UAEXXZ      0050fdc0 f   arts7:node.obj
 0001:0010ede0       ?ResChange@asNode@@UAEXHH@Z 0050fde0 f   arts7:node.obj
 0001:0010ee10       ?AddChild@asNode@@QAEHPAV1@@Z 0050fe10 f   arts7:node.obj
 0001:0010ee90       ?InsertChild@asNode@@QAEHHPAV1@@Z 0050fe90 f   arts7:node.obj
 0001:0010ef20       ?RemoveChild@asNode@@QAEHH@Z 0050ff20 f   arts7:node.obj
 0001:0010efc0       ?RemoveChild@asNode@@QAEHPAV1@@Z 0050ffc0 f   arts7:node.obj
 0001:0010f000       ?RemoveAllChildren@asNode@@QAEXXZ 00510000 f   arts7:node.obj
 0001:0010f020       ?GetChild@asNode@@QAEPAV1@H@Z 00510020 f   arts7:node.obj
 0001:0010f050       ?GetNext@asNode@@QAEPAV1@XZ 00510050 f   arts7:node.obj
 0001:0010f060       ?GetLastChild@asNode@@QAEPAV1@XZ 00510060 f   arts7:node.obj
 0001:0010f0a0       ?NumChildren@asNode@@QAEHXZ 005100a0 f   arts7:node.obj
 0001:0010f0c0       ?SwitchTo@asNode@@QAEXH@Z  005100c0 f   arts7:node.obj
 0001:0010f120       ?GetParent@asNode@@QAEPAV1@PAVMetaClass@@@Z 00510120 f   arts7:node.obj
 0001:0010f160       ?GetNodeType@asNode@@QAEPADXZ 00510160 f   arts7:node.obj
 0001:0010f170       ?Load@asNode@@QAEHPAD@Z    00510170 f   arts7:node.obj
 0001:0010f260       ?Save@asNode@@QAEHPAD@Z    00510260 f   arts7:node.obj
 0001:0010f310       ?Save@asNode@@UAEXXZ       00510310 f   arts7:node.obj
 0001:0010f4f0       ?Load@asNode@@UAEXXZ       005104f0 f   arts7:node.obj
 0001:0010f6d0       ?DeclareFields@asNode@@SAXXZ 005106d0 f   arts7:node.obj
 0001:0010f8d0       ?GetClass@asNode@@UAEPAVMetaClass@@XZ 005108d0 f   arts7:node.obj
 0001:0010f8e0       ?PtrTo@@YAPAUMetaType@@PAU1@@Z 005108e0 f i arts7:node.obj
 0001:0010f910       ??_EasNode@@UAEPAXI@Z      00510910 f i arts7:node.obj
 0001:0010f970       ??0asCullManager@@QAE@HH@Z 00510970 f   arts7:cullmgr.obj
 0001:0010fa50       ??1asCullManager@@UAE@XZ   00510a50 f   arts7:cullmgr.obj
 0001:0010faf0       ?Reset@asCullManager@@UAEXXZ 00510af0 f   arts7:cullmgr.obj
 0001:0010fb50       ?DisplayVersionString@asCullManager@@IAEXXZ 00510b50 f   arts7:cullmgr.obj
 0001:0010fb70       ?Statsf@@YAXPBDZZ          00510b70 f   arts7:cullmgr.obj
 0001:0010fc00       ?PrintMiniStats@asCullManager@@IAEXXZ 00510c00 f   arts7:cullmgr.obj
 0001:0010fc90       ?PrintStats@asCullManager@@IAEXXZ 00510c90 f   arts7:cullmgr.obj
 0001:0010fd90       ?Update@asCullManager@@UAEXXZ 00510d90 f   arts7:cullmgr.obj
 0001:00110070       ?DeclareCamera@asCullManager@@UAEXPAVasCamera@@@Z 00511070 f   arts7:cullmgr.obj
 0001:001100d0       ?DeclareCullable@asCullManager@@UAEXPAVasCullable@@@Z 005110d0 f   arts7:cullmgr.obj
 0001:00110170       ?DeclareCullable2D@asCullManager@@UAEXPAVasCullable@@@Z 00511170 f   arts7:cullmgr.obj
 0001:00110210       ?DeclareBitmap@asCullManager@@QAEXPAVasCullable@@PAVagiBitmap@@@Z 00511210 f   arts7:cullmgr.obj
 0001:00110280       ?DeclarePrint@asCullManager@@QAEXPAVasCullable@@@Z 00511280 f   arts7:cullmgr.obj
 0001:001102f0       ?DeclareFields@asCullManager@@SAXXZ 005112f0 f   arts7:cullmgr.obj
 0001:00110470       ?GetClass@asCullManager@@UAEPAVMetaClass@@XZ 00511470 f   arts7:cullmgr.obj
 0001:00110480       ??_EasCullManager@@UAEPAXI@Z 00511480 f i arts7:cullmgr.obj
 0001:001104e0       ??_FasCullManager@@QAEXXZ  005114e0 f i arts7:cullmgr.obj
 0001:001104f0       ?Cull@asCullable@@UAEXXZ   005114f0 f   arts7:cullable.obj
 0001:00110500       ?DeclareFields@asCullable@@SAXXZ 00511500 f   arts7:cullable.obj
 0001:00110650       ?GetClass@asCullable@@UAEPAVMetaClass@@XZ 00511650 f   arts7:cullable.obj
 0001:00110660       ??_EasCullable@@UAEPAXI@Z  00511660 f i arts7:cullable.obj
 0001:001106c0       ??0asCullable@@QAE@XZ      005116c0 f i arts7:cullable.obj
 0001:001106d0       ??0asLamp@@QAE@XZ          005116d0 f   arts7:lamp.obj
 0001:00110790       ??1asLamp@@UAE@XZ          00511790 f   arts7:lamp.obj
 0001:00110800       ?SetColor@asLamp@@QAEXABVVector3@@M@Z 00511800 f   arts7:lamp.obj
 0001:00110840       ?SetDistant@asLamp@@QAEXXZ 00511840 f   arts7:lamp.obj
 0001:00110850       ?SetPoint@asLamp@@QAEXXZ   00511850 f   arts7:lamp.obj
 0001:00110860       ?Update@asLamp@@UAEXXZ     00511860 f   arts7:lamp.obj
 0001:00110950       ?Cull@asLamp@@UAEXXZ       00511950 f   arts7:lamp.obj
 0001:001109a0       ?FileIO@asLamp@@QAEXPAVMiniParser@@@Z 005119a0 f   arts7:lamp.obj
 0001:001109b0       ?Regen@asLamp@@AAEXXZ      005119b0 f   arts7:lamp.obj
 0001:001109d0       ?AddWidgets@asLamp@@QAEXPAVBank@@@Z 005119d0 f   arts7:lamp.obj
 0001:001109e0       ?DeclareFields@asLamp@@SAXXZ 005119e0 f   arts7:lamp.obj
 0001:00110b40       ?GetClass@asLamp@@UAEPAVMetaClass@@XZ 00511b40 f   arts7:lamp.obj
 0001:00110b50       ??0asLinearCS@@QAE@XZ      00511b50 f   arts7:linear.obj
 0001:00110bc0       ?Update@asLinearCS@@UAEXXZ 00511bc0 f   arts7:linear.obj
 0001:00110c70       ?Cull@asLinearCS@@UAEXXZ   00511c70 f   arts7:linear.obj
 0001:00110c80       ?FileIO@asLinearCS@@QAEXPAVMiniParser@@@Z 00511c80 f   arts7:linear.obj
 0001:00110c90       ?AddWidgets@asLinearCS@@QAEXPAVBank@@@Z 00511c90 f   arts7:linear.obj
 0001:00110ca0       ?DeclareFields@asLinearCS@@SAXXZ 00511ca0 f   arts7:linear.obj
 0001:00110e60       ?GetClass@asLinearCS@@UAEPAVMetaClass@@XZ 00511e60 f   arts7:linear.obj
 0001:00110e70       ??1asCamera@@UAE@XZ        00511e70 f   arts7:camera.obj
 0001:00110f00       ??0asCamera@@QAE@XZ        00511f00 f   arts7:camera.obj
 0001:001110b0       ?Update@asCamera@@UAEXXZ   005120b0 f   arts7:camera.obj
 0001:001113c0       ?SetClipArea@asCamera@@QAEXMMMM@Z 005123c0 f   arts7:camera.obj
 0001:001114f0       ?SetLighting@asCamera@@QAEXH@Z 005124f0 f   arts7:camera.obj
 0001:00111510       ?SetWorld@asCamera@@QAEXAAVMatrix34@@@Z 00512510 f   arts7:camera.obj
 0001:00111530       ?GetNearClip@asCamera@@QAEXPAVVector3@@AAVMatrix34@@W4kNearClip@1@@Z 00512530 f   arts7:camera.obj
 0001:00111a90       ?DrawBegin@asCamera@@QAEXXZ 00512a90 f   arts7:camera.obj
 0001:00111c70       ?DrawEnd@asCamera@@QAEXXZ  00512c70 f   arts7:camera.obj
 0001:00111ce0       ?SetViewport@asCamera@@QAEXMMMMH@Z 00512ce0 f   arts7:camera.obj
 0001:00111d30       ?SetView@asCamera@@QAEXMMMM@Z 00512d30 f   arts7:camera.obj
 0001:00111d80       ?SetFog@asCamera@@QAEXMMMM@Z 00512d80 f   arts7:camera.obj
 0001:00111db0       ?SetUnderlay@asCamera@@QAEXPAD@Z 00512db0 f   arts7:camera.obj
 0001:00111df0       ?SetUnderlayCB@asCamera@@QAEXPAVagiBitmap@@PAVCallback@@@Z 00512df0 f   arts7:camera.obj
 0001:00111e10       ?GetViewportWidth@asCamera@@QAEHXZ 00512e10 f   arts7:camera.obj
 0001:00111e30       ?GetViewportHeight@asCamera@@QAEHXZ 00512e30 f   arts7:camera.obj
 0001:00111e50       ?FadeOut@asCamera@@QAEXMH@Z 00512e50 f   arts7:camera.obj
 0001:00111eb0       ?FadeIn@asCamera@@QAEXMH@Z 00512eb0 f   arts7:camera.obj
 0001:00111f10       ?FileIO@asCamera@@QAEXPAVMiniParser@@@Z 00512f10 f   arts7:camera.obj
 0001:00111f20       ?SphereVisible@asCamera@@QAEMABVVector3@@MPAM@Z 00512f20 f   arts7:camera.obj
 0001:001120b0       ?SetAmbient@asCamera@@QAEXABVVector3@@@Z 005130b0 f   arts7:camera.obj
 0001:001120f0       ?SetMonochrome@asCamera@@QAEXH@Z 005130f0 f   arts7:camera.obj
 0001:00112110       ?Regen@asCamera@@AAEXXZ    00513110 f   arts7:camera.obj
 0001:00112130       ?AddWidgets@asCamera@@QAEXPAVBank@@@Z 00513130 f   arts7:camera.obj
 0001:00112140       ?DeclareFields@asCamera@@SAXXZ 00513140 f   arts7:camera.obj
 0001:001122b0       ?GetClass@asCamera@@UAEPAVMetaClass@@XZ 005132b0 f   arts7:camera.obj
 0001:001122c0       ??_EasCamera@@UAEPAXI@Z    005132c0 f i arts7:camera.obj
 0001:00112320       ??0asForm@@QAE@XZ          00513320 f   arts7:form.obj
 0001:00112340       ??1asForm@@UAE@XZ          00513340 f   arts7:form.obj
 0001:001123a0       ?SetDLP@asForm@@QAEXPAVDLP@@@Z 005133a0 f   arts7:form.obj
 0001:001123d0       ?SetShape@asForm@@QAEXPAD0PAVVector3@@HH@Z 005133d0 f   arts7:form.obj
 0001:00112420       ?SetCull@asForm@@QAEXHM@Z  00513420 f   arts7:form.obj
 0001:00112440       ?Update@asForm@@UAEXXZ     00513440 f   arts7:form.obj
 0001:00112470       ?Cull@asForm@@UAEXXZ       00513470 f   arts7:form.obj
 0001:00112500       ?Visible@asForm@@QBEHPAVasCamera@@ABVMatrix34@@@Z 00513500 f   arts7:form.obj
 0001:001126c0       ?GetBoundMin@asForm@@QAE?AVVector3@@XZ 005136c0 f   arts7:form.obj
 0001:00112710       ?GetBoundMax@asForm@@QAE?AVVector3@@XZ 00513710 f   arts7:form.obj
 0001:00112760       ?GetBoundSphere@asForm@@QAE?AVVector4@@XZ 00513760 f   arts7:form.obj
 0001:001127c0       ?FileIO@asForm@@QAEXPAVMiniParser@@@Z 005137c0 f   arts7:form.obj
 0001:001127d0       ?AddWidgets@asForm@@QAEXPAVBank@@@Z 005137d0 f   arts7:form.obj
 0001:001127e0       ?DeclareFields@asForm@@SAXXZ 005137e0 f   arts7:form.obj
 0001:00112940       ?GetClass@asForm@@UAEPAVMetaClass@@XZ 00513940 f   arts7:form.obj
 0001:00112950       ??_EasForm@@UAEPAXI@Z      00513950 f i arts7:form.obj
 0001:001129b0       ??0asDofCS@@QAE@XZ         005139b0 f   arts7:dof.obj
 0001:00112aa0       ??4asDofCS@@QAEXABV0@@Z    00513aa0 f   arts7:dof.obj
 0001:00112be0       ?Reset@asDofCS@@UAEXXZ     00513be0 f   arts7:dof.obj
 0001:00112c10       ?SetTime@asDofCS@@QAEXMMH@Z 00513c10 f   arts7:dof.obj
 0001:00112c80       ?Update@asDofCS@@UAEXXZ    00513c80 f   arts7:dof.obj
 0001:00113280       ?FileIO@asDofCS@@QAEXPAVMiniParser@@@Z 00514280 f   arts7:dof.obj
 0001:00113290       ?AddWidgets@asDofCS@@QAEXPAVBank@@@Z 00514290 f   arts7:dof.obj
 0001:001132a0       ?DeclareFields@asDofCS@@SAXXZ 005142a0 f   arts7:dof.obj
 0001:00113410       ?GetClass@asDofCS@@UAEPAVMetaClass@@XZ 00514410 f   arts7:dof.obj
 0001:00113420       ?Add@Vector3@@QAEXABV1@0@Z 00514420 f i arts7:dof.obj
 0001:00113450       ??0asViewCS@@QAE@XZ        00514450 f   arts7:view.obj
 0001:00113580       ?SetAzimuth@asViewCS@@QAEXXZ 00514580 f   arts7:view.obj
 0001:001135e0       ?Reset@asViewCS@@UAEXXZ    005145e0 f   arts7:view.obj
 0001:001137b0       ?Update@asViewCS@@UAEXXZ   005147b0 f   arts7:view.obj
 0001:00113830       ?UpdatePolar@asViewCS@@QAEXXZ 00514830 f   arts7:view.obj
 0001:00113970       ?UpdateRoam@asViewCS@@QAEXXZ 00514970 f   arts7:view.obj
 0001:00113a80       ?UpdatePOV@asViewCS@@QAEXXZ 00514a80 f   arts7:view.obj
 0001:00113ad0       ?UpdateLookAt@asViewCS@@QAEXXZ 00514ad0 f   arts7:view.obj
 0001:00113b30       ?UpdateTrack@asViewCS@@QAEXXZ 00514b30 f   arts7:view.obj
 0001:00113ef0       ?UpdateStereo@asViewCS@@QAEXXZ 00514ef0 f   arts7:view.obj
 0001:00114020       ?FileIO@asViewCS@@QAEXPAVMiniParser@@@Z 00515020 f   arts7:view.obj
 0001:00114030       ?AddWidgets@asViewCS@@QAEXPAVBank@@@Z 00515030 f   arts7:view.obj
 0001:00114040       ?DeclareFields@asViewCS@@SAXXZ 00515040 f   arts7:view.obj
 0001:001141b0       ?GetClass@asViewCS@@UAEPAVMetaClass@@XZ 005151b0 f   arts7:view.obj
 0001:001141c0       ??_EasViewCS@@UAEPAXI@Z    005151c0 f i arts7:view.obj
 0001:00114220       ??1asViewCS@@UAE@XZ        00515220 f i arts7:view.obj
 0001:00114230       ?Reset@asBenchStats@@QAEXXZ 00515230 f   arts7:benchstats.obj
 0001:00114270       ?Print@asBenchStats@@QAEXXZ 00515270 f   arts7:benchstats.obj
 0001:00114280       ?Average@asBenchStats@@QAEXPAV1@MH@Z 00515280 f   arts7:benchstats.obj
 0001:001143a0       ?Current@asBenchStats@@QAEXPAV1@@Z 005153a0 f   arts7:benchstats.obj
 0001:00114960       ?d3dCreatePipeline@@YAPAVagiPipeline@@HPAPAD@Z 00515960 f   agid3d:pcpipe.obj
 0001:00114a10       ??0agiD3DRPipeline@@QAE@XZ 00515a10 f   agid3d:d3drpipe.obj
 0001:00114a30       ??1agiD3DRPipeline@@UAE@XZ 00515a30 f   agid3d:d3drpipe.obj
 0001:00114a40       ?BeginGfx@agiD3DRPipeline@@UAEHXZ 00515a40 f   agid3d:d3drpipe.obj
 0001:00114ac0       ?EndGfx@agiD3DRPipeline@@UAEXXZ 00515ac0 f   agid3d:d3drpipe.obj
 0001:00114af0       ?CreateViewport@agiD3DRPipeline@@UAEPAVagiViewport@@XZ 00515af0 f   agid3d:d3drpipe.obj
 0001:00114b50       ?CreateDLP@agiD3DRPipeline@@UAEPAVDLP@@XZ 00515b50 f   agid3d:d3drpipe.obj
 0001:00114b60       ?BeginScene@agiD3DRPipeline@@UAEXXZ 00515b60 f   agid3d:d3drpipe.obj
 0001:00114b70       ?EndScene@agiD3DRPipeline@@UAEXXZ 00515b70 f   agid3d:d3drpipe.obj
 0001:00114b90       ?CreateLightModel@agiD3DRPipeline@@UAEPAVagiLightModel@@XZ 00515b90 f   agid3d:d3drpipe.obj
 0001:00114ba0       ?CreateLight@agiD3DRPipeline@@UAEPAVagiLight@@XZ 00515ba0 f   agid3d:d3drpipe.obj
 0001:00114bb0       ??_GagiD3DRPipeline@@UAEPAXI@Z 00515bb0 f i agid3d:d3drpipe.obj
 0001:00114bb0       ??_EagiD3DRPipeline@@UAEPAXI@Z 00515bb0 f i agid3d:d3drpipe.obj
 0001:00114be0       ?Prober@agiD3DTexDef@@SAXPAX@Z 00515be0 f   agid3d:d3dpipe.obj
 0001:00114ca0       ??0agiD3DPipeline@@QAE@XZ  00515ca0 f   agid3d:d3dpipe.obj
 0001:00114ce0       ?BeginGfx@agiD3DPipeline@@UAEHXZ 00515ce0 f   agid3d:d3dpipe.obj
 0001:00115b20       ??1agiD3DPipeline@@UAE@XZ  00516b20 f   agid3d:d3dpipe.obj
 0001:00115b70       ?RestoreCallback@@YGJPAUIDirectDrawSurface4@@PAU_DDSURFACEDESC2@@PAX@Z 00516b70 f   agid3d:d3dpipe.obj
 0001:00115b90       ?BeginFrame@agiD3DPipeline@@UAEXXZ 00516b90 f   agid3d:d3dpipe.obj
 0001:00115c20       ?BeginScene@agiD3DPipeline@@UAEXXZ 00516c20 f   agid3d:d3dpipe.obj
 0001:00115c70       ?EndScene@agiD3DPipeline@@UAEXXZ 00516c70 f   agid3d:d3dpipe.obj
 0001:00115cc0       ?EndFrame@agiD3DPipeline@@UAEXXZ 00516cc0 f   agid3d:d3dpipe.obj
 0001:00115e00       ?callb@@YGJPAUIDirectDrawSurface4@@PAU_DDSURFACEDESC2@@PAX@Z 00516e00 f   agid3d:d3dpipe.obj
 0001:001160b0       ?DumpStatus@agiD3DPipeline@@UAEXAAUagiMemStatus@@@Z 005170b0 f   agid3d:d3dpipe.obj
 0001:001161d0       ?EndGfx@agiD3DPipeline@@UAEXXZ 005171d0 f   agid3d:d3dpipe.obj
 0001:001162c0       ?CreateViewport@agiD3DPipeline@@UAEPAVagiViewport@@XZ 005172c0 f   agid3d:d3dpipe.obj
 0001:00116320       ?CreateMtlDef@agiD3DPipeline@@UAEPAVagiMtlDef@@XZ 00517320 f   agid3d:d3dpipe.obj
 0001:00116380       ?CreateTexDef@agiD3DPipeline@@UAEPAVagiTexDef@@XZ 00517380 f   agid3d:d3dpipe.obj
 0001:001163e0       ?CreateTexLut@agiD3DPipeline@@UAEPAVagiTexLut@@XZ 005173e0 f   agid3d:d3dpipe.obj
 0001:00116470       ?CreateLight@agiD3DPipeline@@UAEPAVagiLight@@XZ 00517470 f   agid3d:d3dpipe.obj
 0001:001164d0       ?ClearAll@agiD3DPipeline@@UAEXH@Z 005174d0 f   agid3d:d3dpipe.obj
 0001:00116590       ?CreateBitmap@agiD3DPipeline@@UAEPAVagiBitmap@@XZ 00517590 f   agid3d:d3dpipe.obj
 0001:001165f0       ?CopyBitmap@agiD3DPipeline@@UAEXHHPAVagiBitmap@@HHHH@Z 005175f0 f   agid3d:d3dpipe.obj
 0001:00116630       ?Defragment@agiD3DPipeline@@UAEXXZ 00517630 f   agid3d:d3dpipe.obj
 0001:00116640       ??_GagiD3DPipeline@@UAEPAXI@Z 00517640 f i agid3d:d3dpipe.obj
 0001:00116640       ??_EagiD3DPipeline@@UAEPAXI@Z 00517640 f i agid3d:d3dpipe.obj
 0001:00116670       ??_GagiD3DTexLut@@UAEPAXI@Z 00517670 f i agid3d:d3dpipe.obj
 0001:00116670       ??_EagiD3DTexLut@@UAEPAXI@Z 00517670 f i agid3d:d3dpipe.obj
 0001:001166a0       ??1agiD3DTexLut@@UAE@XZ    005176a0 f i agid3d:d3dpipe.obj
 0001:001166b0       ?Validate@agiDDPipeline@@UAEHXZ 005176b0 f   agid3d:ddpipe.obj
 0001:001166c0       ?DDCallback@@YGHPAU_GUID@@PAD1PAX@Z 005176c0 f   agid3d:ddpipe.obj
 0001:00116740       ?EnumModesCallback@@YGJPAU_DDSURFACEDESC2@@PAX@Z 00517740 f   agid3d:ddpipe.obj
 0001:001167f0       ?EnumSurfsCallback@@YGJPAUIDirectDrawSurface@@PAU_DDSURFACEDESC@@PAX@Z 005177f0 f   agid3d:ddpipe.obj
 0001:00116830       ??0agiDDPipeline@@QAE@XZ   00517830 f   agid3d:ddpipe.obj
 0001:001168d0       ?BeginGfx@agiDDPipeline@@UAEHXZ 005178d0 f   agid3d:ddpipe.obj
 0001:00116c20       ?EndGfx@agiDDPipeline@@UAEXXZ 00517c20 f   agid3d:ddpipe.obj
 0001:00116ce0       ??1agiDDPipeline@@UAE@XZ   00517ce0 f   agid3d:ddpipe.obj
 0001:00116d30       ?BeginFrame@agiDDPipeline@@UAEXXZ 00517d30 f   agid3d:ddpipe.obj
 0001:00116d90       ?BeginScene@agiDDPipeline@@UAEXXZ 00517d90 f   agid3d:ddpipe.obj
 0001:00116de0       ?EndScene@agiDDPipeline@@UAEXXZ 00517de0 f   agid3d:ddpipe.obj
 0001:00116df0       ?EndFrame@agiDDPipeline@@UAEXXZ 00517df0 f   agid3d:ddpipe.obj
 0001:00116e00       ?CreateBitmap@agiDDPipeline@@UAEPAVagiBitmap@@XZ 00517e00 f   agid3d:ddpipe.obj
 0001:00116e60       ?CopyBitmap@agiDDPipeline@@UAEXHHPAVagiBitmap@@HHHH@Z 00517e60 f   agid3d:ddpipe.obj
 0001:00116f10       ?LockFrameBuffer@agiDDPipeline@@UAEHAAVagiSurfaceDesc@@@Z 00517f10 f   agid3d:ddpipe.obj
 0001:00116f50       ?UnlockFrameBuffer@agiDDPipeline@@UAEXXZ 00517f50 f   agid3d:ddpipe.obj
 0001:00116f70       ?ClearRect@agiDDPipeline@@UAEXHHHHI@Z 00517f70 f   agid3d:ddpipe.obj
 0001:00116fd0       ??_EagiDDPipeline@@UAEPAXI@Z 00517fd0 f i agid3d:ddpipe.obj
 0001:00116fd0       ??_GagiDDPipeline@@UAEPAXI@Z 00517fd0 f i agid3d:ddpipe.obj
 0001:00117000       ??0agiD3DRasterizer@@QAE@PAVagiPipeline@@@Z 00518000 f   agid3d:d3drsys.obj
 0001:00117020       ?BeginGfx@agiD3DRasterizer@@UAEHXZ 00518020 f   agid3d:d3drsys.obj
 0001:00117030       ?EndGfx@agiD3DRasterizer@@UAEXXZ 00518030 f   agid3d:d3drsys.obj
 0001:00117040       ??1agiD3DRasterizer@@UAE@XZ 00518040 f   agid3d:d3drsys.obj
 0001:00117050       ?BeginGroup@agiD3DRasterizer@@UAEXXZ 00518050 f   agid3d:d3drsys.obj
 0001:00117060       ?EndGroup@agiD3DRasterizer@@UAEXXZ 00518060 f   agid3d:d3drsys.obj
 0001:00117070       ?d3d_state_init@@YAXXZ     00518070 f   agid3d:d3drsys.obj
 0001:001170e0       ?FlushState@agiD3DRasterizer@@IAEXXZ 005180e0 f   agid3d:d3drsys.obj
 0001:001181b0       ?Verts@agiD3DRasterizer@@UAEXW4agiVtxType@@PATagiVtx@@H@Z 005191b0 f   agid3d:d3drsys.obj
 0001:00118200       ?SetVertCount@agiD3DRasterizer@@UAEXH@Z 00519200 f   agid3d:d3drsys.obj
 0001:00118210       ?Triangle@agiD3DRasterizer@@UAEXHHH@Z 00519210 f   agid3d:d3drsys.obj
 0001:001182a0       ?Line@agiD3DRasterizer@@UAEXHH@Z 005192a0 f   agid3d:d3drsys.obj
 0001:00118320       ?Card@agiD3DRasterizer@@UAEXHH@Z 00519320 f   agid3d:d3drsys.obj
 0001:00118330       ?Points@agiD3DRasterizer@@UAEXW4agiVtxType@@PATagiVtx@@H@Z 00519330 f   agid3d:d3drsys.obj
 0001:00118390       ?Mesh@agiD3DRasterizer@@UAEXW4agiVtxType@@PATagiVtx@@HPAGH@Z 00519390 f   agid3d:d3drsys.obj
 0001:00118400       ?Mesh2@agiD3DRasterizer@@UAEXPAUagiScreenVtx2@@HPAGH@Z 00519400 f   agid3d:d3drsys.obj
 0001:00118480       ??_GagiD3DRasterizer@@UAEPAXI@Z 00519480 f i agid3d:d3drsys.obj
 0001:00118480       ??_EagiD3DRasterizer@@UAEPAXI@Z 00519480 f i agid3d:d3drsys.obj
 0001:001184b0       ??0agiD3DViewport@@QAE@PAVagiPipeline@@@Z 005194b0 f   agid3d:d3dview.obj
 0001:001184e0       ?BeginGfx@agiD3DViewport@@UAEHXZ 005194e0 f   agid3d:d3dview.obj
 0001:00118510       ?EndGfx@agiD3DViewport@@UAEXXZ 00519510 f   agid3d:d3dview.obj
 0001:00118520       ??1agiD3DViewport@@UAE@XZ  00519520 f   agid3d:d3dview.obj
 0001:00118530       ?Activate@agiD3DViewport@@UAEXXZ 00519530 f   agid3d:d3dview.obj
 0001:001185f0       ?SetBackground@agiD3DViewport@@UAEXAAVVector3@@@Z 005195f0 f   agid3d:d3dview.obj
 0001:00118640       ?Clear@agiD3DViewport@@UAEXH@Z 00519640 f   agid3d:d3dview.obj
 0001:001186f0       ??_GagiD3DViewport@@UAEPAXI@Z 005196f0 f i agid3d:d3dview.obj
 0001:001186f0       ??_EagiD3DViewport@@UAEPAXI@Z 005196f0 f i agid3d:d3dview.obj
 0001:00118720       ?DDErrorToString@@YAPADJ@Z 00519720 f   agid3d:dderror.obj
 0001:00118e40       ?__DDTry@@YAXHPBD0H@Z      00519e40 f   agid3d:dderror.obj
 0001:00118f20       ?__DDRelease@@YAXPAUIUnknown@@PBD1H@Z 00519f20 f   agid3d:dderror.obj
 0001:00118f50       ??0agiD3DMtlDef@@QAE@PAVagiPipeline@@@Z 00519f50 f   agid3d:d3dmtldef.obj
 0001:00118f80       ?BeginGfx@agiD3DMtlDef@@UAEHXZ 00519f80 f   agid3d:d3dmtldef.obj
 0001:00119010       ?EndGfx@agiD3DMtlDef@@UAEXXZ 0051a010 f   agid3d:d3dmtldef.obj
 0001:00119050       ??1agiD3DMtlDef@@UAE@XZ    0051a050 f   agid3d:d3dmtldef.obj
 0001:00119060       ?Activate@agiD3DMtlDef@@QAEXXZ 0051a060 f   agid3d:d3dmtldef.obj
 0001:00119140       ?GetHandle@agiD3DMtlDef@@QAEKXZ 0051a140 f   agid3d:d3dmtldef.obj
 0001:00119160       ??_GagiD3DMtlDef@@UAEPAXI@Z 0051a160 f i agid3d:d3dmtldef.obj
 0001:00119160       ??_EagiD3DMtlDef@@UAEPAXI@Z 0051a160 f i agid3d:d3dmtldef.obj
 0001:00119190       ??0agiD3DTexDef@@QAE@PAVagiPipeline@@@Z 0051a190 f   agid3d:d3dtexdef.obj
 0001:001191c0       ??1agiD3DTexDef@@UAE@XZ    0051a1c0 f   agid3d:d3dtexdef.obj
 0001:001191d0       ?BeginGfx@agiD3DTexDef@@UAEHXZ 0051a1d0 f   agid3d:d3dtexdef.obj
 0001:00119530       ?Request@agiD3DTexDef@@UAEXXZ 0051a530 f   agid3d:d3dtexdef.obj
 0001:00119590       ?GetHandle@agiD3DTexDef@@QAEPAUIDirect3DTexture2@@H@Z 0051a590 f   agid3d:d3dtexdef.obj
 0001:00119610       ?Lock@agiD3DTexDef@@UAEHAAUagiTexLock@@@Z 0051a610 f   agid3d:d3dtexdef.obj
 0001:001196b0       ?Unlock@agiD3DTexDef@@UAEXAAUagiTexLock@@@Z 0051a6b0 f   agid3d:d3dtexdef.obj
 0001:001196e0       ?EndGfx@agiD3DTexDef@@UAEXXZ 0051a6e0 f   agid3d:d3dtexdef.obj
 0001:00119750       ?IsAvailable@agiD3DTexDef@@UAEHXZ 0051a750 f   agid3d:d3dtexdef.obj
 0001:00119760       ?Set@agiD3DTexDef@@UAEXAAVVector2@@0@Z 0051a760 f   agid3d:d3dtexdef.obj
 0001:00119780       ?Restore@agiD3DTexDef@@UAEXXZ 0051a780 f   agid3d:d3dtexdef.obj
 0001:001197c0       ?BeginGfx@agiD3DTexLut@@UAEHXZ 0051a7c0 f   agid3d:d3dtexdef.obj
 0001:00119810       ?EndGfx@agiD3DTexLut@@UAEXXZ 0051a810 f   agid3d:d3dtexdef.obj
 0001:00119850       ??_EagiD3DTexDef@@UAEPAXI@Z 0051a850 f i agid3d:d3dtexdef.obj
 0001:00119850       ??_GagiD3DTexDef@@UAEPAXI@Z 0051a850 f i agid3d:d3dtexdef.obj
 0001:00119880       ??0agiD3DLight@@QAE@PAVagiPipeline@@@Z 0051a880 f   agid3d:d3dlight.obj
 0001:001198c0       ??1agiD3DLight@@UAE@XZ     0051a8c0 f   agid3d:d3dlight.obj
 0001:00119920       ?BeginGfx@agiD3DLight@@UAEHXZ 0051a920 f   agid3d:d3dlight.obj
 0001:001199a0       ?EndGfx@agiD3DLight@@UAEXXZ 0051a9a0 f   agid3d:d3dlight.obj
 0001:001199f0       ?Update@agiD3DLight@@UAEHXZ 0051a9f0 f   agid3d:d3dlight.obj
 0001:00119aa0       ??_EagiD3DLight@@UAEPAXI@Z 0051aaa0 f i agid3d:d3dlight.obj
 0001:00119aa0       ??_GagiD3DLight@@UAEPAXI@Z 0051aaa0 f i agid3d:d3dlight.obj
 0001:00119ad0       ??0agiDDBitmap@@QAE@PAVagiPipeline@@@Z 0051aad0 f   agid3d:ddbitmap.obj
 0001:00119b00       ?BeginGfx@agiDDBitmap@@UAEHXZ 0051ab00 f   agid3d:ddbitmap.obj
 0001:00119d60       ?UpdateFlags@agiDDBitmap@@UAEXXZ 0051ad60 f   agid3d:ddbitmap.obj
 0001:00119da0       ?EndGfx@agiDDBitmap@@UAEXXZ 0051ada0 f   agid3d:ddbitmap.obj
 0001:00119dd0       ??1agiDDBitmap@@UAE@XZ     0051add0 f   agid3d:ddbitmap.obj
 0001:00119e20       ?breakme@@YAXXZ            0051ae20 f   agid3d:ddbitmap.obj
 0001:00119e30       ?Restore@agiDDBitmap@@UAEXXZ 0051ae30 f   agid3d:ddbitmap.obj
 0001:00119e70       ??_EagiDDBitmap@@UAEPAXI@Z 0051ae70 f i agid3d:ddbitmap.obj
 0001:00119e70       ??_GagiDDBitmap@@UAEPAXI@Z 0051ae70 f i agid3d:ddbitmap.obj
 0001:00119ea0       ?Validate@agiSWPipeline@@UAEHXZ 0051aea0 f   agisw:swpipe.obj
 0001:00119eb0       ??0agiSWPipeline@@QAE@HPAPAD@Z 0051aeb0 f   agisw:swpipe.obj
 0001:00119f30       ??1agiSWPipeline@@UAE@XZ   0051af30 f   agisw:swpipe.obj
 0001:00119f40       ?BeginGfx@agiSWPipeline@@UAEHXZ 0051af40 f   agisw:swpipe.obj
 0001:0011a0d0       ?EndGfx@agiSWPipeline@@UAEXXZ 0051b0d0 f   agisw:swpipe.obj
 0001:0011a0f0       ?BeginFrame@agiSWPipeline@@UAEXXZ 0051b0f0 f   agisw:swpipe.obj
 0001:0011a130       ?BeginScene@agiSWPipeline@@UAEXXZ 0051b130 f   agisw:swpipe.obj
 0001:0011a150       ?EndScene@agiSWPipeline@@UAEXXZ 0051b150 f   agisw:swpipe.obj
 0001:0011a170       ?EndFrame@agiSWPipeline@@UAEXXZ 0051b170 f   agisw:swpipe.obj
 0001:0011a190       ?CreateDLP@agiSWPipeline@@UAEPAVDLP@@XZ 0051b190 f   agisw:swpipe.obj
 0001:0011a1a0       ?CreateLight@agiSWPipeline@@UAEPAVagiLight@@XZ 0051b1a0 f   agisw:swpipe.obj
 0001:0011a1b0       ?ClearAll@agiSWPipeline@@UAEXH@Z 0051b1b0 f   agisw:swpipe.obj
 0001:0011a240       ?ClearRect@agiSWPipeline@@UAEXHHHHI@Z 0051b240 f   agisw:swpipe.obj
 0001:0011a2a0       ?CreateViewport@agiSWPipeline@@UAEPAVagiViewport@@XZ 0051b2a0 f   agisw:swpipe.obj
 0001:0011a330       ?CreateLightModel@agiSWPipeline@@UAEPAVagiLightModel@@XZ 0051b330 f   agisw:swpipe.obj
 0001:0011a340       ?CreateTexDef@agiSWPipeline@@UAEPAVagiTexDef@@XZ 0051b340 f   agisw:swpipe.obj
 0001:0011a3a0       ?CreateTexLut@agiSWPipeline@@UAEPAVagiTexLut@@XZ 0051b3a0 f   agisw:swpipe.obj
 0001:0011a400       ?CreateMtlDef@agiSWPipeline@@UAEPAVagiMtlDef@@XZ 0051b400 f   agisw:swpipe.obj
 0001:0011a410       ?CreateBitmap@agiSWPipeline@@UAEPAVagiBitmap@@XZ 0051b410 f   agisw:swpipe.obj
 0001:0011a480       ?CopyBitmap@agiSWPipeline@@UAEXHHPAVagiBitmap@@HHHH@Z 0051b480 f   agisw:swpipe.obj
 0001:0011a570       ?swCreatePipeline@@YAPAVagiPipeline@@HPAPAD@Z 0051b570 f   agisw:swpipe.obj
 0001:0011a610       ??_GagiSWPipeline@@UAEPAXI@Z 0051b610 f i agisw:swpipe.obj
 0001:0011a610       ??_EagiSWPipeline@@UAEPAXI@Z 0051b610 f i agisw:swpipe.obj
 0001:0011a640       ?Activate@agiSWViewport@@UAEXXZ 0051b640 f i agisw:swpipe.obj
 0001:0011a660       ?SetBackground@agiSWViewport@@UAEXAAVVector3@@@Z 0051b660 f i agisw:swpipe.obj
 0001:0011a6c0       ?Clear@agiSWViewport@@UAEXH@Z 0051b6c0 f i agisw:swpipe.obj
 0001:0011a8b0       ?BeginGfx@agiSWViewport@@UAEHXZ 0051b8b0 f i agisw:swpipe.obj
 0001:0011a8c0       ?EndGfx@agiSWViewport@@UAEXXZ 0051b8c0 f i agisw:swpipe.obj
 0001:0011a8d0       ??_EagiSWViewport@@UAEPAXI@Z 0051b8d0 f i agisw:swpipe.obj
 0001:0011a8d0       ??_GagiSWViewport@@UAEPAXI@Z 0051b8d0 f i agisw:swpipe.obj
 0001:0011a900       ??1agiSWViewport@@UAE@XZ   0051b900 f i agisw:swpipe.obj
 0001:0011a910       ?BeginGfx@agiSWBitmap@@UAEHXZ 0051b910 f i agisw:swpipe.obj
 0001:0011aa90       ?UpdateFlags@agiSWBitmap@@UAEXXZ 0051ba90 f i agisw:swpipe.obj
 0001:0011aab0       ?EndGfx@agiSWBitmap@@UAEXXZ 0051bab0 f i agisw:swpipe.obj
 0001:0011aad0       ?Restore@agiSWBitmap@@UAEXXZ 0051bad0 f i agisw:swpipe.obj
 0001:0011aae0       ??_GagiSWBitmap@@UAEPAXI@Z 0051bae0 f i agisw:swpipe.obj
 0001:0011aae0       ??_EagiSWBitmap@@UAEPAXI@Z 0051bae0 f i agisw:swpipe.obj
 0001:0011ab10       ??1agiSWBitmap@@UAE@XZ     0051bb10 f i agisw:swpipe.obj
 0001:0011ab20       ?ddAttach@@YAXHH@Z         0051bb20 f   agisw:swddraw.obj
 0001:0011ae60       ?__emitDebug@@YIXPAUswSurface@@H@Z 0051be60 f   agisw:swrend.obj
 0001:0011aec0       ?__emitDepthComplexity@@YIXH@Z 0051bec0 f   agisw:swrend.obj
 0001:0011af00       ?__emitSolid@@YIXH@Z       0051bf00 f   agisw:swrend.obj
 0001:0011af50       ?__emitSolidZ@@YIXH@Z      0051bf50 f   agisw:swrend.obj
 0001:0011afc0       ?__emitWireframe@@YIXH@Z   0051bfc0 f   agisw:swrend.obj
 0001:0011afe0       ?swAddEdge@@YAXHH@Z        0051bfe0 f   agisw:swrend.obj
 0001:0011b1b0       ?__setupUV@@YIXPAUswSurface@@@Z 0051c1b0 f   agisw:swrend.obj
 0001:0011b270       ?__setupUVZ@@YIXPAUswSurface@@@Z 0051c270 f   agisw:swrend.obj
 0001:0011b340       ?__setupZ@@YIXPAUswSurface@@@Z 0051c340 f   agisw:swrend.obj
 0001:0011b380       ?__setupUVI@@YIXPAUswSurface@@@Z 0051c380 f   agisw:swrend.obj
 0001:0011b450       ?__setupUVIZ@@YIXPAUswSurface@@@Z 0051c450 f   agisw:swrend.obj
 0001:0011b530       ?__setupNone@@YIXPAUswSurface@@@Z 0051c530 f   agisw:swrend.obj
 0001:0011b540       ?__spanLinear@@YIXPAUswSurface@@H@Z 0051c540 f   agisw:swrend.obj
 0001:0011b570       ?__spanLinearZwrite@@YIXPAUswSurface@@H@Z 0051c570 f   agisw:swrend.obj
 0001:0011b670       ?__spanPerspXY@@YIXPAUswSurface@@H@Z 0051c670 f   agisw:swrend.obj
 0001:0011b870       ?__spanPerspXYZwrite@@YIXPAUswSurface@@H@Z 0051c870 f   agisw:swrend.obj
 0001:0011b890       ?swScanSurface@@YAXPAUswSurface@@@Z 0051c890 f   agisw:swrend.obj
 0001:0011bad0       ?swInitSurface@@YAPAUswSurface@@UagiScreenVtx@@00I@Z 0051cad0 f   agisw:swrend.obj
 0001:0011c490       ?swScanSurfaces@@YAXXZ     0051d490 f   agisw:swrend.obj
 0001:0011c540       ?swTri@@YAXPAUagiScreenVtx@@00@Z 0051d540 f   agisw:swrend.obj
 0001:0011c700       ?swQuad@@YAXPAUagiScreenVtx@@000@Z 0051d700 f   agisw:swrend.obj
 0001:0011cad0       ?swPoly@@YAXPAUagiScreenVtx@@H@Z 0051dad0 f   agisw:swrend.obj
 0001:0011ce60       ?swLineInt@@YAXHHHHH@Z     0051de60 f   agisw:swrend.obj
 0001:0011cf50       ?swLine@@YAXPAUagiScreenVtx@@0@Z 0051df50 f   agisw:swrend.obj
 0001:0011cfe0       ?swKill@@YAXXZ             0051dfe0 f   agisw:swrend.obj
 0001:0011d010       ?swSetInterlace@@YAXH@Z    0051e010 f   agisw:swrend.obj
 0001:0011d050       ?swInit@@YAXXZ             0051e050 f   agisw:swrend.obj
 0001:0011d2a0       ??0agiSWRasterizer@@QAE@PAVagiPipeline@@@Z 0051e2a0 f   agisw:swrsys.obj
 0001:0011d2c0       ??1agiSWRasterizer@@UAE@XZ 0051e2c0 f   agisw:swrsys.obj
 0001:0011d2d0       ?BeginGfx@agiSWRasterizer@@UAEHXZ 0051e2d0 f   agisw:swrsys.obj
 0001:0011d2e0       ?EndGfx@agiSWRasterizer@@UAEXXZ 0051e2e0 f   agisw:swrsys.obj
 0001:0011d2f0       ?BeginGroup@agiSWRasterizer@@UAEXXZ 0051e2f0 f   agisw:swrsys.obj
 0001:0011d300       ?EndGroup@agiSWRasterizer@@UAEXXZ 0051e300 f   agisw:swrsys.obj
 0001:0011d310       ?Verts@agiSWRasterizer@@UAEXW4agiVtxType@@PATagiVtx@@H@Z 0051e310 f   agisw:swrsys.obj
 0001:0011d320       ?SetVertCount@agiSWRasterizer@@UAEXH@Z 0051e320 f   agisw:swrsys.obj
 0001:0011d330       ?Triangle@agiSWRasterizer@@UAEXHHH@Z 0051e330 f   agisw:swrsys.obj
 0001:0011d360       ?Quad@agiSWRasterizer@@UAEXHHHH@Z 0051e360 f   agisw:swrsys.obj
 0001:0011d3a0       ?Line@agiSWRasterizer@@UAEXHH@Z 0051e3a0 f   agisw:swrsys.obj
 0001:0011d3e0       ?Card@agiSWRasterizer@@UAEXHH@Z 0051e3e0 f   agisw:swrsys.obj
 0001:0011d3f0       ?Points@agiSWRasterizer@@UAEXW4agiVtxType@@PATagiVtx@@H@Z 0051e3f0 f   agisw:swrsys.obj
 0001:0011d400       ?Mesh@agiSWRasterizer@@UAEXW4agiVtxType@@PATagiVtx@@HPAGH@Z 0051e400 f   agisw:swrsys.obj
 0001:0011d4b0       ??_EagiSWRasterizer@@UAEPAXI@Z 0051e4b0 f i agisw:swrsys.obj
 0001:0011d4b0       ??_GagiSWRasterizer@@UAEPAXI@Z 0051e4b0 f i agisw:swrsys.obj
 0001:0011d4e0       ??0agiSWTexDef@@QAE@PAVagiSWPipeline@@@Z 0051e4e0 f   agisw:swtexdef.obj
 0001:0011d510       ??1agiSWTexDef@@UAE@XZ     0051e510 f   agisw:swtexdef.obj
 0001:0011d520       ?Set@agiSWTexDef@@UAEXAAVVector2@@0@Z 0051e520 f   agisw:swtexdef.obj
 0001:0011d540       ?BeginGfx@agiSWTexDef@@UAEHXZ 0051e540 f   agisw:swtexdef.obj
 0001:0011d610       ?IsAvailable@agiSWTexDef@@UAEHXZ 0051e610 f   agisw:swtexdef.obj
 0001:0011d620       ?EndGfx@agiSWTexDef@@UAEXXZ 0051e620 f   agisw:swtexdef.obj
 0001:0011d670       ?Lock@agiSWTexDef@@UAEHAAUagiTexLock@@@Z 0051e670 f   agisw:swtexdef.obj
 0001:0011d6c0       ?Unlock@agiSWTexDef@@UAEXAAUagiTexLock@@@Z 0051e6c0 f   agisw:swtexdef.obj
 0001:0011d6d0       ?Request@agiSWTexDef@@UAEXXZ 0051e6d0 f   agisw:swtexdef.obj
 0001:0011d730       ??0agiSWTexLut@@QAE@PAVagiSWPipeline@@@Z 0051e730 f   agisw:swtexdef.obj
 0001:0011d750       ?BeginGfx@agiSWTexLut@@UAEHXZ 0051e750 f   agisw:swtexdef.obj
 0001:0011d930       ?EndGfx@agiSWTexLut@@UAEXXZ 0051e930 f   agisw:swtexdef.obj
 0001:0011d940       ??_GagiSWTexDef@@UAEPAXI@Z 0051e940 f i agisw:swtexdef.obj
 0001:0011d940       ??_EagiSWTexDef@@UAEPAXI@Z 0051e940 f i agisw:swtexdef.obj
 0001:0011d970       ??_GagiSWTexLut@@UAEPAXI@Z 0051e970 f i agisw:swtexdef.obj
 0001:0011d970       ??_EagiSWTexLut@@UAEPAXI@Z 0051e970 f i agisw:swtexdef.obj
 0001:0011d9a0       ??1agiSWTexLut@@UAE@XZ     0051e9a0 f i agisw:swtexdef.obj
 0001:0011d9b0       ?swEmitRun1_NoZOpaqueDecalLinearSolidWUWV@@YIXH@Z 0051e9b0 f   agisw:swemitrunall.obj
 0001:0011da40       ?swEmitRun2_NoZOpaqueDecalLinearSolidWUWV@@YIXH@Z 0051ea40 f   agisw:swemitrunall.obj
 0001:0011dad0       ?swEmitRun3_NoZOpaqueDecalLinearSolidWUWV@@YIXH@Z 0051ead0 f   agisw:swemitrunall.obj
 0001:0011db60       ?swEmitRun4_NoZOpaqueDecalLinearSolidWUWV@@YIXH@Z 0051eb60 f   agisw:swemitrunall.obj
 0001:0011dbf0       ?swEmitRun5_NoZOpaqueDecalLinearSolidWUWV@@YIXH@Z 0051ebf0 f   agisw:swemitrunall.obj
 0001:0011de10       ?swEmitRun6_NoZOpaqueDecalLinearSolidWUWV@@YIXH@Z 0051ee10 f   agisw:swemitrunall.obj
 0001:0011e030       ?swEmitRun7_NoZOpaqueDecalLinearSolidWUWV@@YIXH@Z 0051f030 f   agisw:swemitrunall.obj
 0001:0011e250       ?swEmitRun8_NoZOpaqueDecalLinearSolidWUWV@@YIXH@Z 0051f250 f   agisw:swemitrunall.obj
 0001:0011e460       ?swEmitRun0_ZReadOpaqueDecalLinearSolidWUWV@@YIXH@Z 0051f460 f   agisw:swemitrunall.obj
 0001:0011e540       ?swEmitRun1_ZReadWriteOpaqueDecalLinearSolidWUWV@@YIXH@Z 0051f540 f   agisw:swemitrunall.obj
 0001:0011e620       ?swEmitRun2_ZReadWriteOpaqueDecalLinearSolidWUWV@@YIXH@Z 0051f620 f   agisw:swemitrunall.obj
 0001:0011e700       ?swEmitRun3_ZReadWriteOpaqueDecalLinearSolidWUWV@@YIXH@Z 0051f700 f   agisw:swemitrunall.obj
 0001:0011e7e0       ?swEmitRun4_ZReadWriteOpaqueDecalLinearSolidWUWV@@YIXH@Z 0051f7e0 f   agisw:swemitrunall.obj
 0001:0011e8c0       ?swEmitRun5_ZReadWriteOpaqueDecalLinearSolidWUWV@@YIXH@Z 0051f8c0 f   agisw:swemitrunall.obj
 0001:0011ec20       ?swEmitRun6_ZReadWriteOpaqueDecalLinearSolidWUWV@@YIXH@Z 0051fc20 f   agisw:swemitrunall.obj
 0001:0011ef80       ?swEmitRun7_ZReadWriteOpaqueDecalLinearSolidWUWV@@YIXH@Z 0051ff80 f   agisw:swemitrunall.obj
 0001:0011f2e0       ?swEmitRun8_ZReadWriteOpaqueDecalLinearSolidWUWV@@YIXH@Z 005202e0 f   agisw:swemitrunall.obj
 0001:0011f630       ?swEmitRun0_NoZOpaqueDecalLinearStippleWUWV@@YIXH@Z 00520630 f   agisw:swemitrunall.obj
 0001:0011f6e0       ?swEmitRun0_ZReadOpaqueDecalLinearStippleWUWV@@YIXH@Z 005206e0 f   agisw:swemitrunall.obj
 0001:0011f7e0       ?swEmitRun0_ZReadWriteOpaqueDecalLinearStippleWUWV@@YIXH@Z 005207e0 f   agisw:swemitrunall.obj
 0001:0011f8e0       ?swEmitRun0_NoZChromaDecalLinearSolidWUWV@@YIXH@Z 005208e0 f   agisw:swemitrunall.obj
 0001:0011f980       ?swEmitRun0_ZReadChromaDecalLinearSolidWUWV@@YIXH@Z 00520980 f   agisw:swemitrunall.obj
 0001:0011fa70       ?swEmitRun0_ZReadWriteChromaDecalLinearSolidWUWV@@YIXH@Z 00520a70 f   agisw:swemitrunall.obj
 0001:0011fb60       ?swEmitRun0_NoZChromaDecalLinearStippleWUWV@@YIXH@Z 00520b60 f   agisw:swemitrunall.obj
 0001:0011fc20       ?swEmitRun0_ZReadChromaDecalLinearStippleWUWV@@YIXH@Z 00520c20 f   agisw:swemitrunall.obj
 0001:0011fd20       ?swEmitRun0_ZReadWriteChromaDecalLinearStippleWUWV@@YIXH@Z 00520d20 f   agisw:swemitrunall.obj
 0001:0011fe30       ?swEmitRun0_NoZGlowDecalLinearSolidWUWV@@YIXH@Z 00520e30 f   agisw:swemitrunall.obj
 0001:0011ff00       ?swEmitRun0_ZReadGlowDecalLinearSolidWUWV@@YIXH@Z 00520f00 f   agisw:swemitrunall.obj
 0001:00120020       ?swEmitRun0_ZReadWriteGlowDecalLinearSolidWUWV@@YIXH@Z 00521020 f   agisw:swemitrunall.obj
 0001:00120150       ?swEmitRun0_NoZGlowDecalLinearStippleWUWV@@YIXH@Z 00521150 f   agisw:swemitrunall.obj
 0001:00120230       ?swEmitRun0_ZReadGlowDecalLinearStippleWUWV@@YIXH@Z 00521230 f   agisw:swemitrunall.obj
 0001:00120360       ?swEmitRun0_ZReadWriteGlowDecalLinearStippleWUWV@@YIXH@Z 00521360 f   agisw:swemitrunall.obj
 0001:001204a0       ?swEmitRun0_NoZOpaqueModulateLinearSolidWUWV@@YIXH@Z 005214a0 f   agisw:swemitrunall.obj
 0001:00120540       ?swEmitRun0_ZReadOpaqueModulateLinearSolidWUWV@@YIXH@Z 00521540 f   agisw:swemitrunall.obj
 0001:00120630       ?swEmitRun0_ZReadWriteOpaqueModulateLinearSolidWUWV@@YIXH@Z 00521630 f   agisw:swemitrunall.obj
 0001:00120730       ?swEmitRun0_NoZOpaqueModulateLinearStippleWUWV@@YIXH@Z 00521730 f   agisw:swemitrunall.obj
 0001:001207e0       ?swEmitRun0_ZReadOpaqueModulateLinearStippleWUWV@@YIXH@Z 005217e0 f   agisw:swemitrunall.obj
 0001:001208e0       ?swEmitRun0_ZReadWriteOpaqueModulateLinearStippleWUWV@@YIXH@Z 005218e0 f   agisw:swemitrunall.obj
 0001:001209f0       ?swEmitRun0_NoZChromaModulateLinearSolidWUWV@@YIXH@Z 005219f0 f   agisw:swemitrunall.obj
 0001:00120aa0       ?swEmitRun0_ZReadChromaModulateLinearSolidWUWV@@YIXH@Z 00521aa0 f   agisw:swemitrunall.obj
 0001:00120ba0       ?swEmitRun0_ZReadWriteChromaModulateLinearSolidWUWV@@YIXH@Z 00521ba0 f   agisw:swemitrunall.obj
 0001:00120ca0       ?swEmitRun0_NoZChromaModulateLinearStippleWUWV@@YIXH@Z 00521ca0 f   agisw:swemitrunall.obj
 0001:00120d60       ?swEmitRun0_ZReadChromaModulateLinearStippleWUWV@@YIXH@Z 00521d60 f   agisw:swemitrunall.obj
 0001:00120e70       ?swEmitRun0_ZReadWriteChromaModulateLinearStippleWUWV@@YIXH@Z 00521e70 f   agisw:swemitrunall.obj
 0001:00120f80       ?swEmitRun0_NoZGlowModulateLinearSolidWUWV@@YIXH@Z 00521f80 f   agisw:swemitrunall.obj
 0001:00121050       ?swEmitRun0_ZReadGlowModulateLinearSolidWUWV@@YIXH@Z 00522050 f   agisw:swemitrunall.obj
 0001:00121170       ?swEmitRun0_ZReadWriteGlowModulateLinearSolidWUWV@@YIXH@Z 00522170 f   agisw:swemitrunall.obj
 0001:001212a0       ?swEmitRun0_NoZGlowModulateLinearStippleWUWV@@YIXH@Z 005222a0 f   agisw:swemitrunall.obj
 0001:00121380       ?swEmitRun0_ZReadGlowModulateLinearStippleWUWV@@YIXH@Z 00522380 f   agisw:swemitrunall.obj
 0001:001214b0       ?swEmitRun0_ZReadWriteGlowModulateLinearStippleWUWV@@YIXH@Z 005224b0 f   agisw:swemitrunall.obj
 0001:001215f0       ?swEmitRun0_NoZOpaqueDecalParaSolidWUWV@@YIXH@Z 005225f0 f   agisw:swemitrunall.obj
 0001:001216b0       ?swEmitRun0_ZReadOpaqueDecalParaSolidWUWV@@YIXH@Z 005226b0 f   agisw:swemitrunall.obj
 0001:001217c0       ?swEmitRun0_ZReadWriteOpaqueDecalParaSolidWUWV@@YIXH@Z 005227c0 f   agisw:swemitrunall.obj
 0001:001218d0       ?swEmitRun0_NoZOpaqueDecalParaStippleWUWV@@YIXH@Z 005228d0 f   agisw:swemitrunall.obj
 0001:001219a0       ?swEmitRun0_ZReadOpaqueDecalParaStippleWUWV@@YIXH@Z 005229a0 f   agisw:swemitrunall.obj
 0001:00121ac0       ?swEmitRun0_ZReadWriteOpaqueDecalParaStippleWUWV@@YIXH@Z 00522ac0 f   agisw:swemitrunall.obj
 0001:00121be0       ?swEmitRun0_NoZChromaDecalParaSolidWUWV@@YIXH@Z 00522be0 f   agisw:swemitrunall.obj
 0001:00121ca0       ?swEmitRun0_ZReadChromaDecalParaSolidWUWV@@YIXH@Z 00522ca0 f   agisw:swemitrunall.obj
 0001:00121dc0       ?swEmitRun0_ZReadWriteChromaDecalParaSolidWUWV@@YIXH@Z 00522dc0 f   agisw:swemitrunall.obj
 0001:00121ee0       ?swEmitRun0_NoZChromaDecalParaStippleWUWV@@YIXH@Z 00522ee0 f   agisw:swemitrunall.obj
 0001:00121fc0       ?swEmitRun0_ZReadChromaDecalParaStippleWUWV@@YIXH@Z 00522fc0 f   agisw:swemitrunall.obj
 0001:001220f0       ?swEmitRun0_ZReadWriteChromaDecalParaStippleWUWV@@YIXH@Z 005230f0 f   agisw:swemitrunall.obj
 0001:00122220       ?swEmitRun0_NoZGlowDecalParaSolidWUWV@@YIXH@Z 00523220 f   agisw:swemitrunall.obj
 0001:00122310       ?swEmitRun0_ZReadGlowDecalParaSolidWUWV@@YIXH@Z 00523310 f   agisw:swemitrunall.obj
 0001:00122450       ?swEmitRun0_ZReadWriteGlowDecalParaSolidWUWV@@YIXH@Z 00523450 f   agisw:swemitrunall.obj
 0001:001225a0       ?swEmitRun0_NoZGlowDecalParaStippleWUWV@@YIXH@Z 005235a0 f   agisw:swemitrunall.obj
 0001:001226b0       ?swEmitRun0_ZReadGlowDecalParaStippleWUWV@@YIXH@Z 005236b0 f   agisw:swemitrunall.obj
 0001:00122800       ?swEmitRun0_ZReadWriteGlowDecalParaStippleWUWV@@YIXH@Z 00523800 f   agisw:swemitrunall.obj
 0001:00122960       ?swEmitRun0_NoZOpaqueModulateParaSolidWUWV@@YIXH@Z 00523960 f   agisw:swemitrunall.obj
 0001:00122a20       ?swEmitRun0_ZReadOpaqueModulateParaSolidWUWV@@YIXH@Z 00523a20 f   agisw:swemitrunall.obj
 0001:00122b30       ?swEmitRun0_ZReadWriteOpaqueModulateParaSolidWUWV@@YIXH@Z 00523b30 f   agisw:swemitrunall.obj
 0001:00122c40       ?swEmitRun0_NoZOpaqueModulateParaStippleWUWV@@YIXH@Z 00523c40 f   agisw:swemitrunall.obj
 0001:00122d20       ?swEmitRun0_ZReadOpaqueModulateParaStippleWUWV@@YIXH@Z 00523d20 f   agisw:swemitrunall.obj
 0001:00122e40       ?swEmitRun0_ZReadWriteOpaqueModulateParaStippleWUWV@@YIXH@Z 00523e40 f   agisw:swemitrunall.obj
 0001:00122f70       ?swEmitRun0_NoZChromaModulateParaSolidWUWV@@YIXH@Z 00523f70 f   agisw:swemitrunall.obj
 0001:00123040       ?swEmitRun0_ZReadChromaModulateParaSolidWUWV@@YIXH@Z 00524040 f   agisw:swemitrunall.obj
 0001:00123160       ?swEmitRun0_ZReadWriteChromaModulateParaSolidWUWV@@YIXH@Z 00524160 f   agisw:swemitrunall.obj
 0001:00123280       ?swEmitRun0_NoZChromaModulateParaStippleWUWV@@YIXH@Z 00524280 f   agisw:swemitrunall.obj
 0001:00123360       ?swEmitRun0_ZReadChromaModulateParaStippleWUWV@@YIXH@Z 00524360 f   agisw:swemitrunall.obj
 0001:00123490       ?swEmitRun0_ZReadWriteChromaModulateParaStippleWUWV@@YIXH@Z 00524490 f   agisw:swemitrunall.obj
 0001:001235d0       ?swEmitRun0_NoZGlowModulateParaSolidWUWV@@YIXH@Z 005245d0 f   agisw:swemitrunall.obj
 0001:001236c0       ?swEmitRun0_ZReadGlowModulateParaSolidWUWV@@YIXH@Z 005246c0 f   agisw:swemitrunall.obj
 0001:00123800       ?swEmitRun0_ZReadWriteGlowModulateParaSolidWUWV@@YIXH@Z 00524800 f   agisw:swemitrunall.obj
 0001:00123950       ?swEmitRun0_NoZGlowModulateParaStippleWUWV@@YIXH@Z 00524950 f   agisw:swemitrunall.obj
 0001:00123a60       ?swEmitRun0_ZReadGlowModulateParaStippleWUWV@@YIXH@Z 00524a60 f   agisw:swemitrunall.obj
 0001:00123bb0       ?swEmitRun0_ZReadWriteGlowModulateParaStippleWUWV@@YIXH@Z 00524bb0 f   agisw:swemitrunall.obj
 0001:00123d10       ?swEmitRun0_NoZOpaqueDecalLinearSolidCUWV@@YIXH@Z 00524d10 f   agisw:swemitrunall.obj
 0001:00123de0       ?swEmitRun0_ZReadOpaqueDecalLinearSolidCUWV@@YIXH@Z 00524de0 f   agisw:swemitrunall.obj
 0001:00123f10       ?swEmitRun0_ZReadWriteOpaqueDecalLinearSolidCUWV@@YIXH@Z 00524f10 f   agisw:swemitrunall.obj
 0001:00124030       ?swEmitRun0_NoZOpaqueDecalLinearStippleCUWV@@YIXH@Z 00525030 f   agisw:swemitrunall.obj
 0001:00124110       ?swEmitRun0_ZReadOpaqueDecalLinearStippleCUWV@@YIXH@Z 00525110 f   agisw:swemitrunall.obj
 0001:00124240       ?swEmitRun0_ZReadWriteOpaqueDecalLinearStippleCUWV@@YIXH@Z 00525240 f   agisw:swemitrunall.obj
 0001:00124380       ?swEmitRun0_NoZChromaDecalLinearSolidCUWV@@YIXH@Z 00525380 f   agisw:swemitrunall.obj
 0001:00124470       ?swEmitRun0_ZReadChromaDecalLinearSolidCUWV@@YIXH@Z 00525470 f   agisw:swemitrunall.obj
 0001:001245b0       ?swEmitRun0_ZReadWriteChromaDecalLinearSolidCUWV@@YIXH@Z 005255b0 f   agisw:swemitrunall.obj
 0001:001246f0       ?swEmitRun0_NoZChromaDecalLinearStippleCUWV@@YIXH@Z 005256f0 f   agisw:swemitrunall.obj
 0001:001247f0       ?swEmitRun0_ZReadChromaDecalLinearStippleCUWV@@YIXH@Z 005257f0 f   agisw:swemitrunall.obj
 0001:00124940       ?swEmitRun0_ZReadWriteChromaDecalLinearStippleCUWV@@YIXH@Z 00525940 f   agisw:swemitrunall.obj
 0001:00124a90       ?swEmitRun0_NoZGlowDecalLinearSolidCUWV@@YIXH@Z 00525a90 f   agisw:swemitrunall.obj
 0001:00124b90       ?swEmitRun0_ZReadGlowDecalLinearSolidCUWV@@YIXH@Z 00525b90 f   agisw:swemitrunall.obj
 0001:00124ce0       ?swEmitRun0_ZReadWriteGlowDecalLinearSolidCUWV@@YIXH@Z 00525ce0 f   agisw:swemitrunall.obj
 0001:00124e20       ?swEmitRun0_NoZGlowDecalLinearStippleCUWV@@YIXH@Z 00525e20 f   agisw:swemitrunall.obj
 0001:00124f30       ?swEmitRun0_ZReadGlowDecalLinearStippleCUWV@@YIXH@Z 00525f30 f   agisw:swemitrunall.obj
 0001:00125090       ?swEmitRun0_ZReadWriteGlowDecalLinearStippleCUWV@@YIXH@Z 00526090 f   agisw:swemitrunall.obj
 0001:001251f0       ?swEmitRun0_NoZOpaqueModulateLinearSolidCUWV@@YIXH@Z 005261f0 f   agisw:swemitrunall.obj
 0001:001252d0       ?swEmitRun0_ZReadOpaqueModulateLinearSolidCUWV@@YIXH@Z 005262d0 f   agisw:swemitrunall.obj
 0001:00125410       ?swEmitRun0_ZReadWriteOpaqueModulateLinearSolidCUWV@@YIXH@Z 00526410 f   agisw:swemitrunall.obj
 0001:00125540       ?swEmitRun0_NoZOpaqueModulateLinearStippleCUWV@@YIXH@Z 00526540 f   agisw:swemitrunall.obj
 0001:00125630       ?swEmitRun0_ZReadOpaqueModulateLinearStippleCUWV@@YIXH@Z 00526630 f   agisw:swemitrunall.obj
 0001:00125770       ?swEmitRun0_ZReadWriteOpaqueModulateLinearStippleCUWV@@YIXH@Z 00526770 f   agisw:swemitrunall.obj
 0001:001258c0       ?swEmitRun0_NoZChromaModulateLinearSolidCUWV@@YIXH@Z 005268c0 f   agisw:swemitrunall.obj
 0001:001259c0       ?swEmitRun0_ZReadChromaModulateLinearSolidCUWV@@YIXH@Z 005269c0 f   agisw:swemitrunall.obj
 0001:00125b10       ?swEmitRun0_ZReadWriteChromaModulateLinearSolidCUWV@@YIXH@Z 00526b10 f   agisw:swemitrunall.obj
 0001:00125c60       ?swEmitRun0_NoZChromaModulateLinearStippleCUWV@@YIXH@Z 00526c60 f   agisw:swemitrunall.obj
 0001:00125d70       ?swEmitRun0_ZReadChromaModulateLinearStippleCUWV@@YIXH@Z 00526d70 f   agisw:swemitrunall.obj
 0001:00125ed0       ?swEmitRun0_ZReadWriteChromaModulateLinearStippleCUWV@@YIXH@Z 00526ed0 f   agisw:swemitrunall.obj
 0001:00126030       ?swEmitRun0_NoZGlowModulateLinearSolidCUWV@@YIXH@Z 00527030 f   agisw:swemitrunall.obj
 0001:00126130       ?swEmitRun0_ZReadGlowModulateLinearSolidCUWV@@YIXH@Z 00527130 f   agisw:swemitrunall.obj
 0001:00126280       ?swEmitRun0_ZReadWriteGlowModulateLinearSolidCUWV@@YIXH@Z 00527280 f   agisw:swemitrunall.obj
 0001:001263c0       ?swEmitRun0_NoZGlowModulateLinearStippleCUWV@@YIXH@Z 005273c0 f   agisw:swemitrunall.obj
